
 Start Length Name Class
 0001:00401000 000008288H _TEXT                  CODE
 0002:0040A000 0000025C0H _DATA                  DATA
 0003:0040C5C0 000000870H _BSS                   BSS
 0004:00000000 00000009CH _TLS                   TLS

 Address Publics by Name

 0002:00000158  @std@bad_alloc@3
 0002:00000338  @std@bad_cast@3
 0002:00000324  @std@bad_typeid@3
 0002:00000144  @std@exception@3
 0002:0000071C  @std@type_info@3
 0002:0000070C  @type_info_hash@3
 0001:000001F0  Sysinit::__linkproc__ __fastcall GetTls()
 0002:000016A8  _CLOCALE
 0002:00001598  _CMonetary
 0002:000015CC  _CNumeric
 0002:000000F8  _COLUMNS
 0002:000015E4  _CTimeDate
 0001:00006E18  _CatchCleanup()
 0001:000026A0  _InitTermAndUnexPtrs()
 0002:000000A4  _NUM_ASCII_PROPERTIES
 0001:00006C71  _ReThrowException(unsigned int, unsigned char *)
 0001:00006C3C  _ThrowExceptionLDTC(void *, void *, void *, void *, unsigned int, unsigned int, unsigned int, unsigned char *, void *)
 0003:00000820  __C0argc
 0003:00000824  __C0argv
 0003:00000828  __C0environ
 0001:0000813A  __CurrExcContext
 0003:00000430  __DestructorCountPtr
 0001:00005668  __ErrorExit
 0001:0000553C  __ErrorMessage
 0001:0000547C  __ErrorMessageHelper
 0003:00000840  __ExcRegPtr
 0001:00002818  __ExceptInit
 0002:00000804  __ExceptVarsSize
 0001:00001BBF  __ExceptionHandler
 0001:00001BB1  __ExitExceptBlock
 0001:00000109  __GetExceptDLLinfo
 0001:00002864  __GetExceptDLLinfoInternal
 0001:000023A0  __GetTypeInfo(void *, void *, void *)
 0001:00006CDC  __Global_unwind
 0003:00000438  __HandlerPtr
 0001:00002A00  __InitDefaultHander
 0001:00001B78  __InitExceptBlockLDTC
 0001:00007348  __Local_unwind
 0002:0000009C  __PackageInfoTable
 0001:0000735B  __Return_unwind
 0001:00002A14  __SetExceptionHandler
 0001:000029B4  __SetUserHandler
 0002:0000008B  __TLS_index
 0002:0000008F  __TLS_index4
 0001:00002A29  __UnsetExceptionHandler
 0001:00002A55  __UnwindException
 0003:0000043C  __UserHandlerPtr
 0002:00000098  ___CPPdebugHook
 0002:00000098  ___CPPdebugHook_segment
 0002:00000768  ___CPPexceptionList
 0001:000008B8  ___CRTL_MEM_CheckBorMem
 0001:0000083C  ___CRTL_MEM_GetBorMemPtrs
 0001:000008F4  ___CRTL_MEM_Revector
 0001:000009AC  ___CRTL_MEM_UseBorMM
 0001:0000659C  ___CRTL_TLS_Alloc
 0001:000065E0  ___CRTL_TLS_ExitThread
 0001:000065A4  ___CRTL_TLS_Free
 0001:000065E8  ___CRTL_TLS_GetInfo
 0001:000065B4  ___CRTL_TLS_GetValue
 0001:000065D8  ___CRTL_TLS_InitThread
 0001:000065C4  ___CRTL_TLS_SetValue
 0001:00001614  ___CRTL_VCLLIB_Linkage
 0001:00001610  ___CRTL_VCL_Init
 0001:000031AC  ___DOSerror
 0001:0000288C  ___DefHandler
 0001:00005658  ___ErrorMessage
 0002:00000784  ___ExceptStaticXbuff
 0001:00003168  ___IOerror
 0001:00006617  ___JumpToCatch__
 0001:000031CC  ___NTerror
 0001:000001F0  ___System__GetTls
 0001:000073BC  ____ExceptionHandler
 0002:000002D8  ___allocated
 0003:00000004  ___bad_alloc
 0001:0000276C  ___call_terminate
 0001:000027E0  ___call_unexpected
 0002:00001D34  ___debuggerDisableTerminateCallback
 0001:00002A62  ___doGlobalUnwind
 0002:0000076C  ___exceptFlags
 0002:00000780  ___exceptMemAllocVars
 0002:0000077C  ___exceptStaticBuffP
 0002:000019D0  ___ieee_64_n_inf
 0002:000019E0  ___ieee_64_n_nanq
 0002:000019F0  ___ieee_64_n_nans
 0002:00001A00  ___ieee_64_n_zero
 0002:000019C8  ___ieee_64_p_inf
 0002:000019D8  ___ieee_64_p_nanq
 0002:000019E8  ___ieee_64_p_nans
 0002:000019F8  ___ieee_64_p_zero
 0002:0000007D  ___isDLL
 0002:00000044  ___isGUI
 0002:0000007C  ___isVCLPackage
 0001:00002A80  ___isatty
 0001:00002AB0  ___isatty_osfhandle
 0001:0000368C  ___isctype
 0001:000036D0  ___iswctype
 0001:000039A4  ___ldtrunc
 0002:000016D4  ___locale
 0001:00003ABC  ___longtoa
 0001:00002AC8  ___lseek
 0001:0000137C  ___org__expand
 0001:00002CA8  ___org__fputc
 0001:00003B4C  ___org__matherr
 0001:00003B78  ___org__matherrl
 0001:000015F4  ___org__msize
 0001:00002CC8  ___org__rtl_write
 0001:00002D10  ___org__write
 0001:00000420  ___org_calloc
 0001:0000044C  ___org_delete
 0001:0000045C  ___org_deletea
 0001:00002DAC  ___org_fflush
 0001:000031E0  ___org_fputc
 0001:000008CC  ___org_free
 0001:000008BC  ___org_malloc
 0001:00001A80  ___org_memcmp
 0001:000018A0  ___org_memcpy
 0001:000018C4  ___org_memmove
 0001:00001910  ___org_memset
 0001:00000480  ___org_new
 0001:00000624  ___org_newa
 0001:00006230  ___org_raise
 0001:000008DC  ___org_realloc
 0001:00001AEC  ___org_strdup
 0001:000019B4  ___org_strlen
 0001:00001A10  ___org_strncat
 0003:00000864  ___pCPPdebugHook
 0002:00001B90  ___pCallAtExitProcs
 0001:00006881  ___raiseDebuggerException
 0002:0000072C  ___terminatePTR
 0002:00000778  ___throwExceptionName
 0002:00000770  ___throwFileName
 0002:00000774  ___throwLineNumber
 0002:00000730  ___unexpectdPTR
 0002:0000008A  ___useDynamicTLS
 0001:00003B30  ___utoa
 0001:00002B40  ___write
 0001:00004C0C  ___xcvt
 0001:00004EE0  ___xcvtw
 0004:00000000  ___xxInfo
 0002:000003E0  ___xxPersonality
 0001:0000570C  __abort
 0001:000000B0  __acrtused
 0001:00002558  __adjustClassAdr(void *, tpid *, tpid *)
 0001:00002D2C  __allocbuf
 0003:00000834  __argc
 0003:000007FC  __argv
 0002:00001C58  __argv0
 0001:000057F4  __argv_default_expand
 0002:00001C50  __argv_expand_ptr
 0001:000053CC  __assert
 0003:00000008  __bormm_pfn_FreeMem
 0003:0000000C  __bormm_pfn_GetMem
 0003:00000014  __bormm_pfn_HeapAddRef
 0003:00000018  __bormm_pfn_HeapRelease
 0003:00000010  __bormm_pfn_ReallocMem
 0001:000057C8  __c_exit
 0001:000057B8  __cexit
 0002:00000860  __cfinfo_get
 0002:00001394  __chartype
 0002:00000818  __chtbl__ __call_terminate()
 0002:00000734  __chtbl__ std::terminate()
 0001:0000638C  __cleanup
 0001:000038B0  __clear87
 0002:00001C04  __cmdline_escapes
 0001:000038C4  __control87
 0001:000062B0  __create_shmem
 0001:00003EFC  __cvt_init
 0001:00004230  __cvt_initw
 0002:00001988  __default87
 0003:00000838  __dll_table
 0002:00000DEC  __dosErrorToSV
 0003:000005D0  __doserrno
 0001:00002EEC  __dup_handle
 0002:00000704  __ectbl__ __GetTypeInfo(void *, void *, void *)
 0002:00000838  __ectbl__ __call_terminate()
 0002:000003CC  __ectbl__ std::bad_alloc::~bad_alloc()
 0002:0000031C  __ectbl__ std::bad_cast::~bad_cast()
 0002:00000314  __ectbl__ std::bad_typeid::~bad_typeid()
 0002:00000754  __ectbl__ std::terminate()
 0003:0000081C  __env_lock
 0003:00000810  __environ
 0003:00000818  __envsize
 0003:00000854  __exe_table
 0001:000057A0  __exit
 0001:000029EC  __exit_except
 0001:000033AC  __exit_streams
 0001:000058CC  __exitargv
 0002:00001BA4  __exitargv_ptr
 0002:00001B94  __exitbuf
 0002:00001B98  __exitfopen
 0002:00001B9C  __exitopen
 0001:0000137C  __expand
 0001:00005E3C  __expandblock
 0002:00000864  __fileinfo
 0002:000002B8  __firstHeap
 0002:00001A0C  __floatconvert
 0001:00002C70  __flushall
 0001:00002E2C  __flushout
 0002:00000DE4  __fmode
 0002:00000DE8  __fmodeptr
 0001:00003924  __fpreset
 0001:00002CA8  __fputc
 0002:000002C4  __freeStart
 0001:00002F54  __free_handle
 0001:0000099C  __free_heaps
 0001:0000393C  __fuildq
 0001:0000396C  __fuistq
 0001:00003990  __fxam
 0001:00000116  __getHInstance
 0001:00003430  __getLocaleNumericInfo
 0001:00002EAC  __get_handle
 0001:000052F8  __getmbcp
 0002:00000093  __hInstance
 0001:00005B08  __handle_exitargv
 0001:000059B0  __handle_setargv
 0001:00005D2C  __handle_wexitargv
 0001:00005B98  __handle_wsetargv
 0003:00000508  __handles
 0002:00000280  __heap_redirector
 0002:00001990  __huge_dble
 0002:0000198C  __huge_flt
 0002:00001998  __huge_ldble
 0002:000019B8  __indefinite
 0001:00005300  __initMBCSTable
 0001:000029D4  __init_except
 0001:000062B8  __init_exit_proc
 0001:0000300C  __init_handles
 0001:0000581C  __init_setargv_handlers
 0001:000032F0  __init_streams
 0001:000057D8  __init_wild_handlers
 0001:00002E98  __initfileinfo
 0001:00002E88  __initfmode
 0001:00003BA8  __initmatherr
 0001:00000F94  __internal_free
 0001:0000131C  __internal_free_heaps
 0001:00001104  __internal_malloc
 0001:0000155C  __internal_realloc
 0001:000021FC  __isCompatTypeID(tpid *, tpid *, int, tpid * *)
 0001:0000010E  __isDLL
 0001:00002120  __isSameTypeID(tpid *, tpid *)
 0002:00001D2C  __isWindows
 0001:00005310  __ismbcspace
 0002:00001AA4  __kalpha
 0002:00001AA6  __kpunct
 0002:000002BC  __lastHeap
 0002:000002C0  __linktable
 0001:00003B4C  __matherr
 0001:00003B78  __matherrl
 0002:000019A6  __max_dble
 0002:000019A2  __max_flt
 0002:000019AE  __max_ldble
 0003:000006D8  __mbcsCodePage
 0003:000005D4  __mbctype
 0001:0000532C  __mbsrchr
 0002:00001B3C  __messagefile
 0002:00001B38  __messagefunc
 0001:000015F4  __msize
 0003:00000000  __new_handler
 0002:000018BC  __nextrealptr
 0002:00001924  __nextrealwptr
 0002:00000D18  __nfile
 0002:000002A8  __nv_heap_size
 0002:000003BC  __odtbl__ std::bad_alloc::~bad_alloc()
 0002:00000D1C  __openfd
 0003:0000082C  __oscmd
 0003:00000830  __osenv
 0003:000007F8  __ostype
 0001:00001304  __phys_avail
 0003:00000440  __pidtab
 0002:00001A10  __pmatherr
 0002:00001A14  __pmatherrl
 0001:00003728  __pow10
 0001:00003BC0  __qdiv10
 0001:00003BE8  __qmul10
 0002:000018B8  __realcvtptr
 0002:00001920  __realcvtwptr
 0002:000002D0  __rover
 0001:00002CC8  __rtl_write
 0002:00000354  __rwstd::__rw_stdexcept_BadAllocException
 0002:00000350  __rwstd::__rw_stdexcept_BadException
 0002:00000358  __rwstd::__rw_stdexcept_Error
 0002:0000034C  __rwstd::__rw_stdexcept_NoNamedException
 0001:00004714  __scan_init
 0001:00004BF4  __scan_initw
 0002:000018C4  __scanrsltptr
 0002:000018C0  __scantodptr
 0002:0000192C  __scanwrsltptr
 0002:00001928  __scanwtodptr
 0001:00005844  __setargv
 0002:00001BB0  __setargv__
 0002:00001BA0  __setargv_ptr
 0002:00001C78  __setenvp__
 0001:00002988  __setexc
 0001:000051D4  __setmbcp
 0002:000002AC  __smalloc_threshold
 0001:000063F8  __startup
 0003:0000085C  __stkbase
 0002:0000084C  __stkchk
 0002:00000868  __streams
 0002:00000F18  __sys_errlist
 0002:00000FDC  __sys_nerr
 0001:000062A0  __terminate
 0002:000019BC  __tiny_ldble
 0001:00000510  __tpdsc__ std::bad_alloc
 0001:000005A8  __tpdsc__ std::bad_alloc *
 0001:000016EC  __tpdsc__ std::bad_cast
 0001:00001744  __tpdsc__ std::bad_typeid
 0001:000005C0  __tpdsc__ std::exception
 0001:000025D4  __tpdsc__ std::type_info
 0001:00002620  __tpdsc__ type_info_hash
 0002:00001A08  __turboFloat
 0001:000020E8  __typeIDname(tpid *)
 0001:000029A4  __unsetexc
 0001:000029C8  __unsetuserhandler
 0002:000002B0  __virt_chunk_free
 0002:000002B4  __virt_chunk_free2
 0002:000002A0  __virt_chunk_size
 0002:000002A4  __virt_chunk_size2
 0002:0000029C  __virt_heap_size
 0003:0000084C  __wC0argv
 0003:00000850  __wC0environ
 0001:00005808  __wargv_default_expand
 0002:00001C54  __wargv_expand_ptr
 0002:00001BAC  __wexitargv_ptr
 0001:0000199C  __wmemset
 0003:00000848  __woscmd
 0003:00000844  __wosenv
 0001:00002D10  __write
 0002:00001BA8  __wsetargv_ptr
 0001:00003408  __xfflush
 0001:00005720  _abort
 0001:00000420  _calloc
 0002:00001B34  _errno
 0001:00005788  _exit
 0001:00002DAC  _fflush
 0001:000031E0  _fputc
 0001:000008CC  _free
 0001:00003484  _isalnum
 0001:000034B0  _isalpha
 0001:0000349C  _isascii
 0001:000034C8  _iscntrl
 0001:000034DC  _isdigit
 0001:000034F0  _isgraph
 0001:00003508  _islower
 0001:0000351C  _isprint
 0001:00003534  _ispunct
 0001:00003548  _isspace
 0001:0000355C  _isupper
 0001:00003588  _iswalnum
 0001:000035B4  _iswalpha
 0001:000035A0  _iswascii
 0001:000035CC  _iswcntrl
 0001:000035E0  _iswdigit
 0001:000035F4  _iswgraph
 0001:0000360C  _iswlower
 0001:00003620  _iswprint
 0001:00003638  _iswpunct
 0001:0000364C  _iswspace
 0001:00003660  _iswupper
 0001:00003674  _iswxdigit
 0001:00003570  _isxdigit
 0001:0000038E  _main
 0001:000008BC  _malloc
 0001:00001A80  _memcmp
 0001:000018A0  _memcpy
 0001:000018C4  _memmove
 0001:00001910  _memset
 0001:0000027D  _print_ascii_entry
 0001:00000200  _print_number
 0001:00006230  _raise
 0001:000008DC  _realloc
 0002:000000A8  _s_ascii_properties
 0001:000061D0  _signal
 0001:00001AEC  _strdup
 0001:000019B4  _strlen
 0001:00001A10  _strncat
 0001:00000774  _virt_alloc
 0001:0000079C  _virt_commit
 0001:000007E8  _virt_decommit
 0001:00000800  _virt_release
 0001:00000708  _virt_reserve
 0001:00001B38  _wcscpy
 0001:00001B20  _wcslen
 0003:000005D4  b1428_2
 0003:000006DC  b1564_2
 0003:000007DC  b1580_2
 0003:000007F8  b1592_2
 0003:000007FC  b1674_2
 0003:00000808  b1676_2
 0003:0000080C  b1678_2
 0003:00000810  b1750_2
 0003:00000820  b1772_1
 0003:00000000  b182_2
 0003:00000860  b1870_2
 0003:00000008  b204_2
 0003:00000020  b248_2
 0003:00000028  b518_2
 0003:00000430  b522_2
 0003:00000438  b528_2
 0003:00000440  b718_1
 0003:000005D0  b796_2
 0001:00003408  c1002_0
 0001:00003430  c1016_0
 0001:00003484  c1024_0
 0001:00003588  c1026_0
 0001:0000368C  c1028_0
 0001:000036D0  c1030_0
 0001:00003728  c1168_0
 0001:000038B0  c1204_0
 0001:000038C4  c1218_0
 0001:000038F4  c1224_0
 0001:0000390C  c1226_0
 0001:00003924  c1266_0
 0001:0000393C  c1274_0
 0001:0000396C  c1276_0
 0001:00003990  c1278_0
 0001:000039A4  c1304_0
 0001:00003ABC  c1314_0
 0001:00003B4C  c1326_0
 0001:00003B78  c1328_0
 0001:00003BA8  c1330_0
 0001:00003BC0  c1352_0
 0001:00003BE8  c1354_0
 0001:00003C18  c1358_0
 0001:00003F14  c1360_0
 0001:00004248  c1368_0
 0001:0000472C  c1370_0
 0001:00004C0C  c1414_0
 0001:00004EE0  c1416_0
 0001:000051D4  c1428_0
 0001:00005300  c1428_3
 0001:00005310  c1450_0
 0001:0000532C  c1512_0
 0001:00005384  c1564_0
 0001:0000542C  c1580_0
 0001:000054E4  c1584_0
 0001:00005680  c1592_0
 0001:00005680  c1592_3
 0001:0000570C  c1612_0
 0001:00005730  c1650_0
 0001:000057D8  c1658_0
 0001:000057F4  c1660_0
 0001:00005808  c1662_0
 0001:0000581C  c1668_0
 0001:00005844  c1674_0
 0001:00005844  c1674_3
 0001:000058CC  c1674_4
 0001:000059B0  c1676_0
 0001:00005B98  c1678_0
 0001:00000420  c172_0
 0001:00005DC0  c1736_0
 0001:00005DC0  c1736_2
 0001:00005DF8  c1736_3
 0001:0000044C  c174_0
 0001:00005E08  c1750_0
 0001:00005F88  c1750_3
 0001:00005E08  c1750_4
 0001:00005FA8  c1754_0
 0001:0000045C  c176_0
 0001:000062A0  c1774_0
 0001:000063F8  c1776_0
 0001:0000046C  c178_0
 0001:0000659C  c1790_0
 0001:00000624  c180_0
 0001:00000634  c182_0
 0001:00000688  c182_3
 0001:00000694  c182_4
 0001:000006D4  c182_5
 0001:000065EC  c1870_0
 0001:000065EC  c1870_3
 0001:000000B0  c1_0
 0001:00000708  c202_0
 0001:0000081C  c204_0
 0001:000008BC  c210_0
 0001:000008DC  c212_0
 0001:000008F4  c214_0
 0001:00000990  c214_2
 0001:000009AC  c216_0
 0001:000009B0  c220_0
 0001:0000137C  c240_0
 0001:00001610  c242_0
 0001:00001614  c246_0
 0001:00001618  c248_0
 0001:00001648  c248_3
 0001:000016A4  c248_4
 0001:00000200  c2_0
 0001:000018A0  c390_0
 0001:000018C4  c394_0
 0001:00001910  c396_0
 0001:0000199C  c398_0
 0001:000019B4  c420_0
 0001:00001A10  c422_0
 0001:00001A80  c438_0
 0001:00001AEC  c444_0
 0001:00001B20  c472_0
 0001:00001B38  c474_0
 0001:00001B78  c514_0
 0001:00001BE8  c518_0
 0001:0000209B  c518_3
 0001:00001D3F  c518_4
 0001:000020C6  c518_5
 0001:00002740  c522_0
 0001:00002740  c522_4
 0001:0000288C  c524_0
 0001:00002898  c528_0
 0001:000029D4  c528_3
 0001:000029EC  c528_4
 0001:00002A14  c532_0
 0001:00002A5C  c534_0
 0001:00002A80  c550_0
 0001:00002AC8  c552_0
 0001:00002B40  c562_0
 0001:00002C5C  c564_0
 0001:00002C70  c582_0
 0001:00002CA8  c584_0
 0001:00002CC8  c638_0
 0001:00002D2C  c642_0
 0001:00002DAC  c704_0
 0001:00002E2C  c726_0
 0001:00002E88  c730_0
 0001:00002EAC  c794_0
 0001:00003168  c796_0
 0001:000031E0  c810_0
 0001:000032F0  c896_0
 0001:000033AC  c896_1
 0002:00001394  d1004_0
 0002:00001598  d1034_0
 0002:000017F8  d1168_1
 0002:000018B8  d1224_1
 0002:00001920  d1226_1
 0002:00001988  d1228_0
 0002:0000198C  d1282_0
 0002:00001A08  d1292_0
 0002:00001A10  d1330_1
 0002:00001A18  d1358_1
 0002:00001A2C  d1360_1
 0002:00001A54  d1368_1
 0002:00001A7C  d1370_1
 0002:00001AA4  d1428_1
 0002:00001AEC  d1564_1
 0002:00001B10  d1580_1
 0002:00001B34  d1582_1
 0002:00001B38  d1584_1
 0002:00001B48  d1592_1
 0002:00001B70  d1612_1
 0002:00001B90  d1614_0
 0002:00001B94  d1650_1
 0002:00001BA0  d1670_0
 0002:00001BA8  d1672_0
 0002:00001BB0  d1674_1
 0002:00001C04  d1676_1
 0002:00001C2C  d1678_1
 0002:00001C50  d1732_0
 0002:00001C54  d1734_0
 0002:00001C58  d1736_1
 0002:00001C78  d1750_1
 0002:00001CCC  d1754_1
 0002:00001D2C  d1772_0
 0002:00001D30  d1774_1
 0002:000000FC  d178_1
 0002:0000016C  d182_1
 0002:00001D34  d1870_1
 0002:00000000  d1_1
 0002:000001E0  d202_1
 0002:000001E4  d204_1
 0002:0000027C  d214_1
 0002:0000029C  d220_1
 0002:000002DC  d248_1
 0002:000000A4  d2_1
 0002:0000034C  d310_1
 0002:000003E0  d516_0
 0002:000003E4  d518_1
 0002:0000072C  d520_1
 0002:00000768  d522_1
 0002:0000084C  d528_1
 0002:00000860  d564_1
 0002:00000864  d644_0
 0002:00000868  d716_0
 0002:00000D18  d718_0
 0002:00000DE4  d728_0
 0002:00000DE8  d730_1
 0002:00000DEC  d796_1
 0002:00000F18  d828_1
 0001:00002A77  invokeHnd()
 0001:00002A5C  jump()
 0001:0000044C  operator delete(void *)
 0001:0000045C  operator delete[](void *)
 0001:00000480  operator new(unsigned int)
 0001:00000624  operator new[](unsigned int)
 0001:00000568  std::bad_alloc::bad_alloc(const std::bad_alloc&)
 0001:00000618  std::bad_alloc::what() const
 0001:00001844  std::bad_alloc::~bad_alloc()
 0001:000017E0  std::bad_cast::~bad_cast()
 0001:000024D8  std::bad_typeid::bad_typeid(const std::bad_typeid&)
 0001:0000179C  std::bad_typeid::~bad_typeid()
 0001:0000060C  std::exception::what() const
 0001:00001824  std::exception::~exception()
 0001:0000046C  std::set_new_handler(void (*)())
 0001:000026C8  std::terminate()
 0001:000024F0  std::type_info::name() const
 0001:0000232C  std::type_info::operator ==(const std::type_info&) const
 0001:0000230C  std::type_info::~type_info()
 0001:00002718  std::unexpected()
 0004:00000000  t522_3
 0001:00002678  type_info_hash::~type_info_hash()

 Address Publics by Value

 0001:000000B0  c1_0
 0001:000000B0  __acrtused
 0001:00000109  __GetExceptDLLinfo
 0001:0000010E  __isDLL
 0001:00000116  __getHInstance
 0001:000001F0  Sysinit::__linkproc__ __fastcall GetTls()
 0001:000001F0  ___System__GetTls
 0001:00000200  c2_0
 0001:00000200  _print_number
 0001:0000027D  _print_ascii_entry
 0001:0000038E  _main
 0001:00000420  ___org_calloc
 0001:00000420  c172_0
 0001:00000420  _calloc
 0001:0000044C  ___org_delete
 0001:0000044C  operator delete(void *)
 0001:0000044C  c174_0
 0001:0000045C  ___org_deletea
 0001:0000045C  operator delete[](void *)
 0001:0000045C  c176_0
 0001:0000046C  std::set_new_handler(void (*)())
 0001:0000046C  c178_0
 0001:00000480  ___org_new
 0001:00000480  operator new(unsigned int)
 0001:00000510  __tpdsc__ std::bad_alloc
 0001:00000568  std::bad_alloc::bad_alloc(const std::bad_alloc&)
 0001:000005A8  __tpdsc__ std::bad_alloc *
 0001:000005C0  __tpdsc__ std::exception
 0001:0000060C  std::exception::what() const
 0001:00000618  std::bad_alloc::what() const
 0001:00000624  c180_0
 0001:00000624  operator new[](unsigned int)
 0001:00000624  ___org_newa
 0001:00000634  c182_0
 0001:00000688  c182_3
 0001:00000694  c182_4
 0001:000006D4  c182_5
 0001:00000708  _virt_reserve
 0001:00000708  c202_0
 0001:00000774  _virt_alloc
 0001:0000079C  _virt_commit
 0001:000007E8  _virt_decommit
 0001:00000800  _virt_release
 0001:0000081C  c204_0
 0001:0000083C  ___CRTL_MEM_GetBorMemPtrs
 0001:000008B8  ___CRTL_MEM_CheckBorMem
 0001:000008BC  _malloc
 0001:000008BC  ___org_malloc
 0001:000008BC  c210_0
 0001:000008CC  ___org_free
 0001:000008CC  _free
 0001:000008DC  _realloc
 0001:000008DC  ___org_realloc
 0001:000008DC  c212_0
 0001:000008F4  ___CRTL_MEM_Revector
 0001:000008F4  c214_0
 0001:00000990  c214_2
 0001:0000099C  __free_heaps
 0001:000009AC  c216_0
 0001:000009AC  ___CRTL_MEM_UseBorMM
 0001:000009B0  c220_0
 0001:00000F94  __internal_free
 0001:00001104  __internal_malloc
 0001:00001304  __phys_avail
 0001:0000131C  __internal_free_heaps
 0001:0000137C  __expand
 0001:0000137C  ___org__expand
 0001:0000137C  c240_0
 0001:0000155C  __internal_realloc
 0001:000015F4  ___org__msize
 0001:000015F4  __msize
 0001:00001610  c242_0
 0001:00001610  ___CRTL_VCL_Init
 0001:00001614  ___CRTL_VCLLIB_Linkage
 0001:00001614  c246_0
 0001:00001618  c248_0
 0001:00001648  c248_3
 0001:000016A4  c248_4
 0001:000016EC  __tpdsc__ std::bad_cast
 0001:00001744  __tpdsc__ std::bad_typeid
 0001:0000179C  std::bad_typeid::~bad_typeid()
 0001:000017E0  std::bad_cast::~bad_cast()
 0001:00001824  std::exception::~exception()
 0001:00001844  std::bad_alloc::~bad_alloc()
 0001:000018A0  _memcpy
 0001:000018A0  c390_0
 0001:000018A0  ___org_memcpy
 0001:000018C4  _memmove
 0001:000018C4  ___org_memmove
 0001:000018C4  c394_0
 0001:00001910  ___org_memset
 0001:00001910  c396_0
 0001:00001910  _memset
 0001:0000199C  __wmemset
 0001:0000199C  c398_0
 0001:000019B4  c420_0
 0001:000019B4  _strlen
 0001:000019B4  ___org_strlen
 0001:00001A10  ___org_strncat
 0001:00001A10  _strncat
 0001:00001A10  c422_0
 0001:00001A80  _memcmp
 0001:00001A80  c438_0
 0001:00001A80  ___org_memcmp
 0001:00001AEC  _strdup
 0001:00001AEC  ___org_strdup
 0001:00001AEC  c444_0
 0001:00001B20  c472_0
 0001:00001B20  _wcslen
 0001:00001B38  _wcscpy
 0001:00001B38  c474_0
 0001:00001B78  __InitExceptBlockLDTC
 0001:00001B78  c514_0
 0001:00001BB1  __ExitExceptBlock
 0001:00001BBF  __ExceptionHandler
 0001:00001BE8  c518_0
 0001:00001D3F  c518_4
 0001:0000209B  c518_3
 0001:000020C6  c518_5
 0001:000020E8  __typeIDname(tpid *)
 0001:00002120  __isSameTypeID(tpid *, tpid *)
 0001:000021FC  __isCompatTypeID(tpid *, tpid *, int, tpid * *)
 0001:0000230C  std::type_info::~type_info()
 0001:0000232C  std::type_info::operator ==(const std::type_info&) const
 0001:000023A0  __GetTypeInfo(void *, void *, void *)
 0001:000024D8  std::bad_typeid::bad_typeid(const std::bad_typeid&)
 0001:000024F0  std::type_info::name() const
 0001:00002558  __adjustClassAdr(void *, tpid *, tpid *)
 0001:000025D4  __tpdsc__ std::type_info
 0001:00002620  __tpdsc__ type_info_hash
 0001:00002678  type_info_hash::~type_info_hash()
 0001:000026A0  _InitTermAndUnexPtrs()
 0001:000026C8  std::terminate()
 0001:00002718  std::unexpected()
 0001:00002740  c522_4
 0001:00002740  c522_0
 0001:0000276C  ___call_terminate
 0001:000027E0  ___call_unexpected
 0001:00002818  __ExceptInit
 0001:00002864  __GetExceptDLLinfoInternal
 0001:0000288C  c524_0
 0001:0000288C  ___DefHandler
 0001:00002898  c528_0
 0001:00002988  __setexc
 0001:000029A4  __unsetexc
 0001:000029B4  __SetUserHandler
 0001:000029C8  __unsetuserhandler
 0001:000029D4  __init_except
 0001:000029D4  c528_3
 0001:000029EC  c528_4
 0001:000029EC  __exit_except
 0001:00002A00  __InitDefaultHander
 0001:00002A14  c532_0
 0001:00002A14  __SetExceptionHandler
 0001:00002A29  __UnsetExceptionHandler
 0001:00002A55  __UnwindException
 0001:00002A5C  c534_0
 0001:00002A5C  jump()
 0001:00002A62  ___doGlobalUnwind
 0001:00002A77  invokeHnd()
 0001:00002A80  ___isatty
 0001:00002A80  c550_0
 0001:00002AB0  ___isatty_osfhandle
 0001:00002AC8  c552_0
 0001:00002AC8  ___lseek
 0001:00002B40  c562_0
 0001:00002B40  ___write
 0001:00002C5C  c564_0
 0001:00002C70  c582_0
 0001:00002C70  __flushall
 0001:00002CA8  __fputc
 0001:00002CA8  ___org__fputc
 0001:00002CA8  c584_0
 0001:00002CC8  ___org__rtl_write
 0001:00002CC8  __rtl_write
 0001:00002CC8  c638_0
 0001:00002D10  ___org__write
 0001:00002D10  __write
 0001:00002D2C  __allocbuf
 0001:00002D2C  c642_0
 0001:00002DAC  c704_0
 0001:00002DAC  _fflush
 0001:00002DAC  ___org_fflush
 0001:00002E2C  c726_0
 0001:00002E2C  __flushout
 0001:00002E88  __initfmode
 0001:00002E88  c730_0
 0001:00002E98  __initfileinfo
 0001:00002EAC  c794_0
 0001:00002EAC  __get_handle
 0001:00002EEC  __dup_handle
 0001:00002F54  __free_handle
 0001:0000300C  __init_handles
 0001:00003168  ___IOerror
 0001:00003168  c796_0
 0001:000031AC  ___DOSerror
 0001:000031CC  ___NTerror
 0001:000031E0  _fputc
 0001:000031E0  ___org_fputc
 0001:000031E0  c810_0
 0001:000032F0  __init_streams
 0001:000032F0  c896_0
 0001:000033AC  c896_1
 0001:000033AC  __exit_streams
 0001:00003408  __xfflush
 0001:00003408  c1002_0
 0001:00003430  __getLocaleNumericInfo
 0001:00003430  c1016_0
 0001:00003484  _isalnum
 0001:00003484  c1024_0
 0001:0000349C  _isascii
 0001:000034B0  _isalpha
 0001:000034C8  _iscntrl
 0001:000034DC  _isdigit
 0001:000034F0  _isgraph
 0001:00003508  _islower
 0001:0000351C  _isprint
 0001:00003534  _ispunct
 0001:00003548  _isspace
 0001:0000355C  _isupper
 0001:00003570  _isxdigit
 0001:00003588  _iswalnum
 0001:00003588  c1026_0
 0001:000035A0  _iswascii
 0001:000035B4  _iswalpha
 0001:000035CC  _iswcntrl
 0001:000035E0  _iswdigit
 0001:000035F4  _iswgraph
 0001:0000360C  _iswlower
 0001:00003620  _iswprint
 0001:00003638  _iswpunct
 0001:0000364C  _iswspace
 0001:00003660  _iswupper
 0001:00003674  _iswxdigit
 0001:0000368C  c1028_0
 0001:0000368C  ___isctype
 0001:000036D0  ___iswctype
 0001:000036D0  c1030_0
 0001:00003728  c1168_0
 0001:00003728  __pow10
 0001:000038B0  c1204_0
 0001:000038B0  __clear87
 0001:000038C4  c1218_0
 0001:000038C4  __control87
 0001:000038F4  c1224_0
 0001:0000390C  c1226_0
 0001:00003924  __fpreset
 0001:00003924  c1266_0
 0001:0000393C  c1274_0
 0001:0000393C  __fuildq
 0001:0000396C  c1276_0
 0001:0000396C  __fuistq
 0001:00003990  c1278_0
 0001:00003990  __fxam
 0001:000039A4  ___ldtrunc
 0001:000039A4  c1304_0
 0001:00003ABC  c1314_0
 0001:00003ABC  ___longtoa
 0001:00003B30  ___utoa
 0001:00003B4C  ___org__matherr
 0001:00003B4C  __matherr
 0001:00003B4C  c1326_0
 0001:00003B78  c1328_0
 0001:00003B78  ___org__matherrl
 0001:00003B78  __matherrl
 0001:00003BA8  c1330_0
 0001:00003BA8  __initmatherr
 0001:00003BC0  __qdiv10
 0001:00003BC0  c1352_0
 0001:00003BE8  __qmul10
 0001:00003BE8  c1354_0
 0001:00003C18  c1358_0
 0001:00003EFC  __cvt_init
 0001:00003F14  c1360_0
 0001:00004230  __cvt_initw
 0001:00004248  c1368_0
 0001:00004714  __scan_init
 0001:0000472C  c1370_0
 0001:00004BF4  __scan_initw
 0001:00004C0C  c1414_0
 0001:00004C0C  ___xcvt
 0001:00004EE0  c1416_0
 0001:00004EE0  ___xcvtw
 0001:000051D4  __setmbcp
 0001:000051D4  c1428_0
 0001:000052F8  __getmbcp
 0001:00005300  c1428_3
 0001:00005300  __initMBCSTable
 0001:00005310  c1450_0
 0001:00005310  __ismbcspace
 0001:0000532C  c1512_0
 0001:0000532C  __mbsrchr
 0001:00005384  c1564_0
 0001:000053CC  __assert
 0001:0000542C  c1580_0
 0001:0000547C  __ErrorMessageHelper
 0001:000054E4  c1584_0
 0001:0000553C  __ErrorMessage
 0001:00005658  ___ErrorMessage
 0001:00005668  __ErrorExit
 0001:00005680  c1592_3
 0001:00005680  c1592_0
 0001:0000570C  __abort
 0001:0000570C  c1612_0
 0001:00005720  _abort
 0001:00005730  c1650_0
 0001:00005788  _exit
 0001:000057A0  __exit
 0001:000057B8  __cexit
 0001:000057C8  __c_exit
 0001:000057D8  c1658_0
 0001:000057D8  __init_wild_handlers
 0001:000057F4  __argv_default_expand
 0001:000057F4  c1660_0
 0001:00005808  __wargv_default_expand
 0001:00005808  c1662_0
 0001:0000581C  __init_setargv_handlers
 0001:0000581C  c1668_0
 0001:00005844  __setargv
 0001:00005844  c1674_3
 0001:00005844  c1674_0
 0001:000058CC  c1674_4
 0001:000058CC  __exitargv
 0001:000059B0  __handle_setargv
 0001:000059B0  c1676_0
 0001:00005B08  __handle_exitargv
 0001:00005B98  __handle_wsetargv
 0001:00005B98  c1678_0
 0001:00005D2C  __handle_wexitargv
 0001:00005DC0  c1736_2
 0001:00005DC0  c1736_0
 0001:00005DF8  c1736_3
 0001:00005E08  c1750_4
 0001:00005E08  c1750_0
 0001:00005E3C  __expandblock
 0001:00005F88  c1750_3
 0001:00005FA8  c1754_0
 0001:000061D0  _signal
 0001:00006230  _raise
 0001:00006230  ___org_raise
 0001:000062A0  c1774_0
 0001:000062A0  __terminate
 0001:000062B0  __create_shmem
 0001:000062B8  __init_exit_proc
 0001:0000638C  __cleanup
 0001:000063F8  c1776_0
 0001:000063F8  __startup
 0001:0000659C  c1790_0
 0001:0000659C  ___CRTL_TLS_Alloc
 0001:000065A4  ___CRTL_TLS_Free
 0001:000065B4  ___CRTL_TLS_GetValue
 0001:000065C4  ___CRTL_TLS_SetValue
 0001:000065D8  ___CRTL_TLS_InitThread
 0001:000065E0  ___CRTL_TLS_ExitThread
 0001:000065E8  ___CRTL_TLS_GetInfo
 0001:000065EC  c1870_0
 0001:000065EC  c1870_3
 0001:00006617  ___JumpToCatch__
 0001:00006881  ___raiseDebuggerException
 0001:00006C3C  _ThrowExceptionLDTC(void *, void *, void *, void *, unsigned int, unsigned int, unsigned int, unsigned char *, void *)
 0001:00006C71  _ReThrowException(unsigned int, unsigned char *)
 0001:00006CDC  __Global_unwind
 0001:00006E18  _CatchCleanup()
 0001:00007348  __Local_unwind
 0001:0000735B  __Return_unwind
 0001:000073BC  ____ExceptionHandler
 0001:0000813A  __CurrExcContext
 0002:00000000  d1_1
 0002:00000044  ___isGUI
 0002:0000007C  ___isVCLPackage
 0002:0000007D  ___isDLL
 0002:0000008A  ___useDynamicTLS
 0002:0000008B  __TLS_index
 0002:0000008F  __TLS_index4
 0002:00000093  __hInstance
 0002:00000098  ___CPPdebugHook_segment
 0002:00000098  ___CPPdebugHook
 0002:0000009C  __PackageInfoTable
 0002:000000A4  d2_1
 0002:000000A4  _NUM_ASCII_PROPERTIES
 0002:000000A8  _s_ascii_properties
 0002:000000F8  _COLUMNS
 0002:000000FC  d178_1
 0002:00000144  @std@exception@3
 0002:00000158  @std@bad_alloc@3
 0002:0000016C  d182_1
 0002:000001E0  d202_1
 0002:000001E4  d204_1
 0002:0000027C  d214_1
 0002:00000280  __heap_redirector
 0002:0000029C  d220_1
 0002:0000029C  __virt_heap_size
 0002:000002A0  __virt_chunk_size
 0002:000002A4  __virt_chunk_size2
 0002:000002A8  __nv_heap_size
 0002:000002AC  __smalloc_threshold
 0002:000002B0  __virt_chunk_free
 0002:000002B4  __virt_chunk_free2
 0002:000002B8  __firstHeap
 0002:000002BC  __lastHeap
 0002:000002C0  __linktable
 0002:000002C4  __freeStart
 0002:000002D0  __rover
 0002:000002D8  ___allocated
 0002:000002DC  d248_1
 0002:00000314  __ectbl__ std::bad_typeid::~bad_typeid()
 0002:0000031C  __ectbl__ std::bad_cast::~bad_cast()
 0002:00000324  @std@bad_typeid@3
 0002:00000338  @std@bad_cast@3
 0002:0000034C  __rwstd::__rw_stdexcept_NoNamedException
 0002:0000034C  d310_1
 0002:00000350  __rwstd::__rw_stdexcept_BadException
 0002:00000354  __rwstd::__rw_stdexcept_BadAllocException
 0002:00000358  __rwstd::__rw_stdexcept_Error
 0002:000003BC  __odtbl__ std::bad_alloc::~bad_alloc()
 0002:000003CC  __ectbl__ std::bad_alloc::~bad_alloc()
 0002:000003E0  d516_0
 0002:000003E0  ___xxPersonality
 0002:000003E4  d518_1
 0002:00000704  __ectbl__ __GetTypeInfo(void *, void *, void *)
 0002:0000070C  @type_info_hash@3
 0002:0000071C  @std@type_info@3
 0002:0000072C  d520_1
 0002:0000072C  ___terminatePTR
 0002:00000730  ___unexpectdPTR
 0002:00000734  __chtbl__ std::terminate()
 0002:00000754  __ectbl__ std::terminate()
 0002:00000768  d522_1
 0002:00000768  ___CPPexceptionList
 0002:0000076C  ___exceptFlags
 0002:00000770  ___throwFileName
 0002:00000774  ___throwLineNumber
 0002:00000778  ___throwExceptionName
 0002:0000077C  ___exceptStaticBuffP
 0002:00000780  ___exceptMemAllocVars
 0002:00000784  ___ExceptStaticXbuff
 0002:00000804  __ExceptVarsSize
 0002:00000818  __chtbl__ __call_terminate()
 0002:00000838  __ectbl__ __call_terminate()
 0002:0000084C  d528_1
 0002:0000084C  __stkchk
 0002:00000860  __cfinfo_get
 0002:00000860  d564_1
 0002:00000864  __fileinfo
 0002:00000864  d644_0
 0002:00000868  d716_0
 0002:00000868  __streams
 0002:00000D18  d718_0
 0002:00000D18  __nfile
 0002:00000D1C  __openfd
 0002:00000DE4  d728_0
 0002:00000DE4  __fmode
 0002:00000DE8  __fmodeptr
 0002:00000DE8  d730_1
 0002:00000DEC  d796_1
 0002:00000DEC  __dosErrorToSV
 0002:00000F18  __sys_errlist
 0002:00000F18  d828_1
 0002:00000FDC  __sys_nerr
 0002:00001394  d1004_0
 0002:00001394  __chartype
 0002:00001598  d1034_0
 0002:00001598  _CMonetary
 0002:000015CC  _CNumeric
 0002:000015E4  _CTimeDate
 0002:000016A8  _CLOCALE
 0002:000016D4  ___locale
 0002:000017F8  d1168_1
 0002:000018B8  d1224_1
 0002:000018B8  __realcvtptr
 0002:000018BC  __nextrealptr
 0002:000018C0  __scantodptr
 0002:000018C4  __scanrsltptr
 0002:00001920  __realcvtwptr
 0002:00001920  d1226_1
 0002:00001924  __nextrealwptr
 0002:00001928  __scanwtodptr
 0002:0000192C  __scanwrsltptr
 0002:00001988  __default87
 0002:00001988  d1228_0
 0002:0000198C  __huge_flt
 0002:0000198C  d1282_0
 0002:00001990  __huge_dble
 0002:00001998  __huge_ldble
 0002:000019A2  __max_flt
 0002:000019A6  __max_dble
 0002:000019AE  __max_ldble
 0002:000019B8  __indefinite
 0002:000019BC  __tiny_ldble
 0002:000019C8  ___ieee_64_p_inf
 0002:000019D0  ___ieee_64_n_inf
 0002:000019D8  ___ieee_64_p_nanq
 0002:000019E0  ___ieee_64_n_nanq
 0002:000019E8  ___ieee_64_p_nans
 0002:000019F0  ___ieee_64_n_nans
 0002:000019F8  ___ieee_64_p_zero
 0002:00001A00  ___ieee_64_n_zero
 0002:00001A08  d1292_0
 0002:00001A08  __turboFloat
 0002:00001A0C  __floatconvert
 0002:00001A10  __pmatherr
 0002:00001A10  d1330_1
 0002:00001A14  __pmatherrl
 0002:00001A18  d1358_1
 0002:00001A2C  d1360_1
 0002:00001A54  d1368_1
 0002:00001A7C  d1370_1
 0002:00001AA4  __kalpha
 0002:00001AA4  d1428_1
 0002:00001AA6  __kpunct
 0002:00001AEC  d1564_1
 0002:00001B10  d1580_1
 0002:00001B34  d1582_1
 0002:00001B34  _errno
 0002:00001B38  __messagefunc
 0002:00001B38  d1584_1
 0002:00001B3C  __messagefile
 0002:00001B48  d1592_1
 0002:00001B70  d1612_1
 0002:00001B90  d1614_0
 0002:00001B90  ___pCallAtExitProcs
 0002:00001B94  d1650_1
 0002:00001B94  __exitbuf
 0002:00001B98  __exitfopen
 0002:00001B9C  __exitopen
 0002:00001BA0  __setargv_ptr
 0002:00001BA0  d1670_0
 0002:00001BA4  __exitargv_ptr
 0002:00001BA8  __wsetargv_ptr
 0002:00001BA8  d1672_0
 0002:00001BAC  __wexitargv_ptr
 0002:00001BB0  __setargv__
 0002:00001BB0  d1674_1
 0002:00001C04  d1676_1
 0002:00001C04  __cmdline_escapes
 0002:00001C2C  d1678_1
 0002:00001C50  d1732_0
 0002:00001C50  __argv_expand_ptr
 0002:00001C54  __wargv_expand_ptr
 0002:00001C54  d1734_0
 0002:00001C58  d1736_1
 0002:00001C58  __argv0
 0002:00001C78  __setenvp__
 0002:00001C78  d1750_1
 0002:00001CCC  d1754_1
 0002:00001D2C  __isWindows
 0002:00001D2C  d1772_0
 0002:00001D30  d1774_1
 0002:00001D34  d1870_1
 0002:00001D34  ___debuggerDisableTerminateCallback
 0003:00000000  b182_2
 0003:00000000  __new_handler
 0003:00000004  ___bad_alloc
 0003:00000008  b204_2
 0003:00000008  __bormm_pfn_FreeMem
 0003:0000000C  __bormm_pfn_GetMem
 0003:00000010  __bormm_pfn_ReallocMem
 0003:00000014  __bormm_pfn_HeapAddRef
 0003:00000018  __bormm_pfn_HeapRelease
 0003:00000020  b248_2
 0003:00000028  b518_2
 0003:00000430  b522_2
 0003:00000430  __DestructorCountPtr
 0003:00000438  __HandlerPtr
 0003:00000438  b528_2
 0003:0000043C  __UserHandlerPtr
 0003:00000440  b718_1
 0003:00000440  __pidtab
 0003:00000508  __handles
 0003:000005D0  b796_2
 0003:000005D0  __doserrno
 0003:000005D4  b1428_2
 0003:000005D4  __mbctype
 0003:000006D8  __mbcsCodePage
 0003:000006DC  b1564_2
 0003:000007DC  b1580_2
 0003:000007F8  b1592_2
 0003:000007F8  __ostype
 0003:000007FC  b1674_2
 0003:000007FC  __argv
 0003:00000808  b1676_2
 0003:0000080C  b1678_2
 0003:00000810  b1750_2
 0003:00000810  __environ
 0003:00000818  __envsize
 0003:0000081C  __env_lock
 0003:00000820  __C0argc
 0003:00000820  b1772_1
 0003:00000824  __C0argv
 0003:00000828  __C0environ
 0003:0000082C  __oscmd
 0003:00000830  __osenv
 0003:00000834  __argc
 0003:00000838  __dll_table
 0003:00000840  __ExcRegPtr
 0003:00000844  __wosenv
 0003:00000848  __woscmd
 0003:0000084C  __wC0argv
 0003:00000850  __wC0environ
 0003:00000854  __exe_table
 0003:0000085C  __stkbase
 0003:00000860  b1870_2
 0003:00000864  ___pCPPdebugHook
 0004:00000000  t522_3
 0004:00000000  ___xxInfo
