	.section .mdebug.abi32
	.previous
	.nan	legacy
	.module	fp=xx
	.module	nooddspreg
	.module	arch=mips3
	.text
$Ltext0:
	.cfi_sections	.debug_frame
	.file 1 "/home/boricj/Documents/ghidra/plugins/unlinker/src/test/resources/ascii-table/src/main.c"
	.align	2
$LFB36 = .
	.file 2 "/home/boricj/Documents/linux/tools/include/nolibc/sys.h"
	.loc 2 485 1 view -0
	.cfi_startproc
	.set	nomips16
	.set	nomicromips
	.ent	sys_getpid
	.type	sys_getpid, @function
sys_getpid:
	.frame	$sp,0,$31		# vars= 0, regs= 0/0, args= 0, gp= 0
	.mask	0x00000000,0
	.fmask	0x00000000,0
	.loc 2 486 2 view $LVU1
$LBB2 = .
	.loc 2 486 9 view $LVU2
	li	$2,4020			# 0xfb4
	.loc 2 486 9 view $LVU3
	.loc 2 486 9 view $LVU4
#APP
 # 486 "/home/boricj/Documents/linux/tools/include/nolibc/sys.h" 1
	addiu $sp, $sp, -32
syscall
addiu $sp, $sp, 32

 # 0 "" 2
	.loc 2 486 9 view $LVU5
#NO_APP
	beq	$7,$0,$L1
	.loc 2 486 9 is_stmt 0 discriminator 1 view $LVU6
	subu	$2,$0,$2
$L1:
$LBE2 = .
	.loc 2 487 1 view $LVU7
	jr	$31
	.end	sys_getpid
	.cfi_endproc
$LFE36:
	.size	sys_getpid, .-sys_getpid
	.align	2
$LVL0 = .
$LFB49 = .
	.loc 2 622 1 is_stmt 1 view -0
	.cfi_startproc
	.set	nomips16
	.set	nomicromips
	.ent	sys_kill
	.type	sys_kill, @function
sys_kill:
	.frame	$sp,0,$31		# vars= 0, regs= 0/0, args= 0, gp= 0
	.mask	0x00000000,0
	.fmask	0x00000000,0
	.loc 2 623 2 view $LVU9
$LBB3 = .
	.loc 2 623 9 view $LVU10
	li	$2,4037			# 0xfc5
	.loc 2 623 9 view $LVU11
	.loc 2 623 9 view $LVU12
	.loc 2 623 9 view $LVU13
	.loc 2 623 9 view $LVU14
#APP
 # 623 "/home/boricj/Documents/linux/tools/include/nolibc/sys.h" 1
	addiu $sp, $sp, -32
syscall
addiu $sp, $sp, 32

 # 0 "" 2
	.loc 2 623 9 view $LVU15
#NO_APP
	beq	$7,$0,$L4
	.loc 2 623 9 is_stmt 0 discriminator 1 view $LVU16
	subu	$2,$0,$2
$L4:
$LBE3 = .
	.loc 2 624 1 view $LVU17
	jr	$31
	.end	sys_kill
	.cfi_endproc
$LFE49:
	.size	sys_kill, .-sys_kill
	.align	2
$LVL1 = .
$LFB101 = .
	.loc 2 1388 1 is_stmt 1 view -0
	.cfi_startproc
	.set	nomips16
	.set	nomicromips
	.ent	sys_write
	.type	sys_write, @function
sys_write:
	.frame	$sp,0,$31		# vars= 0, regs= 0/0, args= 0, gp= 0
	.mask	0x00000000,0
	.fmask	0x00000000,0
	.loc 2 1389 2 view $LVU19
$LBB4 = .
	.loc 2 1389 9 view $LVU20
	li	$2,4004			# 0xfa4
	.loc 2 1389 9 view $LVU21
	.loc 2 1389 9 view $LVU22
	.loc 2 1389 9 view $LVU23
	.loc 2 1389 9 view $LVU24
	.loc 2 1389 9 view $LVU25
#APP
 # 1389 "/home/boricj/Documents/linux/tools/include/nolibc/sys.h" 1
	addiu $sp, $sp, -32
syscall
addiu $sp, $sp, 32

 # 0 "" 2
	.loc 2 1389 9 view $LVU26
#NO_APP
	beq	$7,$0,$L7
	.loc 2 1389 9 is_stmt 0 discriminator 1 view $LVU27
	subu	$2,$0,$2
$L7:
$LBE4 = .
	.loc 2 1390 1 view $LVU28
	jr	$31
	.end	sys_write
	.cfi_endproc
$LFE101:
	.size	sys_write, .-sys_write
	.align	2
$LVL2 = .
$LFB111 = .
	.file 3 "/home/boricj/Documents/linux/tools/include/nolibc/string.h"
	.loc 3 32 1 is_stmt 1 view -0
	.cfi_startproc
	.set	nomips16
	.set	nomicromips
	.ent	_nolibc_memcpy_up
	.type	_nolibc_memcpy_up, @function
_nolibc_memcpy_up:
	.frame	$sp,0,$31		# vars= 0, regs= 0/0, args= 0, gp= 0
	.mask	0x00000000,0
	.fmask	0x00000000,0
	.set	noreorder
	.set	nomacro
	.loc 3 32 1 is_stmt 0 view $LVU30
	move	$2,$4
	.loc 3 33 2 is_stmt 1 view $LVU31
$LVL3 = .
	.loc 3 35 2 view $LVU32
	.loc 3 33 9 is_stmt 0 view $LVU33
	move	$3,$0
	.loc 3 35 8 view $LVU34
	b	$L11
	nop

$LVL4 = .
$L12:
	.loc 3 36 3 is_stmt 1 view $LVU35
	.loc 3 36 16 is_stmt 0 view $LVU36
	addu	$7,$2,$3
	.loc 3 36 43 view $LVU37
	addu	$8,$5,$3
	lb	$8,0($8)
	.loc 3 36 22 view $LVU38
	sb	$8,0($7)
	.loc 3 37 3 is_stmt 1 view $LVU39
	.loc 3 37 6 is_stmt 0 view $LVU40
	addiu	$3,$3,1
$LVL5 = .
$L11:
	.loc 3 35 13 is_stmt 1 view $LVU41
	sltu	$7,$3,$6
	bne	$7,$0,$L12
	nop

	.loc 3 39 2 view $LVU42
	.loc 3 40 1 is_stmt 0 view $LVU43
	jr	$31
	nop

	.set	macro
	.set	reorder
	.end	_nolibc_memcpy_up
	.cfi_endproc
$LFE111:
	.size	_nolibc_memcpy_up, .-_nolibc_memcpy_up
	.align	2
$LVL6 = .
$LFB155 = .
	.file 4 "/home/boricj/Documents/linux/tools/include/nolibc/stdio.h"
	.loc 4 51 1 is_stmt 1 view -0
	.cfi_startproc
	.set	nomips16
	.set	nomicromips
	.ent	fileno
	.type	fileno, @function
fileno:
	.frame	$sp,0,$31		# vars= 0, regs= 0/0, args= 0, gp= 0
	.mask	0x00000000,0
	.fmask	0x00000000,0
	.set	noreorder
	.set	nomacro
	.loc 4 52 2 view $LVU45
	.loc 4 54 2 view $LVU46
	.loc 4 54 5 is_stmt 0 view $LVU47
	bgez	$4,$L16
	nop

	.loc 4 58 2 is_stmt 1 view $LVU48
	.loc 4 58 9 is_stmt 0 view $LVU49
	nor	$2,$0,$4
	.loc 4 59 1 view $LVU50
	jr	$31
	nop

$L16:
	.loc 4 55 3 is_stmt 1 view $LVU51
	.loc 4 55 3 view $LVU52
	lui	$2,%hi(errno)
	li	$3,9			# 0x9
	sw	$3,%lo(errno)($2)
	.loc 4 55 3 view $LVU53
	.loc 4 56 3 view $LVU54
	.loc 4 56 10 is_stmt 0 view $LVU55
	li	$2,-1			# 0xffffffffffffffff
	jr	$31
	nop

	.set	macro
	.set	reorder
	.end	fileno
	.cfi_endproc
$LFE155:
	.size	fileno, .-fileno
	.align	2
	.weak	__start
$LFB0 = .
	.file 5 "/home/boricj/Documents/linux/tools/include/nolibc/arch-mips.h"
	.loc 5 186 1 is_stmt 1 view -0
	.cfi_startproc
	.set	nomips16
	.set	nomicromips
	.ent	__start
	.type	__start, @function
__start:
	.frame	$sp,0,$31		# vars= 0, regs= 0/0, args= 0, gp= 0
	.mask	0x00000000,0
	.fmask	0x00000000,0
	.loc 5 187 2 view $LVU57
#APP
 # 187 "/home/boricj/Documents/linux/tools/include/nolibc/arch-mips.h" 1
	.set push
.set    noreorder
.option pic0
lui $gp, %hi(_gp)
addiu $gp, %lo(_gp)
lw $a0,($sp)
addiu  $a1, $sp, 4
sll $a2, $a0, 2
add   $a2, $a2, $a1
addiu $a2, $a2, 4
lui $a3, %hi(environ)
addiu $a3, %lo(environ)
sw $a2,($a3)
move $t0, $a2
0:lw $a3, ($t0)
bne $a3, $0, 0b
addiu $t0, $t0, 4
lui $a3, %hi(_auxv)
addiu $a3, %lo(_auxv)
sw $t0, ($a3)
li $t0, -8
and $sp, $sp, $t0
addiu $sp,$sp,-16
jal main
nop
move $a0, $v0
li $v0, 4001
syscall
.set pop

 # 0 "" 2
	.loc 5 229 2 view $LVU58
#NO_APP
	.end	__start
	.cfi_endproc
$LFE0:
	.size	__start, .-__start
	.align	2
	.globl	write
$LVL7 = .
$LFB102 = .
	.loc 2 1394 1 view -0
	.cfi_startproc
	.set	nomips16
	.set	nomicromips
	.ent	write
	.type	write, @function
write:
	.frame	$sp,24,$31		# vars= 0, regs= 1/0, args= 16, gp= 0
	.mask	0x80000000,-4
	.fmask	0x00000000,0
	.set	noreorder
	.set	nomacro
	.loc 2 1394 1 is_stmt 0 view $LVU60
	addiu	$sp,$sp,-24
	.cfi_def_cfa_offset 24
	sw	$31,20($sp)
	.cfi_offset 31, -4
	.loc 2 1395 2 is_stmt 1 view $LVU61
	.loc 2 1395 16 is_stmt 0 view $LVU62
	lui	$2,%hi(sys_write)
	addiu	$2,$2,%lo(sys_write)
	jalr	$2
	nop

$LVL8 = .
	.loc 2 1397 2 is_stmt 1 view $LVU63
	.loc 2 1397 5 is_stmt 0 view $LVU64
	bltz	$2,$L21
	nop

$LVL9 = .
$L19:
	.loc 2 1401 2 is_stmt 1 view $LVU65
	.loc 2 1402 1 is_stmt 0 view $LVU66
	lw	$31,20($sp)
	addiu	$sp,$sp,24
	.cfi_remember_state
	.cfi_restore 31
	.cfi_def_cfa_offset 0
	jr	$31
	nop

$L21:
	.cfi_restore_state
	.loc 2 1398 3 is_stmt 1 view $LVU67
	.loc 2 1398 3 view $LVU68
	subu	$2,$0,$2
$LVL10 = .
	.loc 2 1398 3 is_stmt 0 view $LVU69
	lui	$3,%hi(errno)
	sw	$2,%lo(errno)($3)
	.loc 2 1398 3 is_stmt 1 view $LVU70
	.loc 2 1399 3 view $LVU71
$LVL11 = .
	.loc 2 1399 7 is_stmt 0 view $LVU72
	li	$2,-1			# 0xffffffffffffffff
	b	$L19
	nop

	.set	macro
	.set	reorder
	.end	write
	.cfi_endproc
$LFE102:
	.size	write, .-write
	.align	2
$LVL12 = .
$LFB160 = .
	.loc 4 121 1 is_stmt 1 view -0
	.cfi_startproc
	.set	nomips16
	.set	nomicromips
	.ent	fputc
	.type	fputc, @function
fputc:
	.frame	$sp,32,$31		# vars= 8, regs= 1/0, args= 16, gp= 0
	.mask	0x80000000,-4
	.fmask	0x00000000,0
	.set	noreorder
	.set	nomacro
	.loc 4 121 1 is_stmt 0 view $LVU74
	addiu	$sp,$sp,-32
	.cfi_def_cfa_offset 32
	sw	$31,28($sp)
	.cfi_offset 31, -4
	.loc 4 122 2 is_stmt 1 view $LVU75
	.loc 4 122 16 is_stmt 0 view $LVU76
	sb	$4,16($sp)
	.loc 4 124 2 is_stmt 1 view $LVU77
	.loc 4 124 6 is_stmt 0 view $LVU78
	move	$4,$5
$LVL13 = .
	.loc 4 124 6 view $LVU79
	lui	$2,%hi(fileno)
	addiu	$2,$2,%lo(fileno)
	jalr	$2
	nop

$LVL14 = .
	.loc 4 124 6 view $LVU80
	li	$6,1			# 0x1
	addiu	$5,$sp,16
	move	$4,$2
	lui	$2,%hi(write)
	addiu	$2,$2,%lo(write)
	jalr	$2
	nop

$LVL15 = .
	.loc 4 124 5 view $LVU81
	beq	$2,$0,$L24
	nop

	.loc 4 126 2 is_stmt 1 view $LVU82
	.loc 4 126 9 is_stmt 0 view $LVU83
	lbu	$2,16($sp)
$L22:
	.loc 4 127 1 view $LVU84
	lw	$31,28($sp)
	addiu	$sp,$sp,32
	.cfi_remember_state
	.cfi_restore 31
	.cfi_def_cfa_offset 0
	jr	$31
	nop

$L24:
	.cfi_restore_state
	.loc 4 125 10 view $LVU85
	li	$2,-1			# 0xffffffffffffffff
	b	$L22
	nop

	.set	macro
	.set	reorder
	.end	fputc
	.cfi_endproc
$LFE160:
	.size	fputc, .-fputc
	.align	2
$LVL16 = .
$LFB161 = .
	.loc 4 131 1 is_stmt 1 view -0
	.cfi_startproc
	.set	nomips16
	.set	nomicromips
	.ent	putchar
	.type	putchar, @function
putchar:
	.frame	$sp,24,$31		# vars= 0, regs= 1/0, args= 16, gp= 0
	.mask	0x80000000,-4
	.fmask	0x00000000,0
	.set	noreorder
	.set	nomacro
	.loc 4 131 1 is_stmt 0 view $LVU87
	addiu	$sp,$sp,-24
	.cfi_def_cfa_offset 24
	sw	$31,20($sp)
	.cfi_offset 31, -4
	.loc 4 132 2 is_stmt 1 view $LVU88
	.loc 4 132 9 is_stmt 0 view $LVU89
	li	$5,-2			# 0xfffffffffffffffe
	lui	$2,%hi(fputc)
	addiu	$2,$2,%lo(fputc)
	jalr	$2
	nop

$LVL17 = .
	.loc 4 133 1 view $LVU90
	lw	$31,20($sp)
	addiu	$sp,$sp,24
	.cfi_restore 31
	.cfi_def_cfa_offset 0
	jr	$31
	nop

	.set	macro
	.set	reorder
	.end	putchar
	.cfi_endproc
$LFE161:
	.size	putchar, .-putchar
	.section	.text.nolibc_raise,"ax",@progbits
	.align	2
	.weak	raise
$LVL18 = .
$LFB105 = .
	.file 6 "/home/boricj/Documents/linux/tools/include/nolibc/signal.h"
	.loc 6 18 1 is_stmt 1 view -0
	.cfi_startproc
	.set	nomips16
	.set	nomicromips
	.ent	raise
	.type	raise, @function
raise:
	.frame	$sp,24,$31		# vars= 0, regs= 2/0, args= 16, gp= 0
	.mask	0x80010000,-4
	.fmask	0x00000000,0
	.set	noreorder
	.set	nomacro
	.loc 6 18 1 is_stmt 0 view $LVU92
	addiu	$sp,$sp,-24
	.cfi_def_cfa_offset 24
	sw	$31,20($sp)
	sw	$16,16($sp)
	.cfi_offset 31, -4
	.cfi_offset 16, -8
	move	$16,$4
	.loc 6 19 2 is_stmt 1 view $LVU93
	.loc 6 19 9 is_stmt 0 view $LVU94
	lui	$2,%hi(sys_getpid)
	addiu	$2,$2,%lo(sys_getpid)
	jalr	$2
	nop

$LVL19 = .
	.loc 6 19 9 view $LVU95
	move	$5,$16
	move	$4,$2
	lui	$2,%hi(sys_kill)
	addiu	$2,$2,%lo(sys_kill)
	jalr	$2
	nop

$LVL20 = .
	.loc 6 20 1 view $LVU96
	lw	$31,20($sp)
	lw	$16,16($sp)
$LVL21 = .
	.loc 6 20 1 view $LVU97
	addiu	$sp,$sp,24
	.cfi_restore 16
	.cfi_restore 31
	.cfi_def_cfa_offset 0
	jr	$31
	nop

	.set	macro
	.set	reorder
	.end	raise
	.cfi_endproc
$LFE105:
	.size	raise, .-raise
	.section	.text.nolibc_memmove,"ax",@progbits
	.align	2
	.weak	memmove
$LVL22 = .
$LFB113 = .
	.loc 3 57 1 is_stmt 1 view -0
	.cfi_startproc
	.set	nomips16
	.set	nomicromips
	.ent	memmove
	.type	memmove, @function
memmove:
	.frame	$sp,0,$31		# vars= 0, regs= 0/0, args= 0, gp= 0
	.mask	0x00000000,0
	.fmask	0x00000000,0
	.set	noreorder
	.set	nomacro
	.loc 3 57 1 is_stmt 0 view $LVU99
	move	$2,$4
	.loc 3 58 2 is_stmt 1 view $LVU100
	.loc 3 60 2 view $LVU101
$LVL23 = .
	.loc 3 61 2 view $LVU102
	.loc 3 63 2 view $LVU103
	.loc 3 63 5 is_stmt 0 view $LVU104
	sltu	$3,$4,$5
	bne	$3,$0,$L35
	nop

	.loc 3 60 6 view $LVU105
	move	$3,$6
	.loc 3 61 6 view $LVU106
	li	$4,-1			# 0xffffffffffffffff
$LVL24 = .
	.loc 3 61 6 view $LVU107
	b	$L33
	nop

$LVL25 = .
$L34:
	.loc 3 69 3 is_stmt 1 view $LVU108
	.loc 3 69 7 is_stmt 0 view $LVU109
	addu	$3,$3,$4
$LVL26 = .
	.loc 3 70 3 is_stmt 1 view $LVU110
	.loc 3 70 16 is_stmt 0 view $LVU111
	addu	$7,$2,$3
	.loc 3 70 43 view $LVU112
	addu	$8,$5,$3
	lb	$8,0($8)
	.loc 3 70 22 view $LVU113
	sb	$8,0($7)
	.loc 3 71 3 is_stmt 1 view $LVU114
	.loc 3 71 6 is_stmt 0 view $LVU115
	addiu	$6,$6,-1
$LVL27 = .
$L33:
	.loc 3 68 9 is_stmt 1 view $LVU116
	bne	$6,$0,$L34
	nop

	.loc 3 73 2 view $LVU117
	.loc 3 74 1 is_stmt 0 view $LVU118
	jr	$31
	nop

$LVL28 = .
$L35:
	.loc 3 64 7 view $LVU119
	li	$3,-1			# 0xffffffffffffffff
	.loc 3 65 7 view $LVU120
	li	$4,1			# 0x1
$LVL29 = .
	.loc 3 65 7 view $LVU121
	b	$L33
	nop

	.set	macro
	.set	reorder
	.end	memmove
	.cfi_endproc
$LFE113:
	.size	memmove, .-memmove
	.section	.text.nolibc_memcpy,"ax",@progbits
	.align	2
	.weak	memcpy
$LVL30 = .
$LFB114 = .
	.loc 3 79 1 is_stmt 1 view -0
	.cfi_startproc
	.set	nomips16
	.set	nomicromips
	.ent	memcpy
	.type	memcpy, @function
memcpy:
	.frame	$sp,24,$31		# vars= 0, regs= 1/0, args= 16, gp= 0
	.mask	0x80000000,-4
	.fmask	0x00000000,0
	.set	noreorder
	.set	nomacro
	.loc 3 79 1 is_stmt 0 view $LVU123
	addiu	$sp,$sp,-24
	.cfi_def_cfa_offset 24
	sw	$31,20($sp)
	.cfi_offset 31, -4
	.loc 3 80 2 is_stmt 1 view $LVU124
	.loc 3 80 9 is_stmt 0 view $LVU125
	lui	$2,%hi(_nolibc_memcpy_up)
	addiu	$2,$2,%lo(_nolibc_memcpy_up)
	jalr	$2
	nop

$LVL31 = .
	.loc 3 81 1 view $LVU126
	lw	$31,20($sp)
	addiu	$sp,$sp,24
	.cfi_restore 31
	.cfi_def_cfa_offset 0
	jr	$31
	nop

	.set	macro
	.set	reorder
	.end	memcpy
	.cfi_endproc
$LFE114:
	.size	memcpy, .-memcpy
	.section	.text.nolibc_memset,"ax",@progbits
	.align	2
	.weak	memset
$LVL32 = .
$LFB115 = .
	.loc 3 88 1 is_stmt 1 view -0
	.cfi_startproc
	.set	nomips16
	.set	nomicromips
	.ent	memset
	.type	memset, @function
memset:
	.frame	$sp,0,$31		# vars= 0, regs= 0/0, args= 0, gp= 0
	.mask	0x00000000,0
	.fmask	0x00000000,0
	.loc 3 88 1 is_stmt 0 view $LVU128
	move	$2,$4
	.loc 3 89 2 is_stmt 1 view $LVU129
$LVL33 = .
	.loc 3 91 2 view $LVU130
	.loc 3 89 8 is_stmt 0 view $LVU131
	move	$3,$4
	.loc 3 91 8 view $LVU132
	b	$L40
$LVL34 = .
$L41:
	.loc 3 93 3 is_stmt 1 view $LVU133
	.loc 3 94 3 view $LVU134
$LVL35 = .
	.loc 3 94 10 is_stmt 0 view $LVU135
	sb	$5,0($3)
	.loc 3 94 6 view $LVU136
	addiu	$3,$3,1
$LVL36 = .
	.loc 3 91 12 view $LVU137
	move	$6,$7
$LVL37 = .
$L40:
	.loc 3 91 9 is_stmt 1 view $LVU138
	.loc 3 91 12 is_stmt 0 view $LVU139
	addiu	$7,$6,-1
$LVL38 = .
	.loc 3 91 9 view $LVU140
	bne	$6,$0,$L41
	.loc 3 96 2 is_stmt 1 view $LVU141
	.loc 3 97 1 is_stmt 0 view $LVU142
	jr	$31
	.end	memset
	.cfi_endproc
$LFE115:
	.size	memset, .-memset
	.section	.text.nolibc_abort,"ax",@progbits
	.align	2
	.weak	abort
$LFB129 = .
	.file 7 "/home/boricj/Documents/linux/tools/include/nolibc/stdlib.h"
	.loc 7 35 1 is_stmt 1 view -0
	.cfi_startproc
	.set	nomips16
	.set	nomicromips
	.ent	abort
	.type	abort, @function
abort:
	.frame	$sp,24,$31		# vars= 0, regs= 1/0, args= 16, gp= 0
	.mask	0x80000000,-4
	.fmask	0x00000000,0
	.set	noreorder
	.set	nomacro
	addiu	$sp,$sp,-24
	.cfi_def_cfa_offset 24
	sw	$31,20($sp)
	.cfi_offset 31, -4
	.loc 7 36 2 view $LVU144
	lui	$2,%hi(sys_getpid)
	addiu	$2,$2,%lo(sys_getpid)
	jalr	$2
	nop

$LVL39 = .
	li	$5,6			# 0x6
	move	$4,$2
	lui	$2,%hi(sys_kill)
	addiu	$2,$2,%lo(sys_kill)
	jalr	$2
	nop

$LVL40 = .
$L43:
	.loc 7 37 2 discriminator 1 view $LVU145
	.loc 7 37 2 discriminator 1 view $LVU146
	b	$L43
	nop

	.set	macro
	.set	reorder
	.end	abort
	.cfi_endproc
$LFE129:
	.size	abort, .-abort
	.text
	.align	2
	.globl	print_number
$LVL41 = .
$LFB172 = .
	.loc 1 26 28 view -0
	.cfi_startproc
	.set	nomips16
	.set	nomicromips
	.ent	print_number
	.type	print_number, @function
print_number:
	.frame	$sp,32,$31		# vars= 0, regs= 3/0, args= 16, gp= 0
	.mask	0x80030000,-4
	.fmask	0x00000000,0
	.set	noreorder
	.set	nomacro
	.loc 1 26 28 is_stmt 0 view $LVU148
	addiu	$sp,$sp,-32
	.cfi_def_cfa_offset 32
	sw	$31,28($sp)
	sw	$17,24($sp)
	sw	$16,20($sp)
	.cfi_offset 31, -4
	.cfi_offset 17, -8
	.cfi_offset 16, -12
	move	$17,$4
	.loc 1 27 5 is_stmt 1 view $LVU149
$LBB5 = .
	.loc 1 27 10 view $LVU150
$LVL42 = .
	.loc 1 27 14 is_stmt 0 view $LVU151
	li	$16,3			# 0x3
	.loc 1 27 5 view $LVU152
	b	$L46
	nop

$LVL43 = .
$L47:
$LBB6 = .
	.loc 1 33 13 is_stmt 1 view $LVU153
	addiu	$4,$4,87
$LVL44 = .
	.loc 1 33 13 is_stmt 0 view $LVU154
	lui	$2,%hi(putchar)
	addiu	$2,$2,%lo(putchar)
	jalr	$2
	nop

$LVL45 = .
$L48:
	.loc 1 33 13 view $LVU155
$LBE6 = .
	.loc 1 27 30 is_stmt 1 discriminator 2 view $LVU156
	addiu	$16,$16,-1
$LVL46 = .
$L46:
	.loc 1 27 23 discriminator 1 view $LVU157
	bltz	$16,$L51
	nop

$LBB7 = .
	.loc 1 28 9 view $LVU158
	.loc 1 28 32 is_stmt 0 view $LVU159
	sll	$2,$16,2
	.loc 1 28 26 view $LVU160
	sra	$2,$17,$2
	.loc 1 28 13 view $LVU161
	sra	$3,$2,31
	srl	$3,$3,28
	addu	$4,$2,$3
	andi	$4,$4,0xf
	subu	$4,$4,$3
$LVL47 = .
	.loc 1 30 9 is_stmt 1 view $LVU162
	.loc 1 30 12 is_stmt 0 view $LVU163
	slt	$2,$4,10
	beq	$2,$0,$L47
	nop

	.loc 1 31 13 is_stmt 1 view $LVU164
	addiu	$4,$4,48
$LVL48 = .
	.loc 1 31 13 is_stmt 0 view $LVU165
	lui	$2,%hi(putchar)
	addiu	$2,$2,%lo(putchar)
	jalr	$2
	nop

$LVL49 = .
	.loc 1 31 13 view $LVU166
	b	$L48
	nop

$LVL50 = .
$L51:
	.loc 1 31 13 view $LVU167
$LBE7 = .
$LBE5 = .
	.loc 1 35 1 view $LVU168
	lw	$31,28($sp)
	lw	$17,24($sp)
$LVL51 = .
	.loc 1 35 1 view $LVU169
	lw	$16,20($sp)
$LVL52 = .
	.loc 1 35 1 view $LVU170
	addiu	$sp,$sp,32
	.cfi_restore 16
	.cfi_restore 17
	.cfi_restore 31
	.cfi_def_cfa_offset 0
	jr	$31
	nop

	.set	macro
	.set	reorder
	.end	print_number
	.cfi_endproc
$LFE172:
	.size	print_number, .-print_number
	.align	2
	.globl	print_ascii_entry
$LVL53 = .
$LFB173 = .
	.loc 1 37 101 is_stmt 1 view -0
	.cfi_startproc
	.set	nomips16
	.set	nomicromips
	.ent	print_ascii_entry
	.type	print_ascii_entry, @function
print_ascii_entry:
	.frame	$sp,40,$31		# vars= 0, regs= 6/0, args= 16, gp= 0
	.mask	0x801f0000,-4
	.fmask	0x00000000,0
	.set	noreorder
	.set	nomacro
	.loc 1 37 101 is_stmt 0 view $LVU172
	addiu	$sp,$sp,-40
	.cfi_def_cfa_offset 40
	sw	$31,36($sp)
	sw	$20,32($sp)
	sw	$19,28($sp)
	sw	$18,24($sp)
	sw	$17,20($sp)
	sw	$16,16($sp)
	.cfi_offset 31, -4
	.cfi_offset 20, -8
	.cfi_offset 19, -12
	.cfi_offset 18, -16
	.cfi_offset 17, -20
	.cfi_offset 16, -24
	move	$18,$4
	move	$20,$5
	move	$19,$6
	.loc 1 38 5 is_stmt 1 view $LVU173
	lui	$2,%hi(print_number)
	addiu	$2,$2,%lo(print_number)
	jalr	$2
	nop

$LVL54 = .
	.loc 1 39 5 view $LVU174
	li	$4,32			# 0x20
	lui	$2,%hi(putchar)
	addiu	$2,$2,%lo(putchar)
	jalr	$2
	nop

$LVL55 = .
	.loc 1 41 5 view $LVU175
	.loc 1 41 9 is_stmt 0 view $LVU176
	move	$4,$18
	lui	$2,%hi(isgraph)
	addiu	$2,$2,%lo(isgraph)
	jalr	$2
	nop

$LVL56 = .
	.loc 1 41 8 view $LVU177
	beq	$2,$0,$L53
	nop

	.loc 1 42 9 is_stmt 1 view $LVU178
	move	$4,$18
	lui	$2,%hi(putchar)
	addiu	$2,$2,%lo(putchar)
	jalr	$2
	nop

$LVL57 = .
$L54:
	.loc 1 45 5 view $LVU179
	li	$4,32			# 0x20
	lui	$2,%hi(putchar)
	addiu	$2,$2,%lo(putchar)
	jalr	$2
	nop

$LVL58 = .
	.loc 1 47 5 view $LVU180
$LBB8 = .
	.loc 1 47 10 view $LVU181
	.loc 1 47 14 is_stmt 0 view $LVU182
	move	$17,$0
	.loc 1 47 5 view $LVU183
	b	$L55
	nop

$LVL59 = .
$L53:
	.loc 1 47 5 view $LVU184
$LBE8 = .
	.loc 1 44 9 is_stmt 1 view $LVU185
	li	$4,32			# 0x20
	lui	$2,%hi(putchar)
	addiu	$2,$2,%lo(putchar)
	jalr	$2
	nop

$LVL60 = .
	b	$L54
	nop

$LVL61 = .
$L56:
$LBB11 = .
$LBB9 = .
	.loc 1 53 13 view $LVU186
	li	$4,32			# 0x20
	lui	$2,%hi(putchar)
	addiu	$2,$2,%lo(putchar)
	jalr	$2
	nop

$LVL62 = .
$L57:
$LBE9 = .
	.loc 1 47 48 discriminator 2 view $LVU187
	addiu	$17,$17,1
$LVL63 = .
$L55:
	.loc 1 47 23 discriminator 1 view $LVU188
	slt	$2,$17,$19
	beq	$2,$0,$L60
	nop

$LBB10 = .
	.loc 1 48 9 view $LVU189
	.loc 1 48 53 is_stmt 0 view $LVU190
	sll	$16,$17,3
	.loc 1 48 31 view $LVU191
	addu	$16,$20,$16
$LVL64 = .
	.loc 1 50 9 is_stmt 1 view $LVU192
	.loc 1 50 21 is_stmt 0 view $LVU193
	lw	$2,0($16)
	.loc 1 50 13 view $LVU194
	move	$4,$18
	jalr	$2
	nop

$LVL65 = .
	.loc 1 50 12 view $LVU195
	beq	$2,$0,$L56
	nop

	.loc 1 51 13 is_stmt 1 view $LVU196
	lb	$4,4($16)
	lui	$2,%hi(putchar)
	addiu	$2,$2,%lo(putchar)
	jalr	$2
	nop

$LVL66 = .
	b	$L57
	nop

$LVL67 = .
$L60:
	.loc 1 51 13 is_stmt 0 view $LVU197
$LBE10 = .
$LBE11 = .
	.loc 1 55 1 view $LVU198
	lw	$31,36($sp)
	lw	$20,32($sp)
$LVL68 = .
	.loc 1 55 1 view $LVU199
	lw	$19,28($sp)
$LVL69 = .
	.loc 1 55 1 view $LVU200
	lw	$18,24($sp)
	lw	$17,20($sp)
$LVL70 = .
	.loc 1 55 1 view $LVU201
	lw	$16,16($sp)
	addiu	$sp,$sp,40
	.cfi_restore 16
	.cfi_restore 17
	.cfi_restore 18
	.cfi_restore 19
	.cfi_restore 20
	.cfi_restore 31
	.cfi_def_cfa_offset 0
	jr	$31
	nop

	.set	macro
	.set	reorder
	.end	print_ascii_entry
	.cfi_endproc
$LFE173:
	.size	print_ascii_entry, .-print_ascii_entry
	.align	2
	.globl	main
$LFB174 = .
	.loc 1 57 12 is_stmt 1 view -0
	.cfi_startproc
	.set	nomips16
	.set	nomicromips
	.ent	main
	.type	main, @function
main:
	.frame	$sp,24,$31		# vars= 0, regs= 2/0, args= 16, gp= 0
	.mask	0x80010000,-4
	.fmask	0x00000000,0
	.set	noreorder
	.set	nomacro
	addiu	$sp,$sp,-24
	.cfi_def_cfa_offset 24
	sw	$31,20($sp)
	sw	$16,16($sp)
	.cfi_offset 31, -4
	.cfi_offset 16, -8
	.loc 1 58 5 view $LVU203
$LBB12 = .
	.loc 1 58 10 view $LVU204
$LVL71 = .
	.loc 1 58 14 is_stmt 0 view $LVU205
	move	$16,$0
	.loc 1 58 5 view $LVU206
	b	$L62
	nop

$LVL72 = .
$L68:
$LBB13 = .
	.loc 1 65 9 view $LVU207
	li	$4,10			# 0xa
$L63:
	.loc 1 65 9 discriminator 4 view $LVU208
	lui	$2,%hi(putchar)
	addiu	$2,$2,%lo(putchar)
	jalr	$2
	nop

$LVL73 = .
$LBE13 = .
	.loc 1 58 31 is_stmt 1 discriminator 4 view $LVU209
	addiu	$16,$16,1
$LVL74 = .
$L62:
	.loc 1 58 23 discriminator 2 view $LVU210
	slt	$2,$16,128
	beq	$2,$0,$L67
	nop

$LBB14 = .
	.loc 1 59 9 view $LVU211
	.loc 1 59 19 is_stmt 0 view $LVU212
	lw	$3,%gp_rel(COLUMNS)($28)
	.loc 1 59 13 view $LVU213
	div	$0,$16,$3
	mfhi	$2
	mflo	$5
$LVL75 = .
	.loc 1 60 9 is_stmt 1 view $LVU214
	.loc 1 61 9 view $LVU215
	.loc 1 61 27 is_stmt 0 view $LVU216
	sll	$2,$2,7
	nop
$LVL76 = .
	.loc 1 61 33 view $LVU217
	div	$0,$2,$3
$LVL77 = .
	.loc 1 61 33 view $LVU218
	mflo	$4
	.loc 1 61 13 view $LVU219
	addu	$4,$4,$5
$LVL78 = .
	.loc 1 63 9 is_stmt 1 view $LVU220
	li	$6,10			# 0xa
	lui	$5,%hi(s_ascii_properties)
$LVL79 = .
	.loc 1 63 9 is_stmt 0 view $LVU221
	addiu	$5,$5,%lo(s_ascii_properties)
	sll	$4,$4,24
$LVL80 = .
	.loc 1 63 9 view $LVU222
	sra	$4,$4,24
	lui	$2,%hi(print_ascii_entry)
	addiu	$2,$2,%lo(print_ascii_entry)
	jalr	$2
	nop

$LVL81 = .
	.loc 1 65 9 is_stmt 1 view $LVU223
	.loc 1 65 19 is_stmt 0 view $LVU224
	lw	$2,%gp_rel(COLUMNS)($28)
	div	$0,$16,$2
	mfhi	$3
	.loc 1 65 40 view $LVU225
	addiu	$2,$2,-1
	.loc 1 65 9 view $LVU226
	beq	$3,$2,$L68
	nop

	li	$4,9			# 0x9
	b	$L63
	nop

$LVL82 = .
$L67:
	.loc 1 65 9 view $LVU227
$LBE14 = .
$LBE12 = .
	.loc 1 68 5 is_stmt 1 view $LVU228
	.loc 1 69 1 is_stmt 0 view $LVU229
	move	$2,$0
	lw	$31,20($sp)
	lw	$16,16($sp)
$LVL83 = .
	.loc 1 69 1 view $LVU230
	addiu	$sp,$sp,24
	.cfi_restore 16
	.cfi_restore 31
	.cfi_def_cfa_offset 0
	jr	$31
	nop

	.set	macro
	.set	reorder
	.end	main
	.cfi_endproc
$LFE174:
	.size	main, .-main
	.globl	COLUMNS
	.section	.sdata,"aw"
	.align	2
	.type	COLUMNS, @object
	.size	COLUMNS, 4
COLUMNS:
	.word	4
	.globl	s_ascii_properties
	.rdata
	.align	2
	.type	s_ascii_properties, @object
	.size	s_ascii_properties, 80
s_ascii_properties:
	.word	isgraph
	.byte	103
	.space	3
	.word	isprint
	.byte	112
	.space	3
	.word	iscntrl
	.byte	99
	.space	3
	.word	isspace
	.byte	115
	.space	3
	.word	ispunct
	.byte	33
	.space	3
	.word	isalnum
	.byte	65
	.space	3
	.word	isalpha
	.byte	97
	.space	3
	.word	isdigit
	.byte	100
	.space	3
	.word	isupper
	.byte	85
	.space	3
	.word	islower
	.byte	108
	.space	3
	.globl	NUM_ASCII_PROPERTIES
	.section	.sdata
	.align	2
	.type	NUM_ASCII_PROPERTIES, @object
	.size	NUM_ASCII_PROPERTIES, 4
NUM_ASCII_PROPERTIES:
	.word	10
	.weak	errno
	.section	.sbss,"aw",@nobits
	.align	2
	.type	errno, @object
	.size	errno, 4
errno:
	.space	4
	.weak	_auxv
	.align	2
	.type	_auxv, @object
	.size	_auxv, 4
_auxv:
	.space	4
	.weak	environ
	.align	2
	.type	environ, @object
	.size	environ, 4
environ:
	.space	4
	.text
$Letext0:
	.file 8 "/home/boricj/Documents/linux/tools/include/nolibc/stdint.h"
	.file 9 "/home/boricj/Documents/linux/tools/include/nolibc/std.h"
	.file 10 "/home/boricj/Documents/linux/tools/include/nolibc/errno.h"
	.file 11 "../../include/ctype.h"
	.section	.note.GNU-stack,"",@progbits
