 main

 Timestamp is 695c78fd (Mon Jan  5 21:52:45 2026)

 Preferred load address is 0000000140000000

 Start         Length     Name                   Class
 0001:00000000 00080300H .text$mn                CODE
 0001:00080300 00001070H .text$mn$00             CODE
 0001:00081370 00002090H .text$mn$21             CODE
 0001:00083400 00001ccbH .text$x                 CODE
 0002:00000000 00000110H .CRT$XCA                DATA
 0002:00000110 00000110H .CRT$XCAA               DATA
 0002:00000220 00000110H .CRT$XCZ                DATA
 0002:00000330 00000110H .CRT$XIA                DATA
 0002:00000440 00000110H .CRT$XIAA               DATA
 0002:00000550 00000110H .CRT$XIAC               DATA
 0002:00000660 00000140H .CRT$XIC                DATA
 0002:000007a0 00000110H .CRT$XIZ                DATA
 0002:000008b0 00000110H .CRT$XPA                DATA
 0002:000009c0 00000120H .CRT$XPX                DATA
 0002:00000ae0 00000110H .CRT$XPXA               DATA
 0002:00000bf0 00000110H .CRT$XPZ                DATA
 0002:00000d00 00000110H .CRT$XTA                DATA
 0002:00000e10 00000110H .CRT$XTZ                DATA
 0002:00000f20 0000d340H .rdata                  DATA
 0002:0000e260 000002a0H .rdata$00               DATA
 0002:0000e500 00000200H .rdata$CastGuardVftablesA DATA
 0002:0000e700 000001a0H .rdata$CastGuardVftablesC DATA
 0002:0000e8a0 0000060cH .rdata$r                DATA
 0002:0000eeac 000001c4H .rdata$zzzdbg           DATA
 0002:0000f070 00000110H .rtc$IAA                DATA
 0002:0000f180 00000110H .rtc$IZZ                DATA
 0002:0000f290 00000110H .rtc$TAA                DATA
 0002:0000f3a0 00000110H .rtc$TZZ                DATA
 0002:0000f4b0 00007950H .xdata                  DATA
 0002:00016e00 00000196H .xdata$x                DATA
 0002:00016f96 00000000H .edata                  DATA
 0003:00000000 00000e40H .data                   DATA
 0003:00000e40 00000190H .data$r                 DATA
 0003:00000fd0 00000230H .data$rs                DATA
 0003:00001200 00001ee1H .bss                    DATA
 0004:00000000 00005388H .pdata                  DATA
 0005:00000000 000003c8H .idata$5                DATA
 0005:000003c8 00000014H .idata$2                DATA
 0005:000003dc 00000014H .idata$3                DATA
 0005:000003f0 000003c8H .idata$4                DATA
 0005:000007b8 00000871H .idata$6                DATA
 0006:00000000 00000175H .00cfg                  DATA
 0007:00000000 00000233H .fptable                DATA

  Address         Publics by Value              Rva+Base               Lib:Object

 0000:00000000       __AbsoluteZero             0000000000000000     <absolute>
 0000:00000000       ___safe_se_handler_count   0000000000000000     <absolute>
 0000:00000000       ___safe_se_handler_table   0000000000000000     <absolute>
 0000:00000000       __arm64x_extra_rfe_table   0000000000000000     <absolute>
 0000:00000000       __arm64x_extra_rfe_table_size 0000000000000000     <absolute>
 0000:00000000       __arm64x_native_entrypoint 0000000000000000     <absolute>
 0000:00000000       __arm64x_redirection_metadata 0000000000000000     <absolute>
 0000:00000000       __arm64x_redirection_metadata_count 0000000000000000     <absolute>
 0000:00000000       __dynamic_value_reloc_table 0000000000000000     <absolute>
 0000:00000000       __enclave_config           0000000000000000     <absolute>
 0000:00000000       __guard_check_icall_a64n_fptr 0000000000000000     <absolute>
 0000:00000000       __guard_eh_cont_count      0000000000000000     <absolute>
 0000:00000000       __guard_eh_cont_table      0000000000000000     <absolute>
 0000:00000000       __guard_fids_count         0000000000000000     <absolute>
 0000:00000000       __guard_fids_table         0000000000000000     <absolute>
 0000:00000000       __guard_iat_count          0000000000000000     <absolute>
 0000:00000000       __guard_iat_table          0000000000000000     <absolute>
 0000:00000000       __guard_longjmp_count      0000000000000000     <absolute>
 0000:00000000       __guard_longjmp_table      0000000000000000     <absolute>
 0000:00000000       __hybrid_auxiliary_delayload_iat 0000000000000000     <absolute>
 0000:00000000       __hybrid_auxiliary_delayload_iat_copy 0000000000000000     <absolute>
 0000:00000000       __hybrid_auxiliary_iat     0000000000000000     <absolute>
 0000:00000000       __hybrid_auxiliary_iat_copy 0000000000000000     <absolute>
 0000:00000000       __hybrid_code_map          0000000000000000     <absolute>
 0000:00000000       __hybrid_code_map_count    0000000000000000     <absolute>
 0000:00000000       __hybrid_image_info_bitfield 0000000000000000     <absolute>
 0000:00000000       __volatile_metadata        0000000000000000     <absolute>
 0000:00000000       __x64_code_ranges_to_entry_points 0000000000000000     <absolute>
 0000:00000000       __x64_code_ranges_to_entry_points_count 0000000000000000     <absolute>
 0000:00000100       __guard_flags              0000000000000100     <absolute>
 0000:00000000       __ImageBase                0000000140000000     <linker-defined>
 0001:000063b0       print_number               00000001400073b0 f   main.obj
 0001:00006430       print_ascii_entry          0000000140007430 f   main.obj
 0001:00006510       main                       0000000140007510 f   main.obj
 0001:00006958       ?configure_argv@__scrt_narrow_argv_policy@@SAHXZ 0000000140007958 f i LIBCMT:exe_main.obj
 0001:00006974       ?initialize_environment@__scrt_narrow_environment_policy@@SAHXZ 0000000140007974 f i LIBCMT:exe_main.obj
 0001:000069c0       ?set_app_type@__scrt_main_policy@@SAXXZ 00000001400079c0 f i LIBCMT:exe_main.obj
 0001:000069cc       ?set_commode@__scrt_file_policy@@SAXXZ 00000001400079cc f i LIBCMT:exe_main.obj
 0001:000069ec       ?set_fmode@__scrt_file_policy@@SAXXZ 00000001400079ec f i LIBCMT:exe_main.obj
 0001:00006a08       mainCRTStartup             0000000140007a08 f   LIBCMT:exe_main.obj
 0001:00006ab4       NtCurrentTeb               0000000140007ab4 f i LIBCMT:utility.obj
 0001:00006ac0       __scrt_acquire_startup_lock 0000000140007ac0 f   LIBCMT:utility.obj
 0001:00006b08       __scrt_dllmain_after_initialize_c 0000000140007b08 f   LIBCMT:utility.obj
 0001:00006b4c       __scrt_dllmain_before_initialize_c 0000000140007b4c f   LIBCMT:utility.obj
 0001:00006b68       __scrt_dllmain_crt_thread_attach 0000000140007b68 f   LIBCMT:utility.obj
 0001:00006b9c       __scrt_dllmain_crt_thread_detach 0000000140007b9c f   LIBCMT:utility.obj
 0001:00006bb8       __scrt_dllmain_exception_filter 0000000140007bb8 f   LIBCMT:utility.obj
 0001:00006c30       __scrt_dllmain_uninitialize_c 0000000140007c30 f   LIBCMT:utility.obj
 0001:00006c6c       __scrt_dllmain_uninitialize_critical 0000000140007c6c f   LIBCMT:utility.obj
 0001:00006c88       __scrt_initialize_crt      0000000140007c88 f   LIBCMT:utility.obj
 0001:00006cd0       __scrt_initialize_onexit_tables 0000000140007cd0 f   LIBCMT:utility.obj
 0001:00006d80       __scrt_is_nonwritable_in_current_image 0000000140007d80 f   LIBCMT:utility.obj
 0001:00006e40       __scrt_release_startup_lock 0000000140007e40 f   LIBCMT:utility.obj
 0001:00006e70       __scrt_uninitialize_crt    0000000140007e70 f   LIBCMT:utility.obj
 0001:00006ea4       _onexit                    0000000140007ea4 f   LIBCMT:utility.obj
 0001:00006eec       at_quick_exit              0000000140007eec f   LIBCMT:utility.obj
 0001:00006f10       atexit                     0000000140007f10 f   LIBCMT:utility.obj
 0001:00006fb8       __security_init_cookie     0000000140007fb8 f   LIBCMT:gs_support.obj
 0001:00007094       _matherr                   0000000140008094 f   LIBCMT:matherr.obj
 0001:00007098       _get_startup_argv_mode     0000000140008098 f   LIBCMT:argv_mode.obj
 0001:000070a0       _get_startup_commit_mode   00000001400080a0 f   LIBCMT:commit_mode.obj
 0001:000070a4       _get_startup_file_mode     00000001400080a4 f   LIBCMT:file_mode.obj
 0001:000070ac       _get_startup_new_mode      00000001400080ac f   LIBCMT:new_mode.obj
 0001:000070b0       _get_startup_thread_locale_mode 00000001400080b0 f   LIBCMT:thread_locale.obj
 0001:000070b4       ?__scrt_initialize_type_info@@YAXXZ 00000001400080b4 f   LIBCMT:tncleanup.obj
 0001:000070c8       ?__scrt_uninitialize_type_info@@YAXXZ 00000001400080c8 f   LIBCMT:tncleanup.obj
 0001:000070d8       _should_initialize_environment 00000001400080d8 f   LIBCMT:env_mode.obj
 0001:000070dc       _initialize_invalid_parameter_handler 00000001400080dc f   LIBCMT:invalid_parameter_handler.obj
 0001:000070e0       _initialize_denormal_control 00000001400080e0 f   LIBCMT:denormal_control.obj
 0001:000070e4       __local_stdio_printf_options 00000001400080e4 f i LIBCMT:default_local_stdio_options.obj
 0001:000070f0       __local_stdio_scanf_options 00000001400080f0 f i LIBCMT:default_local_stdio_options.obj
 0001:000070fc       __scrt_initialize_default_local_stdio_options 00000001400080fc f   LIBCMT:default_local_stdio_options.obj
 0001:00007120       __scrt_is_user_matherr_present 0000000140008120 f   LIBCMT:matherr_detection.obj
 0001:00007130       __scrt_get_dyn_tls_init_callback 0000000140008130 f   LIBCMT:dyn_tls_init.obj
 0001:0000713c       __scrt_get_dyn_tls_dtor_callback 000000014000813c f   LIBCMT:dyn_tls_dtor.obj
 0001:00007148       __crt_debugger_hook        0000000140008148 f   LIBCMT:utility_desktop.obj
 0001:00007158       __scrt_fastfail            0000000140008158 f   LIBCMT:utility_desktop.obj
 0001:000072f8       __scrt_get_show_window_mode 00000001400082f8 f   LIBCMT:utility_desktop.obj
 0001:00007340       __scrt_initialize_mta      0000000140008340 f   LIBCMT:utility_desktop.obj
 0001:00007348       __scrt_initialize_winrt    0000000140008348 f   LIBCMT:utility_desktop.obj
 0001:0000734c       __scrt_is_managed_app      000000014000834c f   LIBCMT:utility_desktop.obj
 0001:000073b4       __scrt_set_unhandled_exception_filter 00000001400083b4 f   LIBCMT:utility_desktop.obj
 0001:000073c8       __scrt_exe_initialize_mta  00000001400083c8 f   LIBCMT:utility_desktop.obj
 0001:000073c8       __scrt_stub_for_initialize_mta 00000001400083c8 f   LIBCMT:utility_desktop.obj
 0001:000073cc       __scrt_unhandled_exception_filter 00000001400083cc f   LIBCMT:utility_desktop.obj
 0001:00007448       _RTC_Initialize            0000000140008448 f   LIBCMT:initsect.obj
 0001:00007494       _RTC_Terminate             0000000140008494 f   LIBCMT:initsect.obj
 0001:000074e0       _guard_check_icall_nop     00000001400084e0 f i LIBCMT:guard_support.obj
 0001:000074e4       ReadNoFence64              00000001400084e4 f i LIBCMT:guard_support.obj
 0001:000074e8       ReadPointerNoFence         00000001400084e8 f i LIBCMT:guard_support.obj
 0001:000074ec       __castguard_check_failure_debugbreak 00000001400084ec f i LIBCMT:guard_support.obj
 0001:00007510       __castguard_check_failure_fastfail 0000000140008510 f i LIBCMT:guard_support.obj
 0001:0000753c       __castguard_check_failure_nop 000000014000853c f i LIBCMT:guard_support.obj
 0001:00007540       __castguard_check_failure_os_handled 0000000140008540 f i LIBCMT:guard_support.obj
 0001:0000759c       __castguard_check_failure_user_handled 000000014000859c f i LIBCMT:guard_support.obj
 0001:00007628       __castguard_set_user_handler 0000000140008628 f i LIBCMT:guard_support.obj
 0001:00007638       __castguard_slow_path_check_debugbreak 0000000140008638 f i LIBCMT:guard_support.obj
 0001:0000767c       __castguard_slow_path_check_fastfail 000000014000867c f i LIBCMT:guard_support.obj
 0001:000076c4       __castguard_slow_path_check_nop 00000001400086c4 f i LIBCMT:guard_support.obj
 0001:000076c8       __castguard_slow_path_check_os_handled 00000001400086c8 f i LIBCMT:guard_support.obj
 0001:00007728       __castguard_slow_path_check_user_handled 0000000140008728 f i LIBCMT:guard_support.obj
 0001:000077ac       _guard_icall_checks_enforced 00000001400087ac f i LIBCMT:guard_support.obj
 0001:000077c8       _guard_rf_checks_enforced  00000001400087c8 f i LIBCMT:guard_support.obj
 0001:000077cc       __isa_available_init       00000001400087cc f   LIBCMT:cpu_disp.obj
 0001:00007b08       __scrt_is_ucrt_dll_in_use  0000000140008b08 f   LIBCMT:ucrt_detection.obj
 0001:00007b20       QueryPerformanceCounter    0000000140008b20 f   kernel32:KERNEL32.dll
 0001:00007b26       GetCurrentProcessId        0000000140008b26 f   kernel32:KERNEL32.dll
 0001:00007b2c       GetCurrentThreadId         0000000140008b2c f   kernel32:KERNEL32.dll
 0001:00007b32       GetSystemTimeAsFileTime    0000000140008b32 f   kernel32:KERNEL32.dll
 0001:00007b38       InitializeSListHead        0000000140008b38 f   kernel32:KERNEL32.dll
 0001:00007b3e       RtlCaptureContext          0000000140008b3e f   kernel32:KERNEL32.dll
 0001:00007b44       RtlLookupFunctionEntry     0000000140008b44 f   kernel32:KERNEL32.dll
 0001:00007b4a       RtlVirtualUnwind           0000000140008b4a f   kernel32:KERNEL32.dll
 0001:00007b50       IsDebuggerPresent          0000000140008b50 f   kernel32:KERNEL32.dll
 0001:00007b56       UnhandledExceptionFilter   0000000140008b56 f   kernel32:KERNEL32.dll
 0001:00007b5c       SetUnhandledExceptionFilter 0000000140008b5c f   kernel32:KERNEL32.dll
 0001:00007b62       GetStartupInfoW            0000000140008b62 f   kernel32:KERNEL32.dll
 0001:00007b68       IsProcessorFeaturePresent  0000000140008b68 f   kernel32:KERNEL32.dll
 0001:00007b6e       GetModuleHandleW           0000000140008b6e f   kernel32:KERNEL32.dll
 0001:00007b74       __C_specific_handler       0000000140008b74 f   libvcruntime:riscchandler.obj
 0001:00007e10       __vcrt_initialize          0000000140008e10 f   libvcruntime:initialization.obj
 0001:00007e44       __vcrt_thread_attach       0000000140008e44 f   libvcruntime:initialization.obj
 0001:00007e60       __vcrt_thread_detach       0000000140008e60 f   libvcruntime:initialization.obj
 0001:00007e74       __vcrt_uninitialize        0000000140008e74 f   libvcruntime:initialization.obj
 0001:00007e94       __vcrt_uninitialize_critical 0000000140008e94 f   libvcruntime:initialization.obj
 0001:00007ebc       ??$?RD@__crt_internal_free_policy@@QEBAXQEBD@Z 0000000140008ebc f i libvcruntime:std_type_info.obj
 0001:00007ec8       ??$?RX@__crt_internal_free_policy@@QEBAXQEBX@Z 0000000140008ec8 f i libvcruntime:std_type_info.obj
 0001:00007ed4       ??$__crt_interlocked_compare_exchange_pointer@$$CBDPEAD$$T@@YAPEBDPEDSEBDQEAD$$T@Z 0000000140008ed4 f i libvcruntime:std_type_info.obj
 0001:00007ee0       ??$__crt_interlocked_read_pointer@$$CBD@@YAPEBDPEDSEBD@Z 0000000140008ee0 f i libvcruntime:std_type_info.obj
 0001:00007ee8       ??0?$__crt_unique_heap_ptr@DU__crt_internal_free_policy@@@@QEAA@QEAD@Z 0000000140008ee8 f i libvcruntime:std_type_info.obj
 0001:00007ef0       ??0?$__crt_unique_heap_ptr@XU__crt_internal_free_policy@@@@QEAA@QEAX@Z 0000000140008ef0 f i libvcruntime:std_type_info.obj
 0001:00007ef8       ??1?$__crt_unique_heap_ptr@DU__crt_internal_free_policy@@@@QEAA@XZ 0000000140008ef8 f i libvcruntime:std_type_info.obj
 0001:00007f20       ??1?$__crt_unique_heap_ptr@XU__crt_internal_free_policy@@@@QEAA@XZ 0000000140008f20 f i libvcruntime:std_type_info.obj
 0001:00007f48       ??B?$__crt_unique_heap_ptr@DU__crt_internal_free_policy@@@@QEBA_NXZ 0000000140008f48 f i libvcruntime:std_type_info.obj
 0001:00007f54       ??B?$__crt_unique_heap_ptr@XU__crt_internal_free_policy@@@@QEBA_NXZ 0000000140008f54 f i libvcruntime:std_type_info.obj
 0001:00007f78       ?__crt_interlocked_read_64@@YA_JPED_J@Z 0000000140008f78 f i libvcruntime:std_type_info.obj
 0001:00007f80       ?detach@?$__crt_unique_heap_ptr@XU__crt_internal_free_policy@@@@QEAAPEAXXZ 0000000140008f80 f i libvcruntime:std_type_info.obj
 0001:00007f90       ?get@?$__crt_unique_heap_ptr@DU__crt_internal_free_policy@@@@QEBAPEADXZ 0000000140008f90 f i libvcruntime:std_type_info.obj
 0001:00007f94       ?get@?$__crt_unique_heap_ptr@XU__crt_internal_free_policy@@@@QEBAPEAXXZ 0000000140008f94 f i libvcruntime:std_type_info.obj
 0001:00007f98       ?is_valid@?$__crt_unique_heap_ptr@DU__crt_internal_free_policy@@@@QEBA_NXZ 0000000140008f98 f i libvcruntime:std_type_info.obj
 0001:00007fa4       ?is_valid@?$__crt_unique_heap_ptr@XU__crt_internal_free_policy@@@@QEBA_NXZ 0000000140008fa4 f i libvcruntime:std_type_info.obj
 0001:00007fb0       ?release@?$__crt_unique_heap_ptr@DU__crt_internal_free_policy@@@@QEAAXXZ 0000000140008fb0 f i libvcruntime:std_type_info.obj
 0001:00007fd8       ?release@?$__crt_unique_heap_ptr@XU__crt_internal_free_policy@@@@QEAAXXZ 0000000140008fd8 f i libvcruntime:std_type_info.obj
 0001:00008000       __std_type_info_compare    0000000140009000 f   libvcruntime:std_type_info.obj
 0001:0000801c       __std_type_info_destroy_list 000000014000901c f   libvcruntime:std_type_info.obj
 0001:00008050       __std_type_info_hash       0000000140009050 f   libvcruntime:std_type_info.obj
 0001:00008098       __std_type_info_name       0000000140009098 f   libvcruntime:std_type_info.obj
 0001:000081e0       __DestructExceptionObject  00000001400091e0 f   libvcruntime:ehhelpers.obj
 0001:00008274       ?_CallMemberFunction0@@YAXQEAX0@Z 0000000140009274 f i libvcruntime:ehhelpers.obj
 0001:000082f0       ?raw_name@type_info@@QEBAPEBDXZ 00000001400092f0 f i libvcruntime:ehhelpers.obj
 0001:000082f8       _IsExceptionObjectToBeDestroyed 00000001400092f8 f   libvcruntime:ehhelpers.obj
 0001:00008334       _SetWinRTOutOfMemoryExceptionCallback 0000000140009334 f   libvcruntime:ehhelpers.obj
 0001:00008340       __AdjustPointer            0000000140009340 f   libvcruntime:ehhelpers.obj
 0001:0000836c       __FrameUnwindFilter        000000014000936c f   libvcruntime:ehhelpers.obj
 0001:000083ec       __GetPlatformExceptionInfo 00000001400093ec f   libvcruntime:ehhelpers.obj
 0001:00008468       __current_exception        0000000140009468 f   libvcruntime:ehhelpers.obj
 0001:00008480       __current_exception_context 0000000140009480 f   libvcruntime:ehhelpers.obj
 0001:00008498       __processing_throw         0000000140009498 f   libvcruntime:ehhelpers.obj
 0001:000084b0       __std_terminate            00000001400094b0 f   libvcruntime:ehhelpers.obj
 0001:000084bc       _is_exception_typeof       00000001400094bc f   libvcruntime:ehhelpers.obj
 0001:000085e0       _NLG_Notify                00000001400095e0 f   libvcruntime:notify.obj
 0001:00008610       __NLG_Dispatch2            0000000140009610 f   libvcruntime:notify.obj
 0001:00008620       __NLG_Return2              0000000140009620 f   libvcruntime:notify.obj
 0001:0000862c       __except_validate_context_record 000000014000962c f   libvcruntime:jbcxrval.obj
 0001:00008670       __except_validate_jump_buffer 0000000140009670 f   libvcruntime:jbcxrval.obj
 0001:000086c0       __except_validate_jump_buffer_common 00000001400096c0 f i libvcruntime:jbcxrval.obj
 0001:00008734       ??$?RU__vcrt_ptd@@@__crt_internal_free_policy@@QEBAXQEBU__vcrt_ptd@@@Z 0000000140009734 f i libvcruntime:per_thread_data.obj
 0001:00008740       ??0?$__crt_unique_heap_ptr@U__vcrt_ptd@@U__crt_internal_free_policy@@@@QEAA@QEAU__vcrt_ptd@@@Z 0000000140009740 f i libvcruntime:per_thread_data.obj
 0001:00008768       ??1?$__crt_unique_heap_ptr@U__vcrt_ptd@@U__crt_internal_free_policy@@@@QEAA@XZ 0000000140009768 f i libvcruntime:per_thread_data.obj
 0001:0000879c       ??B?$__crt_unique_heap_ptr@U__vcrt_ptd@@U__crt_internal_free_policy@@@@QEBA_NXZ 000000014000979c f i libvcruntime:per_thread_data.obj
 0001:000087a8       ?detach@?$__crt_unique_heap_ptr@U__vcrt_ptd@@U__crt_internal_free_policy@@@@QEAAPEAU__vcrt_ptd@@XZ 00000001400097a8 f i libvcruntime:per_thread_data.obj
 0001:000087b8       ?get@?$__crt_unique_heap_ptr@U__vcrt_ptd@@U__crt_internal_free_policy@@@@QEBAPEAU__vcrt_ptd@@XZ 00000001400097b8 f i libvcruntime:per_thread_data.obj
 0001:000087bc       ?is_valid@?$__crt_unique_heap_ptr@U__vcrt_ptd@@U__crt_internal_free_policy@@@@QEBA_NXZ 00000001400097bc f i libvcruntime:per_thread_data.obj
 0001:000087c8       ?release@?$__crt_unique_heap_ptr@U__vcrt_ptd@@U__crt_internal_free_policy@@@@QEAAXXZ 00000001400097c8 f i libvcruntime:per_thread_data.obj
 0001:00008824       __vcrt_freefls             0000000140009824 f   libvcruntime:per_thread_data.obj
 0001:0000884c       __vcrt_freeptd_for_this_thread 000000014000984c f   libvcruntime:per_thread_data.obj
 0001:000088a4       __vcrt_getptd              00000001400098a4 f   libvcruntime:per_thread_data.obj
 0001:000088c4       __vcrt_getptd_noexit       00000001400098c4 f   libvcruntime:per_thread_data.obj
 0001:000089c0       __vcrt_getptd_noinit       00000001400099c0 f   libvcruntime:per_thread_data.obj
 0001:00008a20       __vcrt_initialize_ptd      0000000140009a20 f   libvcruntime:per_thread_data.obj
 0001:00008a78       __vcrt_uninitialize_ptd    0000000140009a78 f   libvcruntime:per_thread_data.obj
 0001:00008aa8       __vcrt_initialize_locks    0000000140009aa8 f   libvcruntime:locks.obj
 0001:00008b00       __vcrt_lock                0000000140009b00 f   libvcruntime:locks.obj
 0001:00008b20       __vcrt_uninitialize_locks  0000000140009b20 f   libvcruntime:locks.obj
 0001:00008b64       __vcrt_unlock              0000000140009b64 f   libvcruntime:locks.obj
 0001:00008b84       ??$?0$00@DName@@QEAA@PEAVUnDecorator@@PEBDU?$StringLifeSelector@$00@@@Z 0000000140009b84 f i libvcruntime:undname.obj
 0001:00008be0       ??$?0$00@pcharNode@@QEAA@PEBDHU?$StringLifeSelector@$00@@AEAV_HeapManager@@@Z 0000000140009be0 f i libvcruntime:undname.obj
 0001:00008bfc       ??$?0$01@DName@@QEAA@PEAVUnDecorator@@PEBDU?$StringLifeSelector@$01@@@Z 0000000140009bfc f i libvcruntime:undname.obj
 0001:00008c58       ??$?0$01@pcharNode@@QEAA@PEBDHU?$StringLifeSelector@$01@@AEAV_HeapManager@@@Z 0000000140009c58 f i libvcruntime:undname.obj
 0001:00008cd8       ??$?0$0A@@DName@@QEAA@PEAVUnDecorator@@PEBDU?$StringLifeSelector@$0A@@@@Z 0000000140009cd8 f i libvcruntime:undname.obj
 0001:00008d34       ??$?0$0A@@pcharNode@@QEAA@PEBDHU?$StringLifeSelector@$0A@@@AEAV_HeapManager@@@Z 0000000140009d34 f i libvcruntime:undname.obj
 0001:00008db4       ??$?0_K$0A@@?$optional@_K@std@@QEAA@$$QEA_K@Z 0000000140009db4 f i libvcruntime:undname.obj
 0001:00008dc8       ??$?0_K@?$_Optional_construct_base@_K@std@@QEAA@Uin_place_t@1@$$QEA_K@Z 0000000140009dc8 f i libvcruntime:undname.obj
 0001:00008ddc       ??$?0_K@?$_Optional_destruct_base@_K$00@std@@QEAA@Uin_place_t@1@$$QEA_K@Z 0000000140009ddc f i libvcruntime:undname.obj
 0001:00008df0       ??$append@VDNameNode@@@DName@@AEAAXPEBVDNameNode@@@Z 0000000140009df0 f i libvcruntime:undname.obj
 0001:00008e70       ??$append@VDNameStatusNode@@@DName@@AEAAXPEBVDNameStatusNode@@@Z 0000000140009e70 f i libvcruntime:undname.obj
 0001:00008ef0       ??$append@VcharNode@@@DName@@AEAAXPEBVcharNode@@@Z 0000000140009ef0 f i libvcruntime:undname.obj
 0001:00008f70       ??$append@VpDNameNode@@@DName@@AEAAXPEBVpDNameNode@@@Z 0000000140009f70 f i libvcruntime:undname.obj
 0001:00008ff0       ??$append@VpcharNode@@@DName@@AEAAXPEBVpcharNode@@@Z 0000000140009ff0 f i libvcruntime:undname.obj
 0001:00009070       ??$doPchar@$00@DName@@AEAAXPEBDH@Z 000000014000a070 f i libvcruntime:undname.obj
 0001:00009130       ??$doPchar@$01@DName@@AEAAXPEBDH@Z 000000014000a130 f i libvcruntime:undname.obj
 0001:00009214       ??$doPchar@$0A@@DName@@AEAAXPEBDH@Z 000000014000a214 f i libvcruntime:undname.obj
 0001:000092f8       ??$forward@_K@std@@YA$$QEA_KAEA_K@Z 000000014000a2f8 f i libvcruntime:undname.obj
 0001:00009480       ??0?$_Optional_construct_base@_K@std@@QEAA@XZ 000000014000a480 f i libvcruntime:undname.obj
 0001:0000948c       ??0?$_Optional_destruct_base@_K$00@std@@QEAA@XZ 000000014000a48c f i libvcruntime:undname.obj
 0001:00009498       ??0?$optional@_K@std@@QEAA@XZ 000000014000a498 f i libvcruntime:undname.obj
 0001:000094a4       ??0Block@_HeapManager@@QEAA@XZ 000000014000a4a4 f i libvcruntime:undname.obj
 0001:000094b4       ??0DName@@QEAA@AEBV0@@Z    000000014000a4b4 f i libvcruntime:undname.obj
 0001:000094d4       ??0DName@@QEAA@PEAVUnDecorator@@@Z 000000014000a4d4 f i libvcruntime:undname.obj
 0001:000094f0       ??0DName@@QEAA@PEAVUnDecorator@@AEAPEBDD@Z 000000014000a4f0 f   libvcruntime:undname.obj
 0001:000095e4       ??0DName@@QEAA@PEAVUnDecorator@@AEBUStringLiteral@@@Z 000000014000a5e4 f   libvcruntime:undname.obj
 0001:0000962c       ??0DName@@QEAA@PEAVUnDecorator@@D@Z 000000014000a62c f   libvcruntime:undname.obj
 0001:00009664       ??0DName@@QEAA@PEAVUnDecorator@@PEAV0@@Z 000000014000a664 f   libvcruntime:undname.obj
 0001:0000970c       ??0DName@@QEAA@PEAVUnDecorator@@W4DNameStatus@@@Z 000000014000a70c f   libvcruntime:undname.obj
 0001:0000974c       ??0DName@@QEAA@PEAVUnDecorator@@_J@Z 000000014000a74c f   libvcruntime:undname.obj
 0001:00009820       ??0DName@@QEAA@PEAVUnDecorator@@_K@Z 000000014000a820 f   libvcruntime:undname.obj
 0001:000098cc       ??0DNameNode@@IEAA@XZ      000000014000a8cc f i libvcruntime:undname.obj
 0001:000098e0       ??0Replicator@@QEAA@PEAVUnDecorator@@@Z 000000014000a8e0 f i libvcruntime:undname.obj
 0001:00009930       ??0UnDecorator@@QEAA@PEBDP6APEADJ@ZKP6APEAX_K@ZP6AXPEAX@Z@Z 000000014000a930 f i libvcruntime:undname.obj
 0001:00009a50       ??0_HeapManager@@QEAA@P6APEAX_K@ZP6AXPEAX@Z@Z 000000014000aa50 f i libvcruntime:undname.obj
 0001:00009a70       ??0_Nontrivial_dummy_type@std@@QEAA@XZ 000000014000aa70 f i libvcruntime:undname.obj
 0001:00009a74       ??0charNode@@QEAA@D@Z      000000014000aa74 f i libvcruntime:undname.obj
 0001:00009a8c       ??0pDNameNode@@QEAA@PEAVDName@@@Z 000000014000aa8c f   libvcruntime:undname.obj
 0001:00009ac0       ??0pairNode@@QEAA@PEBVDNameNode@@0@Z 000000014000aac0 f i libvcruntime:undname.obj
 0001:00009aec       ??2@YAPEAX_KAEAV_HeapManager@@H@Z 000000014000aaec f   libvcruntime:undname.obj
 0001:00009b1c       ??4DName@@QEAAAEAV0@AEBUStringLiteral@@@Z 000000014000ab1c f   libvcruntime:undname.obj
 0001:00009b54       ??4DName@@QEAAAEAV0@AEBV0@@Z 000000014000ab54 f   libvcruntime:undname.obj
 0001:00009b68       ??4DName@@QEAAAEAV0@D@Z    000000014000ab68 f i libvcruntime:undname.obj
 0001:00009b98       ??4DName@@QEAAAEAV0@PEAV0@@Z 000000014000ab98 f   libvcruntime:undname.obj
 0001:00009c2c       ??4DName@@QEAAAEAV0@W4DNameStatus@@@Z 000000014000ac2c f   libvcruntime:undname.obj
 0001:00009c54       ??AReplicator@@QEBA?AVDName@@H@Z 000000014000ac54 f   libvcruntime:undname.obj
 0001:00009cc4       ??B?$optional@_K@std@@QEBA_NXZ 000000014000acc4 f i libvcruntime:undname.obj
 0001:00009cc8       ??D?$_Optional_construct_base@_K@std@@QEGAAAEA_KXZ 000000014000acc8 f i libvcruntime:undname.obj
 0001:00009ccc       ??H@YA?AVDName@@AEBUStringLiteral@@AEBV0@@Z 000000014000accc f i libvcruntime:undname.obj
 0001:00009d18       ??H@YA?AVDName@@DAEBV0@@Z  000000014000ad18 f i libvcruntime:undname.obj
 0001:00009d64       ??H@YA?AVDName@@W4DNameStatus@@AEBV0@@Z 000000014000ad64 f i libvcruntime:undname.obj
 0001:00009db0       ??HDName@@QEBA?AV0@AEBUStringLiteral@@@Z 000000014000adb0 f   libvcruntime:undname.obj
 0001:00009df0       ??HDName@@QEBA?AV0@AEBV0@@Z 000000014000adf0 f   libvcruntime:undname.obj
 0001:00009e30       ??HDName@@QEBA?AV0@D@Z     000000014000ae30 f   libvcruntime:undname.obj
 0001:00009e70       ??HDName@@QEBA?AV0@PEAV0@@Z 000000014000ae70 f   libvcruntime:undname.obj
 0001:00009eb0       ??HDName@@QEBA?AV0@W4DNameStatus@@@Z 000000014000aeb0 f   libvcruntime:undname.obj
 0001:00009ef0       ??HStringLiteral@@QEBA?AU0@H@Z 000000014000aef0 f i libvcruntime:undname.obj
 0001:00009f0c       ??YDName@@QEAAAEAV0@AEBUStringLiteral@@@Z 000000014000af0c f   libvcruntime:undname.obj
 0001:00009fa0       ??YDName@@QEAAAEAV0@AEBV0@@Z 000000014000afa0 f   libvcruntime:undname.obj
 0001:0000a088       ??YDName@@QEAAAEAV0@D@Z    000000014000b088 f   libvcruntime:undname.obj
 0001:0000a11c       ??YDName@@QEAAAEAV0@PEAV0@@Z 000000014000b11c f   libvcruntime:undname.obj
 0001:0000a1cc       ??YDName@@QEAAAEAV0@W4DNameStatus@@@Z 000000014000b1cc f   libvcruntime:undname.obj
 0001:0000a254       ??YReplicator@@QEAAAEAV0@AEBVDName@@@Z 000000014000b254 f   libvcruntime:undname.obj
 0001:0000a2d4       ??_5DName@@QEAAAEAV0@AEBV0@@Z 000000014000b2d4 f   libvcruntime:undname.obj
 0001:0000a2f8       ??__K_l@@YA?AUStringLiteral@@PEBD_K@Z 000000014000b2f8 f i libvcruntime:undname.obj
 0001:0000a308       ?Destructor@UnDecorator@@QEAAXXZ 000000014000b308 f i libvcruntime:undname.obj
 0001:0000a368       ?Destructor@_HeapManager@@QEAAXXZ 000000014000b368 f i libvcruntime:undname.obj
 0001:0000a3c4       ?UScore@UnDecorator@@QEAA?AUStringLiteral@@W4Tokens@@@Z 000000014000b3c4 f   libvcruntime:undname.obj
 0001:0000a410       ?composeDeclaration@UnDecorator@@AEAA?AVDName@@AEBV2@@Z 000000014000b410 f i libvcruntime:undname.obj
 0001:0000bab0       ?doAccessSpecifiers@UnDecorator@@QEAAHXZ 000000014000cab0 f i libvcruntime:undname.obj
 0001:0000bac4       ?doAllocationLanguage@UnDecorator@@QEAAHXZ 000000014000cac4 f i libvcruntime:undname.obj
 0001:0000bad8       ?doAllocationModel@UnDecorator@@QEAAHXZ 000000014000cad8 f i libvcruntime:undname.obj
 0001:0000baec       ?doEcsu@UnDecorator@@QEAAHXZ 000000014000caec f i libvcruntime:undname.obj
 0001:0000bb00       ?doEllipsis@UnDecorator@@QEAAHXZ 000000014000cb00 f i libvcruntime:undname.obj
 0001:0000bb14       ?doFunctionReturns@UnDecorator@@QEAAHXZ 000000014000cb14 f i libvcruntime:undname.obj
 0001:0000bb28       ?doMSKeywords@UnDecorator@@QEAAHXZ 000000014000cb28 f i libvcruntime:undname.obj
 0001:0000bb3c       ?doMemberTypes@UnDecorator@@QEAAHXZ 000000014000cb3c f i libvcruntime:undname.obj
 0001:0000bb50       ?doNameOnly@UnDecorator@@QEAAHXZ 000000014000cb50 f i libvcruntime:undname.obj
 0001:0000bb60       ?doNoIdentCharCheck@UnDecorator@@QEAAHXZ 000000014000cb60 f i libvcruntime:undname.obj
 0001:0000bb70       ?doPchar@DName@@AEAAXD@Z   000000014000cb70 f   libvcruntime:undname.obj
 0001:0000bbdc       ?doPtr64@UnDecorator@@QEAAHXZ 000000014000cbdc f i libvcruntime:undname.obj
 0001:0000bbf0       ?doRestrictionSpec@UnDecorator@@QEAAHXZ 000000014000cbf0 f i libvcruntime:undname.obj
 0001:0000bc04       ?doThisTypes@UnDecorator@@QEAAHXZ 000000014000cc04 f i libvcruntime:undname.obj
 0001:0000bc1c       ?doThrowTypes@UnDecorator@@QEAAHXZ 000000014000cc1c f i libvcruntime:undname.obj
 0001:0000bc30       ?doTypeOnly@UnDecorator@@QEAAHXZ 000000014000cc30 f i libvcruntime:undname.obj
 0001:0000bc40       ?doUnderScore@UnDecorator@@QEAAHXZ 000000014000cc40 f i libvcruntime:undname.obj
 0001:0000bc50       ?getAddressOf@UnDecorator@@AEAA?AVDName@@XZ 000000014000cc50 f   libvcruntime:undname.obj
 0001:0000bd14       ?getArgumentList@UnDecorator@@AEAA?AVDName@@XZ 000000014000cd14 f   libvcruntime:undname.obj
 0001:0000bf28       ?getArgumentTypes@UnDecorator@@AEAA?AVDName@@XZ 000000014000cf28 f   libvcruntime:undname.obj
 0001:0000c0ec       ?getArrayAccess@UnDecorator@@AEAA?AVDName@@XZ 000000014000d0ec f   libvcruntime:undname.obj
 0001:0000c1c8       ?getArrayObject@UnDecorator@@AEAA?AVDName@@XZ 000000014000d1c8 f   libvcruntime:undname.obj
 0001:0000c2e8       ?getArrayType@UnDecorator@@AEAA?AVDName@@AEBV2@@Z 000000014000d2e8 f i libvcruntime:undname.obj
 0001:0000c604       ?getBasedType@UnDecorator@@AEAA?AVDName@@XZ 000000014000d604 f   libvcruntime:undname.obj
 0001:0000c75c       ?getBasicDataType@UnDecorator@@AEAA?AVDName@@AEBV2@@Z 000000014000d75c f   libvcruntime:undname.obj
 0001:0000d074       ?getCHPEName@UnDecorator@@QEAAPEADPEADH@Z 000000014000e074 f i libvcruntime:undname.obj
 0001:0000d1ec       ?getCallIndex@UnDecorator@@AEAA?AVDName@@XZ 000000014000e1ec f i libvcruntime:undname.obj
 0001:0000d20c       ?getCallingConvention@UnDecorator@@AEAA?AVDName@@XZ 000000014000e20c f   libvcruntime:undname.obj
 0001:0000d398       ?getDataIndirectType@UnDecorator@@AEAA?AVDName@@AEBV2@W4IndirectionKind@@0H@Z 000000014000e398 f   libvcruntime:undname.obj
 0001:0000e104       ?getDataIndirectType@UnDecorator@@AEAA?AVDName@@XZ 000000014000f104 f i libvcruntime:undname.obj
 0001:0000e15c       ?getDataType@UnDecorator@@AEAA?AVDName@@PEAV2@@Z 000000014000f15c f   libvcruntime:undname.obj
 0001:0000e2f4       ?getDecoratedName@UnDecorator@@AEAA?AVDName@@XZ 000000014000f2f4 f   libvcruntime:undname.obj
 0001:0000e6fc       ?getDimension@UnDecorator@@AEAA?AVDName@@_N@Z 000000014000f6fc f   libvcruntime:undname.obj
 0001:0000e8bc       ?getDispatchTarget@UnDecorator@@AEAA?AVDName@@XZ 000000014000f8bc f   libvcruntime:undname.obj
 0001:0000e950       ?getDisplacement@UnDecorator@@AEAA?AVDName@@XZ 000000014000f950 f i libvcruntime:undname.obj
 0001:0000e970       ?getECSUDataType@UnDecorator@@AEAA?AVDName@@XZ 000000014000f970 f   libvcruntime:undname.obj
 0001:0000ec40       ?getECSUName@UnDecorator@@AEAA?AVDName@@XZ 000000014000fc40 f i libvcruntime:undname.obj
 0001:0000ec5c       ?getEnumType@UnDecorator@@AEAA?AVDName@@XZ 000000014000fc5c f i libvcruntime:undname.obj
 0001:0000ee14       ?getExtendedDataIndirectType@UnDecorator@@AEAA?AVDName@@AEAW4IndirectionKind@@AEA_NH@Z 000000014000fe14 f   libvcruntime:undname.obj
 0001:0000f120       ?getExternalDataType@UnDecorator@@AEAA?AVDName@@AEBV2@@Z 0000000140010120 f i libvcruntime:undname.obj
 0001:0000f258       ?getFloatingPoint@UnDecorator@@AEAA?AVDName@@H@Z 0000000140010258 f   libvcruntime:undname.obj
 0001:0000f414       ?getFunctionIndirectType@UnDecorator@@AEAA?AVDName@@AEBV2@@Z 0000000140010414 f   libvcruntime:undname.obj
 0001:0000fb0c       ?getGuardNumber@UnDecorator@@AEAA?AVDName@@XZ 0000000140010b0c f i libvcruntime:undname.obj
 0001:0000fb2c       ?getHeap@UnDecorator@@QEAAAEAV_HeapManager@@XZ 0000000140010b2c f i libvcruntime:undname.obj
 0001:0000fb38       ?getLastChar@DName@@QEBADXZ 0000000140010b38 f i libvcruntime:undname.obj
 0001:0000fb58       ?getLastChar@DNameStatusNode@@UEBADXZ 0000000140010b58 f i libvcruntime:undname.obj
 0001:0000fb68       ?getLastChar@charNode@@UEBADXZ 0000000140010b68 f i libvcruntime:undname.obj
 0001:0000fb6c       ?getLastChar@pDNameNode@@UEBADXZ 0000000140010b6c f i libvcruntime:undname.obj
 0001:0000fba0       ?getLastChar@pairNode@@UEBADXZ 0000000140010ba0 f i libvcruntime:undname.obj
 0001:0000fbe4       ?getLastChar@pcharNode@@UEBADXZ 0000000140010be4 f i libvcruntime:undname.obj
 0001:0000fc00       ?getLexicalFrame@UnDecorator@@AEAA?AVDName@@XZ 0000000140010c00 f i libvcruntime:undname.obj
 0001:0000fc78       ?getMemberAccess@UnDecorator@@AEAA?AVDName@@XZ 0000000140010c78 f   libvcruntime:undname.obj
 0001:0000fd4c       ?getMemoryWithBuffer@_HeapManager@@QEAAPEAX_K@Z 0000000140010d4c f   libvcruntime:undname.obj
 0001:0000fdfc       ?getMemoryWithoutBuffer@_HeapManager@@QEAAPEAX_K@Z 0000000140010dfc f   libvcruntime:undname.obj
 0001:0000fe14       ?getNoexcept@UnDecorator@@AEAA?AVDName@@XZ 0000000140010e14 f   libvcruntime:undname.obj
 0001:0000fea4       ?getNumberOfDimensions@UnDecorator@@AEAAHXZ 0000000140010ea4 f   libvcruntime:undname.obj
 0001:0000ff28       ?getOperatorName@UnDecorator@@AEAA?AVDName@@_NPEA_N@Z 0000000140010f28 f i libvcruntime:undname.obj
 0001:00010db8       ?getPointerToMember@UnDecorator@@AEAA?AVDName@@XZ 0000000140011db8 f   libvcruntime:undname.obj
 0001:00010f08       ?getPointerType@UnDecorator@@AEAA?AVDName@@AEBV2@0@Z 0000000140011f08 f i libvcruntime:undname.obj
 0001:00010f30       ?getPointerTypeArray@UnDecorator@@AEAA?AVDName@@AEBV2@0@Z 0000000140011f30 f i libvcruntime:undname.obj
 0001:00010f58       ?getPrimaryDataType@UnDecorator@@AEAA?AVDName@@AEBV2@@Z 0000000140011f58 f   libvcruntime:undname.obj
 0001:00011334       ?getPtrRefDataType@UnDecorator@@AEAA?AVDName@@AEBV2@H@Z 0000000140012334 f   libvcruntime:undname.obj
 0001:000115b0       ?getPtrRefType@UnDecorator@@AEAA?AVDName@@AEBV2@0W4IndirectionKind@@@Z 00000001400125b0 f   libvcruntime:undname.obj
 0001:00011774       ?getReferenceType@UnDecorator@@AEAA?AVDName@@AEBV2@0W4IndirectionKind@@@Z 0000000140012774 f i libvcruntime:undname.obj
 0001:0001179c       ?getRestrictionSpec@UnDecorator@@AEAA?AVDName@@XZ 000000014001279c f   libvcruntime:undname.obj
 0001:00011a94       ?getReturnType@UnDecorator@@AEAA?AVDName@@PEAV2@@Z 0000000140012a94 f   libvcruntime:undname.obj
 0001:00011adc       ?getScope@UnDecorator@@AEAA?AVDName@@XZ 0000000140012adc f   libvcruntime:undname.obj
 0001:000120d8       ?getScopedName@UnDecorator@@AEAA?AVDName@@XZ 00000001400130d8 f   libvcruntime:undname.obj
 0001:000122a8       ?getSignedDimension@UnDecorator@@AEAA?AVDName@@XZ 00000001400132a8 f   libvcruntime:undname.obj
 0001:0001234c       ?getStorageConvention@UnDecorator@@AEAA?AVDName@@XZ 000000014001334c f i libvcruntime:undname.obj
 0001:000123a4       ?getString@DName@@QEBAPEADPEAD0@Z 00000001400133a4 f i libvcruntime:undname.obj
 0001:000123c4       ?getString@DName@@QEBAPEADPEADH@Z 00000001400133c4 f i libvcruntime:undname.obj
 0001:00012480       ?getString@DNameStatusNode@@UEBAPEADPEAD0@Z 0000000140013480 f i libvcruntime:undname.obj
 0001:00012530       ?getString@charNode@@UEBAPEADPEAD0@Z 0000000140013530 f i libvcruntime:undname.obj
 0001:00012548       ?getString@pDNameNode@@UEBAPEADPEAD0@Z 0000000140013548 f i libvcruntime:undname.obj
 0001:00012580       ?getString@pairNode@@UEBAPEADPEAD0@Z 0000000140013580 f i libvcruntime:undname.obj
 0001:000125e0       ?getString@pcharNode@@UEBAPEADPEAD0@Z 00000001400135e0 f i libvcruntime:undname.obj
 0001:00012628       ?getStringEncoding@UnDecorator@@AEAA?AVDName@@W4PrefixKind@@H@Z 0000000140013628 f   libvcruntime:undname.obj
 0001:000127a4       ?getStringHelper@@YAPEADPEADPEBD1H@Z 00000001400137a4 f i libvcruntime:undname.obj
 0001:000127e8       ?getStringObject@UnDecorator@@AEAA?AVDName@@XZ 00000001400137e8 f   libvcruntime:undname.obj
 0001:000128b8       ?getSymbolName@UnDecorator@@AEAA?AVDName@@XZ 00000001400138b8 f i libvcruntime:undname.obj
 0001:0001291c       ?getTemplateArgumentList@UnDecorator@@AEAA?AVDName@@XZ 000000014001391c f   libvcruntime:undname.obj
 0001:00012c18       ?getTemplateName@UnDecorator@@AEAA?AVDName@@_N@Z 0000000140013c18 f   libvcruntime:undname.obj
 0001:00012ff8       ?getTemplateNonTypeArgument@UnDecorator@@AEAA?AVDName@@XZ 0000000140013ff8 f   libvcruntime:undname.obj
 0001:000135c4       ?getTemplateTypeArgument@UnDecorator@@AEAA?AVDName@@XZ 00000001400145c4 f   libvcruntime:undname.obj
 0001:000137a0       ?getThisType@UnDecorator@@AEAA?AVDName@@XZ 00000001400147a0 f i libvcruntime:undname.obj
 0001:000137fc       ?getThrowTypes@UnDecorator@@AEAA?AVDName@@XZ 00000001400147fc f   libvcruntime:undname.obj
 0001:00013834       ?getTypeEncoding@UnDecorator@@AEAAHXZ 0000000140014834 f i libvcruntime:undname.obj
 0001:00013cf0       ?getUndecoratedName@UnDecorator@@QEAAPEADPEADH@Z 0000000140014cf0 f i libvcruntime:undname.obj
 0001:00013e78       ?getUnionObject@UnDecorator@@AEAA?AVDName@@XZ 0000000140014e78 f   libvcruntime:undname.obj
 0001:00013fa4       ?getVCallThunkType@UnDecorator@@AEAA?AVDName@@XZ 0000000140014fa4 f i libvcruntime:undname.obj
 0001:00014038       ?getValue@UnDecorator@@AEAA?AV?$optional@_K@std@@XZ 0000000140015038 f   libvcruntime:undname.obj
 0001:0001408c       ?getValueObject@UnDecorator@@AEAA?AVDName@@XZ 000000014001508c f   libvcruntime:undname.obj
 0001:00014294       ?getVbTableType@UnDecorator@@AEAA?AVDName@@AEBV2@@Z 0000000140015294 f i libvcruntime:undname.obj
 0001:000142b0       ?getVdispMapType@UnDecorator@@AEAA?AVDName@@AEBV2@@Z 00000001400152b0 f i libvcruntime:undname.obj
 0001:0001436c       ?getVfTableType@UnDecorator@@AEAA?AVDName@@AEBV2@@Z 000000014001536c f i libvcruntime:undname.obj
 0001:00014634       ?getZName@UnDecorator@@AEAA?AVDName@@_N0@Z 0000000140015634 f   libvcruntime:undname.obj
 0001:000149ec       ?get_current_character_and_increment_buffer@UnDecorator@@AEAADXZ 00000001400159ec f i libvcruntime:undname.obj
 0001:00014a0c       ?haveTemplateParameters@UnDecorator@@QEAAHXZ 0000000140015a0c f i libvcruntime:undname.obj
 0001:00014a1c       ?increment_buffer@UnDecorator@@AEAA_N_K@Z 0000000140015a1c f i libvcruntime:undname.obj
 0001:00014a54       ?increment_buffer_no_check@UnDecorator@@AEAAXXZ 0000000140015a54 f i libvcruntime:undname.obj
 0001:00014a60       ?increment_buffer_no_check@UnDecorator@@AEAAX_K@Z 0000000140015a60 f i libvcruntime:undname.obj
 0001:00014a6c       ?isArray@DName@@QEBAHXZ    0000000140015a6c f i libvcruntime:undname.obj
 0001:00014a78       ?isComArray@DName@@QEBAHXZ 0000000140015a78 f i libvcruntime:undname.obj
 0001:00014a84       ?isEmpty@DName@@QEBAHXZ    0000000140015a84 f i libvcruntime:undname.obj
 0001:00014a90       ?isFull@Replicator@@QEBAHXZ 0000000140015a90 f i libvcruntime:undname.obj
 0001:00014a9c       ?isNoTE@DName@@QEBAHXZ     0000000140015a9c f i libvcruntime:undname.obj
 0001:00014aa8       ?isPinPtr@DName@@QEBAHXZ   0000000140015aa8 f i libvcruntime:undname.obj
 0001:00014ab4       ?isPtrRef@DName@@QEBAHXZ   0000000140015ab4 f i libvcruntime:undname.obj
 0001:00014ac0       ?isUDC@DName@@QEBAHXZ      0000000140015ac0 f i libvcruntime:undname.obj
 0001:00014adc       ?isUDTThunk@DName@@QEBAHXZ 0000000140015adc f i libvcruntime:undname.obj
 0001:00014af8       ?isVCallThunk@DName@@QEBAHXZ 0000000140015af8 f i libvcruntime:undname.obj
 0001:00014b04       ?isValid@DName@@QEBAHXZ    0000000140015b04 f i libvcruntime:undname.obj
 0001:00014b10       ?length@DName@@QEBAHXZ     0000000140015b10 f i libvcruntime:undname.obj
 0001:00014b30       ?length@DNameStatusNode@@UEBAHXZ 0000000140015b30 f i libvcruntime:undname.obj
 0001:00014b34       ?length@charNode@@UEBAHXZ  0000000140015b34 f i libvcruntime:undname.obj
 0001:00014b3c       ?length@pDNameNode@@UEBAHXZ 0000000140015b3c f i libvcruntime:undname.obj
 0001:00014b70       ?length@pairNode@@UEBAHXZ  0000000140015b70 f i libvcruntime:undname.obj
 0001:00014bd8       ?length@pcharNode@@UEBAHXZ 0000000140015bd8 f i libvcruntime:undname.obj
 0001:00014bdc       ?make@DNameStatusNode@@SAPEBV1@W4DNameStatus@@@Z 0000000140015bdc f i libvcruntime:undname.obj
 0001:00014c04       ?parseDecoratedName@UnDecorator@@AEAA?AVDName@@XZ 0000000140015c04 f   libvcruntime:undname.obj
 0001:00014d88       ?raw_length@DNameStatusNode@@UEBAHXZ 0000000140015d88 f i libvcruntime:undname.obj
 0001:00014d8c       ?raw_length@charNode@@UEBAHXZ 0000000140015d8c f i libvcruntime:undname.obj
 0001:00014d94       ?raw_length@pDNameNode@@UEBAHXZ 0000000140015d94 f i libvcruntime:undname.obj
 0001:00014d98       ?raw_length@pairNode@@UEBAHXZ 0000000140015d98 f i libvcruntime:undname.obj
 0001:00014d9c       ?raw_length@pcharNode@@UEBAHXZ 0000000140015d9c f i libvcruntime:undname.obj
 0001:00014da0       ?setIsArray@DName@@QEAAXXZ 0000000140015da0 f i libvcruntime:undname.obj
 0001:00014da8       ?setIsComArray@DName@@QEAAXXZ 0000000140015da8 f i libvcruntime:undname.obj
 0001:00014db0       ?setIsNoTE@DName@@QEAAXXZ  0000000140015db0 f i libvcruntime:undname.obj
 0001:00014db8       ?setIsPinPtr@DName@@QEAAXXZ 0000000140015db8 f i libvcruntime:undname.obj
 0001:00014dc0       ?setIsUDC@DName@@QEAAXXZ   0000000140015dc0 f i libvcruntime:undname.obj
 0001:00014dd0       ?setIsVCallThunk@DName@@QEAAXXZ 0000000140015dd0 f i libvcruntime:undname.obj
 0001:00014dd8       ?setPtrRef@DName@@QEAAAEAV1@XZ 0000000140015dd8 f i libvcruntime:undname.obj
 0001:00014de4       ?status@DName@@QEBA?AW4DNameStatus@@XZ 0000000140015de4 f i libvcruntime:undname.obj
 0001:00014eac       __unDName                  0000000140015eac f   libvcruntime:undname.obj
 0001:00014ee0       __unDNameEx                0000000140015ee0 f   libvcruntime:undname.obj
 0001:00014ff4       _vsprintf_s_l              0000000140015ff4 f i libvcruntime:undname.obj
 0001:00015070       snprintf                   0000000140016070 f i libvcruntime:undname.obj
 0001:000150e0       sprintf_s                  00000001400160e0 f i libvcruntime:undname.obj
 0001:0001514c       unDNameGenerateCHPE        000000014001614c f   libvcruntime:undname.obj
 0001:0001523c       vsnprintf                  000000014001623c f i libvcruntime:undname.obj
 0001:000152bc       ??$__crt_interlocked_exchange_pointer@UHINSTANCE__@@PEAU1@@@YAPEAUHINSTANCE__@@PEDSEAU0@QEAU0@@Z 00000001400162bc f i libvcruntime:winapi_downlevel.obj
 0001:000152c4       ??$__crt_interlocked_exchange_pointer@UHINSTANCE__@@PEAX@@YAPEAUHINSTANCE__@@PEDSEAU0@QEAX@Z 00000001400162c4 f i libvcruntime:winapi_downlevel.obj
 0001:000152cc       ??$__crt_interlocked_exchange_pointer@XPEAX@@YAPEAXPEDSEAXQEAX@Z 00000001400162cc f i libvcruntime:winapi_downlevel.obj
 0001:000152d4       ??$__crt_interlocked_read_pointer@UHINSTANCE__@@@@YAPEAUHINSTANCE__@@PEDSEAU0@@Z 00000001400162d4 f i libvcruntime:winapi_downlevel.obj
 0001:000152dc       ??$__crt_interlocked_read_pointer@X@@YAPEAXPEDSEAX@Z 00000001400162dc f i libvcruntime:winapi_downlevel.obj
 0001:00015964       __vcrt_FlsAlloc            0000000140016964 f   libvcruntime:winapi_downlevel.obj
 0001:000159bc       __vcrt_FlsFree             00000001400169bc f   libvcruntime:winapi_downlevel.obj
 0001:00015a14       __vcrt_FlsGetValue         0000000140016a14 f   libvcruntime:winapi_downlevel.obj
 0001:00015a6c       __vcrt_FlsSetValue         0000000140016a6c f   libvcruntime:winapi_downlevel.obj
 0001:00015ad4       __vcrt_InitializeCriticalSectionEx 0000000140016ad4 f   libvcruntime:winapi_downlevel.obj
 0001:00015b50       ??$__crt_interlocked_exchange_pointer@$$A6AXXZP6AXXZ@@YAP6AXXZPEDS6AXXZQ6AXXZ@Z 0000000140016b50 f i libvcruntime:purevirt.obj
 0001:00015b58       ??$__crt_interlocked_read_pointer@$$A6AXXZ@@YAP6AXXZPEDS6AXXZ@Z 0000000140016b58 f i libvcruntime:purevirt.obj
 0001:00015b60       _get_purecall_handler      0000000140016b60 f   libvcruntime:purevirt.obj
 0001:00015b6c       _purecall                  0000000140016b6c f   libvcruntime:purevirt.obj
 0001:00015b8c       _set_purecall_handler      0000000140016b8c f   libvcruntime:purevirt.obj
 0001:00015b9c       ??$?0AEAViterator@TryBlockMap4@FH4@@AEAV012@$0A@@?$pair@Viterator@TryBlockMap4@FH4@@V123@@std@@QEAA@AEAViterator@TryBlockMap4@FH4@@0@Z 0000000140016b9c f i libvcruntime:risctrnsctrl.obj
 0001:00015bb8       ??$?0AEAViterator@TryBlockMap@__FrameHandler3@@AEAV012@$0A@@?$pair@Viterator@TryBlockMap@__FrameHandler3@@V123@@std@@QEAA@AEAViterator@TryBlockMap@__FrameHandler3@@0@Z 0000000140016bb8 f i libvcruntime:risctrnsctrl.obj
 0001:00015da0       ??$_CallSETranslator@V__FrameHandler3@@@@YAHPEAUEHExceptionRecord@@PEA_KPEAU_CONTEXT@@PEAU_xDISPATCHER_CONTEXT@@PEBU_s_FuncInfo@@K1H@Z 0000000140016da0 f i libvcruntime:risctrnsctrl.obj
 0001:00015e0c       ??$_CallSETranslator@V__FrameHandler4@@@@YAHPEAUEHExceptionRecord@@PEA_KPEAU_CONTEXT@@PEAU_xDISPATCHER_CONTEXT@@PEAUFuncInfo4@FH4@@K1H@Z 0000000140016e0c f i libvcruntime:risctrnsctrl.obj
 0001:00015e78       ??$forward@AEAViterator@TryBlockMap4@FH4@@@std@@YAAEAViterator@TryBlockMap4@FH4@@AEAV123@@Z 0000000140016e78 f i libvcruntime:risctrnsctrl.obj
 0001:00015e7c       ??$forward@AEAViterator@TryBlockMap@__FrameHandler3@@@std@@YAAEAViterator@TryBlockMap@__FrameHandler3@@AEAV123@@Z 0000000140016e7c f i libvcruntime:risctrnsctrl.obj
 0001:00015e80       ??0FuncInfo4@FH4@@QEAA@XZ  0000000140016e80 f i libvcruntime:risctrnsctrl.obj
 0001:00015e98       ??0FuncInfoHeader@FH4@@QEAA@XZ 0000000140016e98 f i libvcruntime:risctrnsctrl.obj
 0001:00015ea0       ??0iterator@TryBlockMap4@FH4@@QEAA@AEAV12@I@Z 0000000140016ea0 f i libvcruntime:risctrnsctrl.obj
 0001:00015eb0       ??0iterator@TryBlockMap@__FrameHandler3@@QEAA@AEAV12@I@Z 0000000140016eb0 f i libvcruntime:risctrnsctrl.obj
 0001:00015ec0       ??4iterator@TryBlockMap4@FH4@@QEAAAEAV012@AEBV012@@Z 0000000140016ec0 f i libvcruntime:risctrnsctrl.obj
 0001:00015ecc       ??9iterator@TryBlockMap4@FH4@@QEBA_NAEBV012@@Z 0000000140016ecc f i libvcruntime:risctrnsctrl.obj
 0001:00015ed8       ??Diterator@TryBlockMap4@FH4@@QEAA?AUTryBlockMapEntry4@2@XZ 0000000140016ed8 f i libvcruntime:risctrnsctrl.obj
 0001:00015eec       ??Eiterator@TryBlockMap4@FH4@@QEAAAEAV012@XZ 0000000140016eec f i libvcruntime:risctrnsctrl.obj
 0001:00015fb0       ?CatchTryBlock@__FrameHandler3@@SAPEBU_s_TryBlockMapEntry@@PEBU_s_FuncInfo@@H@Z 0000000140016fb0 f   libvcruntime:risctrnsctrl.obj
 0001:0001602c       ?DecompFuncInfo@FH4@@YA_JPEAEAEAUFuncInfo4@1@_KH@Z 000000014001702c f i libvcruntime:risctrnsctrl.obj
 0001:00016044       ?DecompFuncInfo@FH4@@YA_JPEAEAEAUFuncInfo4@1@_KH_N@Z 0000000140017044 f i libvcruntime:risctrnsctrl.obj
 0001:000161bc       ?DecompTryBlock@TryBlockMap4@FH4@@AEAAXXZ 00000001400171bc f i libvcruntime:risctrnsctrl.obj
 0001:00016274       ?ExecutionInCatch@__FrameHandler3@@SA_NPEAU_xDISPATCHER_CONTEXT@@PEBU_s_FuncInfo@@@Z 0000000140017274 f   libvcruntime:risctrnsctrl.obj
 0001:000162a8       ?ExecutionInCatch@__FrameHandler4@@SA_NPEAU_xDISPATCHER_CONTEXT@@PEAUFuncInfo4@FH4@@@Z 00000001400172a8 f   libvcruntime:risctrnsctrl.obj
 0001:000162b0       ?FrameUnwindToEmptyState@__FrameHandler3@@SAXPEA_KPEAU_xDISPATCHER_CONTEXT@@PEBU_s_FuncInfo@@@Z 00000001400172b0 f   libvcruntime:risctrnsctrl.obj
 0001:00016330       ?FrameUnwindToEmptyState@__FrameHandler4@@SAXPEA_KPEAU_xDISPATCHER_CONTEXT@@PEAUFuncInfo4@FH4@@@Z 0000000140017330 f   libvcruntime:risctrnsctrl.obj
 0001:00016370       ?GetEstablisherFrame@__FrameHandler3@@SAPEA_KPEA_KPEAU_xDISPATCHER_CONTEXT@@PEBU_s_FuncInfo@@0@Z 0000000140017370 f   libvcruntime:risctrnsctrl.obj
 0001:00016490       ?GetEstablisherFrame@__FrameHandler4@@SAPEA_KPEA_KPEAU_xDISPATCHER_CONTEXT@@PEAUFuncInfo4@FH4@@0@Z 0000000140017490 f   libvcruntime:risctrnsctrl.obj
 0001:000164bc       ?GetRangeOfTrysToCheck@__FrameHandler3@@SA?AU?$pair@Viterator@TryBlockMap@__FrameHandler3@@V123@@std@@AEAVTryBlockMap@1@HPEAU_xDISPATCHER_CONTEXT@@PEBU_s_FuncInfo@@H@Z 00000001400174bc f   libvcruntime:risctrnsctrl.obj
 0001:00016640       ?GetRangeOfTrysToCheck@__FrameHandler4@@SA?AU?$pair@Viterator@TryBlockMap4@FH4@@V123@@std@@AEAVTryBlockMap4@FH4@@HPEAU_xDISPATCHER_CONTEXT@@PEAUFuncInfo4@5@H@Z 0000000140017640 f   libvcruntime:risctrnsctrl.obj
 0001:00016820       ?ReadInt@FH4@@YAHPEAPEAE@Z 0000000140017820 f i libvcruntime:risctrnsctrl.obj
 0001:00016830       ?ReadUnsigned@FH4@@YAIPEAPEAE@Z 0000000140017830 f i libvcruntime:risctrnsctrl.obj
 0001:0001686c       ?UnwindNestedFrames@__FrameHandler3@@SAXPEA_KPEAUEHExceptionRecord@@PEAU_CONTEXT@@0PEAXPEBU_s_FuncInfo@@HHPEBU_s_HandlerType@@PEAU_xDISPATCHER_CONTEXT@@E@Z 000000014001786c f   libvcruntime:risctrnsctrl.obj
 0001:000169b0       ?UnwindNestedFrames@__FrameHandler4@@SAXPEA_KPEAUEHExceptionRecord@@PEAU_CONTEXT@@0PEAXPEAUFuncInfo4@FH4@@HHPEAUHandlerType4@5@PEAU_xDISPATCHER_CONTEXT@@E@Z 00000001400179b0 f   libvcruntime:risctrnsctrl.obj
 0001:00016b18       ?begin@TryBlockMap4@FH4@@QEAA?AViterator@12@XZ 0000000140017b18 f i libvcruntime:risctrnsctrl.obj
 0001:00016b2c       ?end@TryBlockMap4@FH4@@QEAA?AViterator@12@XZ 0000000140017b2c f i libvcruntime:risctrnsctrl.obj
 0001:00016b3c       ?imageRelToByteBuffer@FH4@@YAPEAE_KH@Z 0000000140017b3c f i libvcruntime:risctrnsctrl.obj
 0001:00016b44       ?incrementToSentinel@iterator@TryBlockMap4@FH4@@QEAAXXZ 0000000140017b44 f i libvcruntime:risctrnsctrl.obj
 0001:00016b48       ?setBuffer@TryBlockMap4@FH4@@QEAAXViterator@12@@Z 0000000140017b48 f i libvcruntime:risctrnsctrl.obj
 0001:00016dac       _CreateFrameInfo           0000000140017dac f   libvcruntime:risctrnsctrl.obj
 0001:00016df4       _FindAndUnlinkFrame        0000000140017df4 f   libvcruntime:risctrnsctrl.obj
 0001:00016e5c       _GetImageBase              0000000140017e5c f   libvcruntime:risctrnsctrl.obj
 0001:00016e74       _GetThrowImageBase         0000000140017e74 f   libvcruntime:risctrnsctrl.obj
 0001:00016e8c       _SetImageBase              0000000140017e8c f   libvcruntime:risctrnsctrl.obj
 0001:00016eac       _SetThrowImageBase         0000000140017eac f   libvcruntime:risctrnsctrl.obj
 0001:00016ecc       __CxxFrameHandler          0000000140017ecc f   libvcruntime:risctrnsctrl.obj
 0001:00016ed4       __CxxFrameHandler2         0000000140017ed4 f   libvcruntime:risctrnsctrl.obj
 0001:00016edc       __CxxFrameHandler3         0000000140017edc f   libvcruntime:risctrnsctrl.obj
 0001:00016f84       __CxxFrameHandler4         0000000140017f84 f   libvcruntime:risctrnsctrl.obj
 0001:00017080       ?GetCurrentState@__FrameHandler3@@SAHPEA_KPEAU_xDISPATCHER_CONTEXT@@PEBU_s_FuncInfo@@@Z 0000000140018080 f   libvcruntime:ehstate.obj
 0001:000170b0       ?GetUnwindTryBlock@__FrameHandler3@@SAHPEA_KPEAU_xDISPATCHER_CONTEXT@@PEBU_s_FuncInfo@@@Z 00000001400180b0 f   libvcruntime:ehstate.obj
 0001:000170e4       ?SetState@__FrameHandler3@@SAXPEA_KPEBU_s_FuncInfo@@H@Z 00000001400180e4 f   libvcruntime:ehstate.obj
 0001:000170f4       ?SetUnwindTryBlock@__FrameHandler3@@SAXPEA_KPEAU_xDISPATCHER_CONTEXT@@PEBU_s_FuncInfo@@H@Z 00000001400180f4 f   libvcruntime:ehstate.obj
 0001:00017140       ?StateFromControlPc@__FrameHandler3@@SAHPEBU_s_FuncInfo@@PEAU_xDISPATCHER_CONTEXT@@@Z 0000000140018140 f   libvcruntime:ehstate.obj
 0001:0001714c       ?StateFromControlPc@__FrameHandler4@@SAHPEAUFuncInfo4@FH4@@PEAU_xDISPATCHER_CONTEXT@@@Z 000000014001814c f   libvcruntime:ehstate.obj
 0001:00017158       ?StateFromIp@__FrameHandler3@@SAHPEBU_s_FuncInfo@@PEAU_xDISPATCHER_CONTEXT@@_K@Z 0000000140018158 f   libvcruntime:ehstate.obj
 0001:000171d8       ?StateFromIp@__FrameHandler4@@SAHPEAUFuncInfo4@FH4@@PEAU_xDISPATCHER_CONTEXT@@_K@Z 00000001400181d8 f   libvcruntime:ehstate.obj
 0001:00017300       ?__FuncRelToRealOffset@@YA_KPEAU_xDISPATCHER_CONTEXT@@I@Z 0000000140018300 f i libvcruntime:ehstate.obj
 0001:00017314       ?__RVAtoRealOffset@@YA_KPEAU_xDISPATCHER_CONTEXT@@H@Z 0000000140018314 f i libvcruntime:ehstate.obj
 0001:00018f78       ??$TypeMatchHelper@V__FrameHandler3@@@@YAHPEBU_s_HandlerType@@PEBU_s_CatchableType@@PEBU_s_ThrowInfo@@@Z 0000000140019f78 f i libvcruntime:frame.obj
 0001:000190e0       ??$TypeMatchHelper@V__FrameHandler4@@@@YAHPEAUHandlerType4@FH4@@PEBU_s_CatchableType@@PEBU_s_ThrowInfo@@@Z 000000014001a0e0 f i libvcruntime:frame.obj
 0001:00019270       ??$__InternalCxxFrameHandler@V__FrameHandler3@@@@YA?AW4_EXCEPTION_DISPOSITION@@PEAUEHExceptionRecord@@PEA_KPEAU_CONTEXT@@PEAU_xDISPATCHER_CONTEXT@@PEBU_s_FuncInfo@@H1E@Z 000000014001a270 f i libvcruntime:frame.obj
 0001:00019528       ??$__InternalCxxFrameHandler@V__FrameHandler4@@@@YA?AW4_EXCEPTION_DISPOSITION@@PEAUEHExceptionRecord@@PEA_KPEAU_CONTEXT@@PEAU_xDISPATCHER_CONTEXT@@PEAUFuncInfo4@FH4@@H1E@Z 000000014001a528 f i libvcruntime:frame.obj
 0001:00019878       ??$__InternalCxxFrameHandlerWrapper@V__FrameHandler3@@@@YA?AW4_EXCEPTION_DISPOSITION@@PEAUEHExceptionRecord@@PEA_KPEAU_CONTEXT@@PEAU_xDISPATCHER_CONTEXT@@PEBU_s_FuncInfo@@H1E@Z 000000014001a878 f i libvcruntime:frame.obj
 0001:00019880       ??$__InternalCxxFrameHandlerWrapper@V__FrameHandler4@@@@YA?AW4_EXCEPTION_DISPOSITION@@PEAUEHExceptionRecord@@PEA_KPEAU_CONTEXT@@PEAU_xDISPATCHER_CONTEXT@@PEAUFuncInfo4@FH4@@H1E@Z 000000014001a880 f i libvcruntime:frame.obj
 0001:000198e0       ??0HandlerMap4@FH4@@QEAA@PEBUTryBlockMapEntry4@1@_KH@Z 000000014001a8e0 f i libvcruntime:frame.obj
 0001:00019984       ??0HandlerMap@__FrameHandler3@@QEAA@PEBU_s_TryBlockMapEntry@@_KI@Z 000000014001a984 f i libvcruntime:frame.obj
 0001:000199a0       ??0HandlerType4@FH4@@QEAA@XZ 000000014001a9a0 f i libvcruntime:frame.obj
 0001:000199bc       ??0TryBlockMap4@FH4@@QEAA@PEBUFuncInfo4@1@_K@Z 000000014001a9bc f i libvcruntime:frame.obj
 0001:00019adc       ??0TryBlockMap@__FrameHandler3@@QEAA@PEBU_s_FuncInfo@@_K@Z 000000014001aadc f i libvcruntime:frame.obj
 0001:00019aec       ??0UWMap4@FH4@@QEAA@PEBUFuncInfo4@1@_K@Z 000000014001aaec f i libvcruntime:frame.obj
 0001:00019b4c       ??0bad_exception@std@@QEAA@AEBV01@@Z 000000014001ab4c f i libvcruntime:frame.obj
 0001:00019b98       ??0bad_exception@std@@QEAA@XZ 000000014001ab98 f i libvcruntime:frame.obj
 0001:00019bc4       ??0exception@std@@QEAA@AEBV01@@Z 000000014001abc4 f i libvcruntime:frame.obj
 0001:00019c04       ??0exception@std@@QEAA@QEBDH@Z 000000014001ac04 f i libvcruntime:frame.obj
 0001:00019c24       ??0iterator@HandlerMap4@FH4@@QEAA@AEAV12@I@Z 000000014001ac24 f i libvcruntime:frame.obj
 0001:00019c34       ??0iterator@HandlerMap@__FrameHandler3@@QEAA@AEAV12@I@Z 000000014001ac34 f i libvcruntime:frame.obj
 0001:00019c44       ??0iterator@UWMap4@FH4@@QEAA@AEAV12@PEAE@Z 000000014001ac44 f i libvcruntime:frame.obj
 0001:00019c54       ??1bad_exception@std@@UEAA@XZ 000000014001ac54 f i libvcruntime:frame.obj
 0001:00019c6c       ??1exception@std@@UEAA@XZ  000000014001ac6c f i libvcruntime:frame.obj
 0001:00019c84       ??4iterator@UWMap4@FH4@@QEAAAEAV012@AEBV012@@Z 000000014001ac84 f i libvcruntime:frame.obj
 0001:00019cac       ??8iterator@HandlerMap4@FH4@@QEBA_NAEBV012@@Z 000000014001acac f i libvcruntime:frame.obj
 0001:00019cb8       ??8iterator@HandlerMap@__FrameHandler3@@QEBA_NAEBV012@@Z 000000014001acb8 f i libvcruntime:frame.obj
 0001:00019cc4       ??8type_info@@QEBA_NAEBV0@@Z 000000014001acc4 f i libvcruntime:frame.obj
 0001:00019ce8       ??9iterator@HandlerMap4@FH4@@QEBA_NAEBV012@@Z 000000014001ace8 f i libvcruntime:frame.obj
 0001:00019cf4       ??9iterator@HandlerMap@__FrameHandler3@@QEBA_NAEBV012@@Z 000000014001acf4 f i libvcruntime:frame.obj
 0001:00019d00       ??Diterator@HandlerMap4@FH4@@QEAA?AUHandlerType4@2@XZ 000000014001ad00 f i libvcruntime:frame.obj
 0001:00019d28       ??Diterator@HandlerMap@__FrameHandler3@@QEAA?BU_s_HandlerType@@XZ 000000014001ad28 f i libvcruntime:frame.obj
 0001:00019d54       ??Diterator@TryBlockMap@__FrameHandler3@@QEAA?BU_s_TryBlockMapEntry@@XZ 000000014001ad54 f i libvcruntime:frame.obj
 0001:00019d8c       ??Diterator@UWMap4@FH4@@QEAA?AUUnwindMapEntry4@2@XZ 000000014001ad8c f i libvcruntime:frame.obj
 0001:00019df4       ??Eiterator@HandlerMap4@FH4@@QEAAAEAV012@XZ 000000014001adf4 f i libvcruntime:frame.obj
 0001:00019e18       ??Eiterator@HandlerMap@__FrameHandler3@@QEAAAEAV012@XZ 000000014001ae18 f i libvcruntime:frame.obj
 0001:00019e20       ??Eiterator@TryBlockMap@__FrameHandler3@@QEAAAEAV012@XZ 000000014001ae20 f i libvcruntime:frame.obj
 0001:00019e28       ??Eiterator@UWMap4@FH4@@QEAAAEAV012@XZ 000000014001ae28 f i libvcruntime:frame.obj
 0001:00019e50       ??Giterator@UWMap4@FH4@@QEBA_JAEBV012@@Z 000000014001ae50 f i libvcruntime:frame.obj
 0001:00019e5c       ??Miterator@TryBlockMap4@FH4@@QEBA_NAEBV012@@Z 000000014001ae5c f i libvcruntime:frame.obj
 0001:00019e68       ??Miterator@TryBlockMap@__FrameHandler3@@QEBA_NAEBV012@@Z 000000014001ae68 f i libvcruntime:frame.obj
 0001:00019e74       ??Oiterator@UWMap4@FH4@@QEBA_NAEBV012@@Z 000000014001ae74 f i libvcruntime:frame.obj
 0001:00019e84       ??Piterator@UWMap4@FH4@@QEBA_NAEBV012@@Z 000000014001ae84 f i libvcruntime:frame.obj
 0001:00019e94       ??_Ebad_exception@std@@UEAAPEAXI@Z 000000014001ae94 f i libvcruntime:frame.obj
 0001:00019e94       ??_Gbad_exception@std@@UEAAPEAXI@Z 000000014001ae94 f i libvcruntime:frame.obj
 0001:00019ee8       ??_Eexception@std@@UEAAPEAXI@Z 000000014001aee8 f i libvcruntime:frame.obj
 0001:00019ee8       ??_Gexception@std@@UEAAPEAXI@Z 000000014001aee8 f i libvcruntime:frame.obj
 0001:00019f3c       ?BuildCatchObject@__FrameHandler3@@SAXPEAUEHExceptionRecord@@PEAXPEBU_s_HandlerType@@PEBU_s_CatchableType@@@Z 000000014001af3c f   libvcruntime:frame.obj
 0001:00019f44       ?BuildCatchObject@__FrameHandler4@@SAXPEAUEHExceptionRecord@@PEAXPEAUHandlerType4@FH4@@PEBU_s_CatchableType@@@Z 000000014001af44 f   libvcruntime:frame.obj
 0001:00019f4c       ?BuildCatchObjectHelper@__FrameHandler3@@SAHPEAUEHExceptionRecord@@PEAXPEBU_s_HandlerType@@PEBU_s_CatchableType@@@Z 000000014001af4c f   libvcruntime:frame.obj
 0001:00019f54       ?BuildCatchObjectHelper@__FrameHandler4@@SAHPEAUEHExceptionRecord@@PEAXPEAUHandlerType4@FH4@@PEBU_s_CatchableType@@@Z 000000014001af54 f   libvcruntime:frame.obj
 0001:00019f5c       ?CxxCallCatchBlock@__FrameHandler3@@SAPEAXPEAU_EXCEPTION_RECORD@@@Z 000000014001af5c f   libvcruntime:frame.obj
 0001:0001a1c4       ?CxxCallCatchBlock@__FrameHandler4@@SAPEAXPEAU_EXCEPTION_RECORD@@@Z 000000014001b1c4 f   libvcruntime:frame.obj
 0001:0001a494       ?DecompHandler@HandlerMap4@FH4@@AEAAXXZ 000000014001b494 f i libvcruntime:frame.obj
 0001:0001a778       ?FrameUnwindToState@__FrameHandler3@@SAXPEA_KPEAU_xDISPATCHER_CONTEXT@@PEBU_s_FuncInfo@@H@Z 000000014001b778 f   libvcruntime:frame.obj
 0001:0001a964       ?FrameUnwindToState@__FrameHandler4@@SAXPEA_KPEAU_xDISPATCHER_CONTEXT@@PEAUFuncInfo4@FH4@@H@Z 000000014001b964 f   libvcruntime:frame.obj
 0001:0001ad34       ?GetHandlerSearchState@__FrameHandler3@@SAHPEA_KPEAU_xDISPATCHER_CONTEXT@@PEBU_s_FuncInfo@@@Z 000000014001bd34 f i libvcruntime:frame.obj
 0001:0001adf0       ?GetHandlerSearchState@__FrameHandler4@@SAHPEA_KPEAU_xDISPATCHER_CONTEXT@@PEAUFuncInfo4@FH4@@@Z 000000014001bdf0 f i libvcruntime:frame.obj
 0001:0001ae6c       ?GetMaxState@__FrameHandler3@@SAHPEAU_xDISPATCHER_CONTEXT@@PEBU_s_FuncInfo@@@Z 000000014001be6c f i libvcruntime:frame.obj
 0001:0001ae70       ?GetMaxState@__FrameHandler4@@SAHPEAU_xDISPATCHER_CONTEXT@@PEAUFuncInfo4@FH4@@@Z 000000014001be70 f i libvcruntime:frame.obj
 0001:0001b088       ?ReadEntry@UWMap4@FH4@@AEAAXPEAPEAE@Z 000000014001c088 f i libvcruntime:frame.obj
 0001:0001b150       ?TypeMatch@__FrameHandler3@@SAHPEBU_s_HandlerType@@PEBU_s_CatchableType@@PEBU_s_ThrowInfo@@@Z 000000014001c150 f   libvcruntime:frame.obj
 0001:0001b158       ?TypeMatch@__FrameHandler4@@SAHPEAUHandlerType4@FH4@@PEBU_s_CatchableType@@PEBU_s_ThrowInfo@@@Z 000000014001c158 f   libvcruntime:frame.obj
 0001:0001b160       ?WalkBack@UWMap4@FH4@@AEAAXPEAPEAE@Z 000000014001c160 f i libvcruntime:frame.obj
 0001:0001b1a4       ?WalkBack@iterator@UWMap4@FH4@@QEAAXXZ 000000014001c1a4 f i libvcruntime:frame.obj
 0001:0001b1f0       ?WalkForward@UWMap4@FH4@@AEAAXPEAPEAE@Z 000000014001c1f0 f i libvcruntime:frame.obj
 0001:0001b1f8       ?_CallMemberFunction1@@YAXQEAX00@Z 000000014001c1f8 f i libvcruntime:frame.obj
 0001:0001b204       ?_CallMemberFunction2@@YAXQEAX00H@Z 000000014001c204 f i libvcruntime:frame.obj
 0001:0001b234       ?begin@HandlerMap4@FH4@@QEAA?AViterator@12@XZ 000000014001c234 f i libvcruntime:frame.obj
 0001:0001b248       ?begin@HandlerMap@__FrameHandler3@@QEAA?AViterator@12@XZ 000000014001c248 f i libvcruntime:frame.obj
 0001:0001b25c       ?begin@UWMap4@FH4@@QEAA?AViterator@12@XZ 000000014001c25c f i libvcruntime:frame.obj
 0001:0001b270       ?end@HandlerMap4@FH4@@QEAA?AViterator@12@XZ 000000014001c270 f i libvcruntime:frame.obj
 0001:0001b280       ?end@HandlerMap@__FrameHandler3@@QEAA?AViterator@12@XZ 000000014001c280 f i libvcruntime:frame.obj
 0001:0001b290       ?getESTypes@__FrameHandler3@@SAPEBU_s_ESTypeList@@PEBU_s_FuncInfo@@@Z 000000014001c290 f i libvcruntime:frame.obj
 0001:0001b2bc       ?getESTypes@__FrameHandler4@@SAPEBU_s_ESTypeList@@PEAUFuncInfo4@FH4@@@Z 000000014001c2bc f i libvcruntime:frame.obj
 0001:0001b2c0       ?getLastEntry@HandlerMap4@FH4@@QEAAPEAUHandlerType4@2@XZ 000000014001c2c0 f i libvcruntime:frame.obj
 0001:0001b324       ?getLastEntry@HandlerMap@__FrameHandler3@@QEAAPEBU_s_HandlerType@@XZ 000000014001c324 f i libvcruntime:frame.obj
 0001:0001b33c       ?getMagicNum@__FrameHandler3@@SAIPEBU_s_FuncInfo@@@Z 000000014001c33c f i libvcruntime:frame.obj
 0001:0001b348       ?getMagicNum@__FrameHandler4@@SAIPEAUFuncInfo4@FH4@@@Z 000000014001c348 f i libvcruntime:frame.obj
 0001:0001b350       ?getNumTryBlocks@TryBlockMap4@FH4@@QEAAIXZ 000000014001c350 f i libvcruntime:frame.obj
 0001:0001b354       ?getNumTryBlocks@TryBlockMap@__FrameHandler3@@QEAAIXZ 000000014001c354 f i libvcruntime:frame.obj
 0001:0001b35c       ?getStartStop@UWMap4@FH4@@QEAAXHHAEAViterator@12@0@Z 000000014001c35c f i libvcruntime:frame.obj
 0001:0001b460       ?getStateFromIterators@UWMap4@FH4@@SAHAEBViterator@12@H0H0@Z 000000014001c460 f i libvcruntime:frame.obj
 0001:0001b53c       ?isEHs@__FrameHandler3@@SA_NPEBU_s_FuncInfo@@@Z 000000014001c53c f i libvcruntime:frame.obj
 0001:0001b544       ?isEHs@__FrameHandler4@@SA_NPEAUFuncInfo4@FH4@@@Z 000000014001c544 f i libvcruntime:frame.obj
 0001:0001b550       ?isNoExcept@__FrameHandler3@@SA_NPEBU_s_FuncInfo@@@Z 000000014001c550 f i libvcruntime:frame.obj
 0001:0001b55c       ?isNoExcept@__FrameHandler4@@SA_NPEAUFuncInfo4@FH4@@@Z 000000014001c55c f i libvcruntime:frame.obj
 0001:0001b568       ?reset@HandlerType4@FH4@@QEAAXXZ 000000014001c568 f i libvcruntime:frame.obj
 0001:0001b584       ?resetBuffer@HandlerMap4@FH4@@QEAAXXZ 000000014001c584 f i libvcruntime:frame.obj
 0001:0001b594       ?setBuffer@HandlerMap4@FH4@@QEAAXI@Z 000000014001c594 f i libvcruntime:frame.obj
 0001:0001b5dc       ?what@exception@std@@UEBAPEBDXZ 000000014001c5dc f i libvcruntime:frame.obj
 0001:0001b5f4       __BuildCatchObject         000000014001c5f4 f   libvcruntime:frame.obj
 0001:0001b5fc       __BuildCatchObjectHelper   000000014001c5fc f   libvcruntime:frame.obj
 0001:0001b604       __TypeMatch                000000014001c604 f   libvcruntime:frame.obj
 0001:0001b60c       __vcrt_EncodePointer       000000014001c60c f i libvcruntime:frame.obj
 0001:0001b670       _CallSettingFrame          000000014001c670 f   libvcruntime:handlers.obj
 0001:0001b6c0       _CallSettingFrame_LookupContinuationIndex 000000014001c6c0 f   libvcruntime:handlers.obj
 0001:0001b700       _CallSettingFrame_NotifyContinuationAddr 000000014001c700 f   libvcruntime:handlers.obj
 0001:0001b730       _CallSettingFrameEncoded   000000014001c730 f   libvcruntime:handlers.obj
 0001:0001b788       ??$?RD@__crt_public_free_policy@@QEBAXQEBD@Z 000000014001c788 f i libvcruntime:std_exception.obj
 0001:0001b794       ??0?$__crt_unique_heap_ptr@DU__crt_public_free_policy@@@@QEAA@QEAD@Z 000000014001c794 f i libvcruntime:std_exception.obj
 0001:0001b79c       ??1?$__crt_unique_heap_ptr@DU__crt_public_free_policy@@@@QEAA@XZ 000000014001c79c f i libvcruntime:std_exception.obj
 0001:0001b7c4       ??B?$__crt_unique_heap_ptr@DU__crt_public_free_policy@@@@QEBA_NXZ 000000014001c7c4 f i libvcruntime:std_exception.obj
 0001:0001b7d0       ?detach@?$__crt_unique_heap_ptr@DU__crt_public_free_policy@@@@QEAAPEADXZ 000000014001c7d0 f i libvcruntime:std_exception.obj
 0001:0001b7e0       ?get@?$__crt_unique_heap_ptr@DU__crt_public_free_policy@@@@QEBAPEADXZ 000000014001c7e0 f i libvcruntime:std_exception.obj
 0001:0001b7e4       ?is_valid@?$__crt_unique_heap_ptr@DU__crt_public_free_policy@@@@QEBA_NXZ 000000014001c7e4 f i libvcruntime:std_exception.obj
 0001:0001b7f0       ?release@?$__crt_unique_heap_ptr@DU__crt_public_free_policy@@@@QEAAXXZ 000000014001c7f0 f i libvcruntime:std_exception.obj
 0001:0001b818       __std_exception_copy       000000014001c818 f   libvcruntime:std_exception.obj
 0001:0001b8b8       __std_exception_destroy    000000014001c8b8 f   libvcruntime:std_exception.obj
 0001:0001b8ec       _CxxThrowException         000000014001c8ec f   libvcruntime:throw.obj
 0001:0001bc38       __acrt_locale_changed      000000014001cc38 f i libucrt:_ctype.obj
 0001:0001bc48       __acrt_locale_get_ctype_array_value 000000014001cc48 f i libucrt:_ctype.obj
 0001:0001bc70       __isascii                  000000014001cc70 f   libucrt:_ctype.obj
 0001:0001bc80       __iscsym                   000000014001cc80 f   libucrt:_ctype.obj
 0001:0001bd20       __iscsymf                  000000014001cd20 f   libucrt:_ctype.obj
 0001:0001be00       __toascii                  000000014001ce00 f   libucrt:_ctype.obj
 0001:0001be10       _isalnum_l                 000000014001ce10 f   libucrt:_ctype.obj
 0001:0001bf50       _isalpha_l                 000000014001cf50 f   libucrt:_ctype.obj
 0001:0001c090       _isblank_l                 000000014001d090 f   libucrt:_ctype.obj
 0001:0001c1c0       _iscntrl_l                 000000014001d1c0 f   libucrt:_ctype.obj
 0001:0001c2f0       _iscsym_l                  000000014001d2f0 f   libucrt:_ctype.obj
 0001:0001c400       _iscsymf_l                 000000014001d400 f   libucrt:_ctype.obj
 0001:0001c510       _isdigit_l                 000000014001d510 f   libucrt:_ctype.obj
 0001:0001c640       _isgraph_l                 000000014001d640 f   libucrt:_ctype.obj
 0001:0001c780       _islower_l                 000000014001d780 f   libucrt:_ctype.obj
 0001:0001c8b0       _isprint_l                 000000014001d8b0 f   libucrt:_ctype.obj
 0001:0001c9f0       _ispunct_l                 000000014001d9f0 f   libucrt:_ctype.obj
 0001:0001cb20       _isspace_l                 000000014001db20 f   libucrt:_ctype.obj
 0001:0001cc50       _isupper_l                 000000014001dc50 f   libucrt:_ctype.obj
 0001:0001cd80       _isxdigit_l                000000014001dd80 f   libucrt:_ctype.obj
 0001:0001cec0       isalnum                    000000014001dec0 f   libucrt:_ctype.obj
 0001:0001cfa0       isalpha                    000000014001dfa0 f   libucrt:_ctype.obj
 0001:0001d080       isblank                    000000014001e080 f   libucrt:_ctype.obj
 0001:0001d170       iscntrl                    000000014001e170 f   libucrt:_ctype.obj
 0001:0001d240       isdigit                    000000014001e240 f   libucrt:_ctype.obj
 0001:0001d310       isgraph                    000000014001e310 f   libucrt:_ctype.obj
 0001:0001d3f0       islower                    000000014001e3f0 f   libucrt:_ctype.obj
 0001:0001d4c0       isprint                    000000014001e4c0 f   libucrt:_ctype.obj
 0001:0001d5a0       ispunct                    000000014001e5a0 f   libucrt:_ctype.obj
 0001:0001d670       isspace                    000000014001e670 f   libucrt:_ctype.obj
 0001:0001d740       isupper                    000000014001e740 f   libucrt:_ctype.obj
 0001:0001d810       isxdigit                   000000014001e810 f   libucrt:_ctype.obj
 0001:0001d8e8       ??$__crt_interlocked_read@J@@YAJPEDJ@Z 000000014001e8e8 f i libucrt:fputc.obj
 0001:0001d8ec       ??0?$cached@H@__crt_cached_ptd_host@@QEAA@XZ 000000014001e8ec f i libucrt:fputc.obj
 0001:0001d8f8       ??0?$cached@K@__crt_cached_ptd_host@@QEAA@XZ 000000014001e8f8 f i libucrt:fputc.obj
 0001:0001d904       ??0__crt_cached_ptd_host@@QEAA@QEAU__crt_locale_pointers@@@Z 000000014001e904 f i libucrt:fputc.obj
 0001:0001d948       ??0__crt_scoped_get_last_error_reset@@QEAA@XZ 000000014001e948 f i libucrt:fputc.obj
 0001:0001d968       ??0__crt_stdio_stream@@QEAA@QEAU_iobuf@@@Z 000000014001e968 f i libucrt:fputc.obj
 0001:0001d970       ??1__crt_cached_ptd_host@@QEAA@XZ 000000014001e970 f i libucrt:fputc.obj
 0001:0001d9d0       ??1__crt_scoped_get_last_error_reset@@QEAA@XZ 000000014001e9d0 f i libucrt:fputc.obj
 0001:0001d9dc       ??C__crt_stdio_stream@@QEBAPEAU__crt_stdio_stream_data@@XZ 000000014001e9dc f i libucrt:fputc.obj
 0001:0001d9e0       ?__crt_interlocked_read_32@@YAHPEDH@Z 000000014001e9e0 f i libucrt:fputc.obj
 0001:0001dba4       ?check_synchronize_global_state_index@__crt_cached_ptd_host@@AEAA_KAEBV__crt_scoped_get_last_error_reset@@@Z 000000014001eba4 f i libucrt:fputc.obj
 0001:0001dbc0       ?check_synchronize_per_thread_data@__crt_cached_ptd_host@@AEAAPEAU__acrt_ptd@@XZ 000000014001ebc0 f i libucrt:fputc.obj
 0001:0001dc40       ?force_synchronize_global_state_index@__crt_cached_ptd_host@@AEAA_KAEBV__crt_scoped_get_last_error_reset@@@Z 000000014001ec40 f i libucrt:fputc.obj
 0001:0001dc50       ?force_synchronize_per_thread_data@__crt_cached_ptd_host@@AEAAPEAU__acrt_ptd@@XZ 000000014001ec50 f i libucrt:fputc.obj
 0001:0001dcbc       ?get_current_state_index@__crt_state_management@@YA_KAEBV__crt_scoped_get_last_error_reset@@@Z 000000014001ecbc f i libucrt:fputc.obj
 0001:0001dcc0       ?get_errno@__crt_cached_ptd_host@@QEAA@XZ 000000014001ecc0 f i libucrt:fputc.obj
 0001:0001dcc8       ?get_flags@__crt_stdio_stream@@QEBAJXZ 000000014001ecc8 f i libucrt:fputc.obj
 0001:0001dcd4       ?get_raw_ptd@__crt_cached_ptd_host@@QEAAPEAU__acrt_ptd@@XZ 000000014001ecd4 f i libucrt:fputc.obj
 0001:0001dd54       ?is_string_backed@__crt_stdio_stream@@QEBA_NXZ 000000014001ed54 f i libucrt:fputc.obj
 0001:0001dd64       ?public_stream@__crt_stdio_stream@@QEBAPEAU_iobuf@@XZ 000000014001ed64 f i libucrt:fputc.obj
 0001:0001dd68       ?set@?$cached@H@__crt_cached_ptd_host@@QEAAHH@Z 000000014001ed68 f i libucrt:fputc.obj
 0001:0001dd74       ?unsafe_value@?$cached@H@__crt_cached_ptd_host@@QEAAHXZ 000000014001ed74 f i libucrt:fputc.obj
 0001:0001dd78       ?unsafe_value@?$cached@K@__crt_cached_ptd_host@@QEAAKXZ 000000014001ed78 f i libucrt:fputc.obj
 0001:0001dd7c       ?valid@?$cached@H@__crt_cached_ptd_host@@QEBA_NXZ 000000014001ed7c f i libucrt:fputc.obj
 0001:0001dd80       ?valid@?$cached@K@__crt_cached_ptd_host@@QEBA_NXZ 000000014001ed80 f i libucrt:fputc.obj
 0001:0001dd84       __acrt_enable_global_locale_sync 000000014001ed84 f i libucrt:fputc.obj
 0001:0001dd90       _fputc_nolock              000000014001ed90 f   libucrt:fputc.obj
 0001:0001de68       _fputc_nolock_internal     000000014001ee68 f   libucrt:fputc.obj
 0001:0001de84       _fputchar                  000000014001ee84 f   libucrt:fputc.obj
 0001:0001deb0       _putc_nolock               000000014001eeb0 f   libucrt:fputc.obj
 0001:0001deb8       fputc                      000000014001eeb8 f   libucrt:fputc.obj
 0001:0001df78       putc                       000000014001ef78 f   libucrt:fputc.obj
 0001:0001df80       putchar                    000000014001ef80 f   libucrt:fputc.obj
 0001:0001dfac       _seh_filter_dll            000000014001efac f   libucrt:exception_filter.obj
 0001:0001dfc4       _seh_filter_exe            000000014001efc4 f   libucrt:exception_filter.obj
 0001:0001e29c       __acrt_report_runtime_error 000000014001f29c f   libucrt:report_runtime_error.obj
 0001:0001e450       _invoke_watson_if_error    000000014001f450 f i libucrt:report_runtime_error.obj
 0001:0001e490       _query_app_type            000000014001f490 f   libucrt:report_runtime_error.obj
 0001:0001e498       _set_app_type              000000014001f498 f   libucrt:report_runtime_error.obj
 0001:0001e4a0       ??$__crt_fast_decode_pointer@P6AHPEAU_exception@@@Z@@YAP6AHPEAU_exception@@@ZQ6AH0@Z@Z 000000014001f4a0 f i libucrt:matherr.obj
 0001:0001e4c0       ??$__crt_fast_encode_pointer@P6AHPEAU_exception@@@Z@@YAP6AHPEAU_exception@@@ZQ6AH0@Z@Z 000000014001f4c0 f i libucrt:matherr.obj
 0001:0001e4f0       ?__crt_rotate_pointer_value@@YA_K_KH@Z 000000014001f4f0 f i libucrt:matherr.obj
 0001:0001e500       ?get_current_state_index@__crt_state_management@@YA_KXZ 000000014001f500 f i libucrt:matherr.obj
 0001:0001e510       ?initialize@?$dual_state_global@P6AHPEAU_exception@@@Z@__crt_state_management@@QEAAXQ6AHPEAU_exception@@@Z@Z 000000014001f510 f i libucrt:matherr.obj
 0001:0001e520       ?value@?$dual_state_global@P6AHPEAU_exception@@@Z@__crt_state_management@@QEAAAEAP6AHPEAU_exception@@@ZXZ 000000014001f520 f i libucrt:matherr.obj
 0001:0001e530       __acrt_has_user_matherr    000000014001f530 f   libucrt:matherr.obj
 0001:0001e560       __acrt_initialize_user_matherr 000000014001f560 f   libucrt:matherr.obj
 0001:0001e570       __acrt_invoke_user_matherr 000000014001f570 f   libucrt:matherr.obj
 0001:0001e5b0       __setusermatherr           000000014001f5b0 f   libucrt:matherr.obj
 0001:0001e5e0       ??$?RE@__crt_internal_free_policy@@QEBAXQEBE@Z 000000014001f5e0 f i libucrt:argv_parsing.obj
 0001:0001e5ec       ??$?RPEAD@__crt_internal_free_policy@@QEBAXQEBQEAD@Z 000000014001f5ec f i libucrt:argv_parsing.obj
 0001:0001e5f8       ??$?RPEA_W@__crt_internal_free_policy@@QEBAXQEBQEA_W@Z 000000014001f5f8 f i libucrt:argv_parsing.obj
 0001:0001e9b0       ??$get_module_file_name@$$TAEAY0BAF@DH@?$__crt_char_traits@D@@SAK$$QEA$$TAEAY0BAF@D$$QEAH@Z 000000014001f9b0 f i libucrt:argv_parsing.obj
 0001:0001e9c0       ??$get_module_file_name@$$TAEAY0BAF@_WH@?$__crt_char_traits@_W@@SAK$$QEA$$TAEAY0BAF@_W$$QEAH@Z 000000014001f9c0 f i libucrt:argv_parsing.obj
 0001:0001ee08       ??$set_program_name@PEAD@?$__crt_char_traits@D@@SAX$$QEAPEAD@Z 000000014001fe08 f i libucrt:argv_parsing.obj
 0001:0001ee18       ??$set_program_name@PEA_W@?$__crt_char_traits@_W@@SAX$$QEAPEA_W@Z 000000014001fe18 f i libucrt:argv_parsing.obj
 0001:0001ee38       ??0?$__crt_unique_heap_ptr@EU__crt_internal_free_policy@@@@QEAA@QEAE@Z 000000014001fe38 f i libucrt:argv_parsing.obj
 0001:0001ee40       ??0?$__crt_unique_heap_ptr@PEADU__crt_internal_free_policy@@@@QEAA@QEAPEAD@Z 000000014001fe40 f i libucrt:argv_parsing.obj
 0001:0001ee48       ??0?$__crt_unique_heap_ptr@PEA_WU__crt_internal_free_policy@@@@QEAA@QEAPEA_W@Z 000000014001fe48 f i libucrt:argv_parsing.obj
 0001:0001ee50       ??1?$__crt_unique_heap_ptr@EU__crt_internal_free_policy@@@@QEAA@XZ 000000014001fe50 f i libucrt:argv_parsing.obj
 0001:0001ee74       ??1?$__crt_unique_heap_ptr@PEADU__crt_internal_free_policy@@@@QEAA@XZ 000000014001fe74 f i libucrt:argv_parsing.obj
 0001:0001ee98       ??1?$__crt_unique_heap_ptr@PEA_WU__crt_internal_free_policy@@@@QEAA@XZ 000000014001fe98 f i libucrt:argv_parsing.obj
 0001:0001eebc       ??B?$__crt_unique_heap_ptr@EU__crt_internal_free_policy@@@@QEBA_NXZ 000000014001febc f i libucrt:argv_parsing.obj
 0001:0001ef10       ?detach@?$__crt_unique_heap_ptr@EU__crt_internal_free_policy@@@@QEAAPEAEXZ 000000014001ff10 f i libucrt:argv_parsing.obj
 0001:0001ef1c       ?detach@?$__crt_unique_heap_ptr@PEADU__crt_internal_free_policy@@@@QEAAPEAPEADXZ 000000014001ff1c f i libucrt:argv_parsing.obj
 0001:0001ef28       ?detach@?$__crt_unique_heap_ptr@PEA_WU__crt_internal_free_policy@@@@QEAAPEAPEA_WXZ 000000014001ff28 f i libucrt:argv_parsing.obj
 0001:0001ef50       ?get@?$__crt_unique_heap_ptr@EU__crt_internal_free_policy@@@@QEBAPEAEXZ 000000014001ff50 f i libucrt:argv_parsing.obj
 0001:0001ef54       ?get@?$__crt_unique_heap_ptr@PEADU__crt_internal_free_policy@@@@QEBAPEAPEADXZ 000000014001ff54 f i libucrt:argv_parsing.obj
 0001:0001ef58       ?get@?$__crt_unique_heap_ptr@PEA_WU__crt_internal_free_policy@@@@QEBAPEAPEA_WXZ 000000014001ff58 f i libucrt:argv_parsing.obj
 0001:0001ef5c       ?get_address_of@?$__crt_unique_heap_ptr@PEADU__crt_internal_free_policy@@@@QEAAPEAPEAPEADXZ 000000014001ff5c f i libucrt:argv_parsing.obj
 0001:0001ef60       ?get_address_of@?$__crt_unique_heap_ptr@PEA_WU__crt_internal_free_policy@@@@QEAAPEAPEAPEA_WXZ 000000014001ff60 f i libucrt:argv_parsing.obj
 0001:0001ef94       ?is_valid@?$__crt_unique_heap_ptr@EU__crt_internal_free_policy@@@@QEBA_NXZ 000000014001ff94 f i libucrt:argv_parsing.obj
 0001:0001efa0       ?release@?$__crt_unique_heap_ptr@EU__crt_internal_free_policy@@@@QEAAXXZ 000000014001ffa0 f i libucrt:argv_parsing.obj
 0001:0001efc4       ?release@?$__crt_unique_heap_ptr@PEADU__crt_internal_free_policy@@@@QEAAXXZ 000000014001ffc4 f i libucrt:argv_parsing.obj
 0001:0001efe8       ?release@?$__crt_unique_heap_ptr@PEA_WU__crt_internal_free_policy@@@@QEAAXXZ 000000014001ffe8 f i libucrt:argv_parsing.obj
 0001:0001f02c       __acrt_allocate_buffer_for_argv 000000014002002c f   libucrt:argv_parsing.obj
 0001:0001f0a0       _configure_narrow_argv     00000001400200a0 f   libucrt:argv_parsing.obj
 0001:0001f27c       _configure_wide_argv       000000014002027c f   libucrt:argv_parsing.obj
 0001:0001f454       _set_pgmptr                0000000140020454 f i libucrt:argv_parsing.obj
 0001:0001f460       _set_wpgmptr               0000000140020460 f i libucrt:argv_parsing.obj
 0001:0001f46c       ??$?R_W@__crt_internal_free_policy@@QEBAXQEB_W@Z 000000014002046c f i libucrt:environment_initialization.obj
 0001:0001fae8       ??$get_environment_from_os@$$V@?$__crt_char_traits@D@@SAPEADXZ 0000000140020ae8 f i libucrt:environment_initialization.obj
 0001:0001faf0       ??$get_environment_from_os@$$V@?$__crt_char_traits@_W@@SAPEA_WXZ 0000000140020af0 f i libucrt:environment_initialization.obj
 0001:0001fcf8       ??$set_variable_in_environment_nolock@PEADH@?$__crt_char_traits@D@@SAH$$QEAPEAD$$QEAH@Z 0000000140020cf8 f i libucrt:environment_initialization.obj
 0001:0001fd04       ??$set_variable_in_environment_nolock@PEA_WH@?$__crt_char_traits@_W@@SAH$$QEAPEA_W$$QEAH@Z 0000000140020d04 f i libucrt:environment_initialization.obj
 0001:0001fd10       ??$tcscpy_s@PEADAEB_KAEAPEAD@?$__crt_char_traits@D@@SAH$$QEAPEADAEB_KAEAPEAD@Z 0000000140020d10 f i libucrt:environment_initialization.obj
 0001:0001fd24       ??$tcscpy_s@PEA_WAEB_KAEAPEA_W@?$__crt_char_traits@_W@@SAH$$QEAPEA_WAEB_KAEAPEA_W@Z 0000000140020d24 f i libucrt:environment_initialization.obj
 0001:0001fd38       ??$tcslen@AEAPEAD@?$__crt_char_traits@D@@SA_KAEAPEAD@Z 0000000140020d38 f i libucrt:environment_initialization.obj
 0001:0001fd50       ??$tcslen@AEAPEA_W@?$__crt_char_traits@_W@@SA_KAEAPEA_W@Z 0000000140020d50 f i libucrt:environment_initialization.obj
 0001:0001fd68       ??$uninitialize@A6AXAEAPEAPEAD@_E@?$dual_state_global@PEAPEAD@__crt_state_management@@QEAAXA6AXAEAPEAPEAD@_E@Z 0000000140020d68 f i libucrt:environment_initialization.obj
 0001:0001fdc8       ??$uninitialize@A6AXAEAPEAPEA_W@_E@?$dual_state_global@PEAPEA_W@__crt_state_management@@QEAAXA6AXAEAPEAPEA_W@_E@Z 0000000140020dc8 f i libucrt:environment_initialization.obj
 0001:0001fe68       ??0?$__crt_unique_heap_ptr@_WU__crt_internal_free_policy@@@@QEAA@QEA_W@Z 0000000140020e68 f i libucrt:environment_initialization.obj
 0001:0001fe70       ??1?$__crt_unique_heap_ptr@_WU__crt_internal_free_policy@@@@QEAA@XZ 0000000140020e70 f i libucrt:environment_initialization.obj
 0001:0001fe94       ??B?$__crt_unique_heap_ptr@PEADU__crt_internal_free_policy@@@@QEBA_NXZ 0000000140020e94 f i libucrt:environment_initialization.obj
 0001:0001fea0       ??B?$__crt_unique_heap_ptr@PEA_WU__crt_internal_free_policy@@@@QEBA_NXZ 0000000140020ea0 f i libucrt:environment_initialization.obj
 0001:0001feac       ??B?$__crt_unique_heap_ptr@_WU__crt_internal_free_policy@@@@QEBA_NXZ 0000000140020eac f i libucrt:environment_initialization.obj
 0001:0001feb8       ?__crt_compute_required_transform_buffer_count@@YA_KIQEBD@Z 0000000140020eb8 f i libucrt:environment_initialization.obj
 0001:0001fee8       ?__crt_compute_required_transform_buffer_count@@YA_KIQEB_W@Z 0000000140020ee8 f i libucrt:environment_initialization.obj
 0001:0001ff24       ?__crt_transform_string@@YA_KIQEBDQEA_W_K@Z 0000000140020f24 f i libucrt:environment_initialization.obj
 0001:0001ff50       ?__crt_transform_string@@YA_KIQEB_WQEAD_K@Z 0000000140020f50 f i libucrt:environment_initialization.obj
 0001:0001ff8c       ?detach@?$__crt_unique_heap_ptr@DU__crt_internal_free_policy@@@@QEAAPEADXZ 0000000140020f8c f i libucrt:environment_initialization.obj
 0001:0001ff98       ?detach@?$__crt_unique_heap_ptr@_WU__crt_internal_free_policy@@@@QEAAPEA_WXZ 0000000140020f98 f i libucrt:environment_initialization.obj
 0001:0001ffa4       ?get@?$__crt_unique_heap_ptr@_WU__crt_internal_free_policy@@@@QEBAPEA_WXZ 0000000140020fa4 f i libucrt:environment_initialization.obj
 0001:0001fff0       ?initialize@?$dual_state_global@PEAPEAD@__crt_state_management@@QEAAXQEAPEAD@Z 0000000140020ff0 f i libucrt:environment_initialization.obj
 0001:00020000       ?initialize@?$dual_state_global@PEAPEA_W@__crt_state_management@@QEAAXQEAPEA_W@Z 0000000140021000 f i libucrt:environment_initialization.obj
 0001:00020010       ?is_valid@?$__crt_unique_heap_ptr@PEADU__crt_internal_free_policy@@@@QEBA_NXZ 0000000140021010 f i libucrt:environment_initialization.obj
 0001:0002001c       ?is_valid@?$__crt_unique_heap_ptr@PEA_WU__crt_internal_free_policy@@@@QEBA_NXZ 000000014002101c f i libucrt:environment_initialization.obj
 0001:00020028       ?is_valid@?$__crt_unique_heap_ptr@_WU__crt_internal_free_policy@@@@QEBA_NXZ 0000000140021028 f i libucrt:environment_initialization.obj
 0001:00020040       ?release@?$__crt_unique_heap_ptr@_WU__crt_internal_free_policy@@@@QEAAXXZ 0000000140021040 f i libucrt:environment_initialization.obj
 0001:00020064       ?value@?$dual_state_global@PEAPEAD@__crt_state_management@@QEAAAEAPEAPEADXZ 0000000140021064 f i libucrt:environment_initialization.obj
 0001:00020068       ?value@?$dual_state_global@PEAPEA_W@__crt_state_management@@QEAAAEAPEAPEA_WXZ 0000000140021068 f i libucrt:environment_initialization.obj
 0001:0002006c       __dcrt_get_or_create_narrow_environment_nolock 000000014002106c f   libucrt:environment_initialization.obj
 0001:000200b8       __dcrt_get_or_create_wide_environment_nolock 00000001400210b8 f   libucrt:environment_initialization.obj
 0001:00020104       __dcrt_uninitialize_environments_nolock 0000000140021104 f   libucrt:environment_initialization.obj
 0001:00020158       __p__environ               0000000140021158 f   libucrt:environment_initialization.obj
 0001:00020164       __p__wenviron              0000000140021164 f   libucrt:environment_initialization.obj
 0001:00020170       _get_initial_narrow_environment 0000000140021170 f   libucrt:environment_initialization.obj
 0001:000201d4       _get_initial_wide_environment 00000001400211d4 f   libucrt:environment_initialization.obj
 0001:00020238       _initialize_narrow_environment 0000000140021238 f   libucrt:environment_initialization.obj
 0001:00020240       _initialize_wide_environment 0000000140021240 f   libucrt:environment_initialization.obj
 0001:00020248       _initterm                  0000000140021248 f   libucrt:initterm.obj
 0001:0002028c       _initterm_e                000000014002128c f   libucrt:initterm.obj
 0001:000202d8       ??$?B$$A6AXPEAXK0@Z@__crt_fast_encoded_nullptr_t@@QEBAP6AXPEAXK0@ZXZ 00000001400212d8 f i libucrt:exit.obj
 0001:00020368       ??$__crt_fast_decode_pointer@P6AXPEAXK0@Z@@YAP6AXPEAXK0@ZQ6AX0K0@Z@Z 0000000140021368 f i libucrt:exit.obj
 0001:00020384       ??$__crt_fast_encode_pointer@P6AXPEAXK0@Z@@YAP6AXPEAXK0@ZQ6AX0K0@Z@Z 0000000140021384 f i libucrt:exit.obj
 0001:000203ac       ??$__crt_get_proc_address@P6AXI@Z@@YAP6AXI@ZQEAUHINSTANCE__@@QEBD@Z 00000001400213ac f i libucrt:exit.obj
 0001:000203e0       ??0?$__crt_unique_handle_t@U__crt_hmodule_traits@@@@QEAA@QEAUHINSTANCE__@@@Z 00000001400213e0 f i libucrt:exit.obj
 0001:000203e8       ??1?$__crt_unique_handle_t@U__crt_hmodule_traits@@@@QEAA@XZ 00000001400213e8 f i libucrt:exit.obj
 0001:00020514       ?__acrt_select_exit_lock@@YA?AW4__acrt_lock_id@@XZ 0000000140021514 f i libucrt:exit.obj
 0001:0002051c       ?__crt_fast_encode_pointer@@YA?AU__crt_fast_encoded_nullptr_t@@$$T@Z 000000014002151c f i libucrt:exit.obj
 0001:00020534       ?close@?$__crt_unique_handle_t@U__crt_hmodule_traits@@@@QEAAXXZ 0000000140021534 f i libucrt:exit.obj
 0001:00020560       ?close@__crt_hmodule_traits@@SA_NPEAUHINSTANCE__@@@Z 0000000140021560 f i libucrt:exit.obj
 0001:000206d0       ?get@?$__crt_unique_handle_t@U__crt_hmodule_traits@@@@QEBAPEAUHINSTANCE__@@XZ 00000001400216d0 f i libucrt:exit.obj
 0001:000206d4       ?get_address_of@?$__crt_unique_handle_t@U__crt_hmodule_traits@@@@QEAAPEAPEAUHINSTANCE__@@XZ 00000001400216d4 f i libucrt:exit.obj
 0001:000206d8       ?get_invalid_value@__crt_hmodule_traits@@SAPEAUHINSTANCE__@@XZ 00000001400216d8 f i libucrt:exit.obj
 0001:000207f0       _Exit                      00000001400217f0 f   libucrt:exit.obj
 0001:00020800       __acrt_initialize_thread_local_exit_callback 0000000140021800 f   libucrt:exit.obj
 0001:0002080c       _c_exit                    000000014002180c f   libucrt:exit.obj
 0001:00020820       _cexit                     0000000140021820 f   libucrt:exit.obj
 0001:00020830       _exit                      0000000140021830 f   libucrt:exit.obj
 0001:00020840       _is_c_termination_complete 0000000140021840 f   libucrt:exit.obj
 0001:0002084c       _register_thread_local_exe_atexit_callback 000000014002184c f   libucrt:exit.obj
 0001:00020898       exit                       0000000140021898 f   libucrt:exit.obj
 0001:000208a4       quick_exit                 00000001400218a4 f   libucrt:exit.obj
 0001:000208b4       ??$__crt_interlocked_read@H@@YAHPEDH@Z 00000001400218b4 f i libucrt:setmode.obj
 0001:000208b8       ?value@?$dual_state_global@H@__crt_state_management@@QEAAAEAHXZ 00000001400218b8 f i libucrt:setmode.obj
 0001:000208bc       _get_fmode                 00000001400218bc f   libucrt:setmode.obj
 0001:000208f8       _set_fmode                 00000001400218f8 f   libucrt:setmode.obj
 0001:00020944       _setmode                   0000000140021944 f   libucrt:setmode.obj
 0001:00020aa8       _setmode_nolock            0000000140021aa8 f   libucrt:setmode.obj
 0001:00020bc8       __acrt_initialize_command_line 0000000140021bc8 f   libucrt:argv_data.obj
 0001:00020bf8       __acrt_uninitialize_command_line 0000000140021bf8 f   libucrt:argv_data.obj
 0001:00020bfc       __p___argc                 0000000140021bfc f   libucrt:argv_data.obj
 0001:00020c08       __p___argv                 0000000140021c08 f   libucrt:argv_data.obj
 0001:00020c14       __p___wargv                0000000140021c14 f   libucrt:argv_data.obj
 0001:00020c20       __p__acmdln                0000000140021c20 f   libucrt:argv_data.obj
 0001:00020c2c       __p__pgmptr                0000000140021c2c f   libucrt:argv_data.obj
 0001:00020c38       __p__wcmdln                0000000140021c38 f   libucrt:argv_data.obj
 0001:00020c44       __p__wpgmptr               0000000140021c44 f   libucrt:argv_data.obj
 0001:00020c50       _get_pgmptr                0000000140021c50 f   libucrt:argv_data.obj
 0001:00020c94       _get_wpgmptr               0000000140021c94 f   libucrt:argv_data.obj
 0001:00020cdc       ??$?RU__crt_locale_data@@@__crt_internal_free_policy@@QEBAXQEBU__crt_locale_data@@@Z 0000000140021cdc f i libucrt:wsetlocale.obj
 0001:00020ce8       ??$?RU__crt_locale_pointers@@@__crt_internal_free_policy@@QEBAXQEBU__crt_locale_pointers@@@Z 0000000140021ce8 f i libucrt:wsetlocale.obj
 0001:00020cf4       ??$?RU__crt_multibyte_data@@@__crt_internal_free_policy@@QEBAXQEBU__crt_multibyte_data@@@Z 0000000140021cf4 f i libucrt:wsetlocale.obj
 0001:000211f4       ??0?$__crt_unique_heap_ptr@U__crt_locale_data@@U__crt_internal_free_policy@@@@QEAA@QEAU__crt_locale_data@@@Z 00000001400221f4 f i libucrt:wsetlocale.obj
 0001:000211fc       ??0?$__crt_unique_heap_ptr@U__crt_locale_pointers@@U__crt_internal_free_policy@@@@QEAA@QEAU__crt_locale_pointers@@@Z 00000001400221fc f i libucrt:wsetlocale.obj
 0001:00021204       ??0?$__crt_unique_heap_ptr@U__crt_multibyte_data@@U__crt_internal_free_policy@@@@QEAA@QEAU__crt_multibyte_data@@@Z 0000000140022204 f i libucrt:wsetlocale.obj
 0001:0002120c       ??0_expandlocale_locale_name_cache@@QEAA@QEA_W_KQEAU__crt_qualified_locale_data@@@Z 000000014002220c f i libucrt:wsetlocale.obj
 0001:0002127c       ??1?$__crt_unique_heap_ptr@U__crt_locale_data@@U__crt_internal_free_policy@@@@QEAA@XZ 000000014002227c f i libucrt:wsetlocale.obj
 0001:000212a0       ??1?$__crt_unique_heap_ptr@U__crt_locale_pointers@@U__crt_internal_free_policy@@@@QEAA@XZ 00000001400222a0 f i libucrt:wsetlocale.obj
 0001:000212c4       ??1?$__crt_unique_heap_ptr@U__crt_multibyte_data@@U__crt_internal_free_policy@@@@QEAA@XZ 00000001400222c4 f i libucrt:wsetlocale.obj
 0001:000212e8       ??1_expandlocale_locale_name_cache@@QEAA@XZ 00000001400222e8 f i libucrt:wsetlocale.obj
 0001:00021344       ??B?$__crt_unique_heap_ptr@U__crt_locale_data@@U__crt_internal_free_policy@@@@QEBA_NXZ 0000000140022344 f i libucrt:wsetlocale.obj
 0001:00021350       ??B?$__crt_unique_heap_ptr@U__crt_locale_pointers@@U__crt_internal_free_policy@@@@QEBA_NXZ 0000000140022350 f i libucrt:wsetlocale.obj
 0001:0002135c       ??B?$__crt_unique_heap_ptr@U__crt_multibyte_data@@U__crt_internal_free_policy@@@@QEBA_NXZ 000000014002235c f i libucrt:wsetlocale.obj
 0001:00021668       ?commit_locale_name@_expandlocale_locale_name_cache@@QEAAXQEB_W_K@Z 0000000140022668 f i libucrt:wsetlocale.obj
 0001:000216fc       ?commit_locale_name_cache_already_updated@_expandlocale_locale_name_cache@@QEAAXQEB_W_K@Z 00000001400226fc f i libucrt:wsetlocale.obj
 0001:0002174c       ?detach@?$__crt_unique_heap_ptr@U__crt_locale_data@@U__crt_internal_free_policy@@@@QEAAPEAU__crt_locale_data@@XZ 000000014002274c f i libucrt:wsetlocale.obj
 0001:00021758       ?detach@?$__crt_unique_heap_ptr@U__crt_locale_pointers@@U__crt_internal_free_policy@@@@QEAAPEAU__crt_locale_pointers@@XZ 0000000140022758 f i libucrt:wsetlocale.obj
 0001:00021764       ?detach@?$__crt_unique_heap_ptr@U__crt_multibyte_data@@U__crt_internal_free_policy@@@@QEAAPEAU__crt_multibyte_data@@XZ 0000000140022764 f i libucrt:wsetlocale.obj
 0001:00021770       ?get@?$__crt_unique_heap_ptr@U__crt_locale_data@@U__crt_internal_free_policy@@@@QEBAPEAU__crt_locale_data@@XZ 0000000140022770 f i libucrt:wsetlocale.obj
 0001:00021774       ?get@?$__crt_unique_heap_ptr@U__crt_locale_pointers@@U__crt_internal_free_policy@@@@QEBAPEAU__crt_locale_pointers@@XZ 0000000140022774 f i libucrt:wsetlocale.obj
 0001:00021778       ?get@?$__crt_unique_heap_ptr@U__crt_multibyte_data@@U__crt_internal_free_policy@@@@QEBAPEAU__crt_multibyte_data@@XZ 0000000140022778 f i libucrt:wsetlocale.obj
 0001:0002177c       ?is_valid@?$__crt_unique_heap_ptr@U__crt_locale_data@@U__crt_internal_free_policy@@@@QEBA_NXZ 000000014002277c f i libucrt:wsetlocale.obj
 0001:00021788       ?is_valid@?$__crt_unique_heap_ptr@U__crt_locale_pointers@@U__crt_internal_free_policy@@@@QEBA_NXZ 0000000140022788 f i libucrt:wsetlocale.obj
 0001:00021794       ?is_valid@?$__crt_unique_heap_ptr@U__crt_multibyte_data@@U__crt_internal_free_policy@@@@QEBA_NXZ 0000000140022794 f i libucrt:wsetlocale.obj
 0001:000217a0       ?release@?$__crt_unique_heap_ptr@U__crt_locale_data@@U__crt_internal_free_policy@@@@QEAAXXZ 00000001400227a0 f i libucrt:wsetlocale.obj
 0001:000217c4       ?release@?$__crt_unique_heap_ptr@U__crt_locale_pointers@@U__crt_internal_free_policy@@@@QEAAXXZ 00000001400227c4 f i libucrt:wsetlocale.obj
 0001:000217e8       ?release@?$__crt_unique_heap_ptr@U__crt_multibyte_data@@U__crt_internal_free_policy@@@@QEAAXXZ 00000001400227e8 f i libucrt:wsetlocale.obj
 0001:0002180c       ?value@?$dual_state_global@PEAU__crt_locale_data@@@__crt_state_management@@QEAAAEAPEAU__crt_locale_data@@XZ 000000014002280c f i libucrt:wsetlocale.obj
 0001:00021810       __acrt_copy_locale_name    0000000140022810 f   libucrt:wsetlocale.obj
 0001:000218b4       __acrt_disable_global_locale_sync 00000001400228b4 f i libucrt:wsetlocale.obj
 0001:000218bc       __acrt_set_locale_changed  00000001400228bc f   libucrt:wsetlocale.obj
 0001:000218cc       __acrt_uninitialize_locale 00000001400228cc f   libucrt:wsetlocale.obj
 0001:00021908       __ascii_tolower            0000000140022908 f i libucrt:wsetlocale.obj
 0001:0002191c       __ascii_towlower           000000014002291c f i libucrt:wsetlocale.obj
 0001:0002192c       __lc_lctowcs               000000014002292c f   libucrt:wsetlocale.obj
 0001:000219f8       __lc_wcstolc               00000001400229f8 f   libucrt:wsetlocale.obj
 0001:00021bb8       _configthreadlocale        0000000140022bb8 f   libucrt:wsetlocale.obj
 0001:00021d2c       _create_locale             0000000140022d2c f   libucrt:wsetlocale.obj
 0001:00022364       _free_locale               0000000140023364 f   libucrt:wsetlocale.obj
 0001:00022430       _get_current_locale        0000000140023430 f   libucrt:wsetlocale.obj
 0001:00022524       _wcreate_locale            0000000140023524 f   libucrt:wsetlocale.obj
 0001:000226c0       _wcscats                   00000001400236c0 f   libucrt:wsetlocale.obj
 0001:00022744       _wsetlocale                0000000140023744 f   libucrt:wsetlocale.obj
 0001:00023900       _query_new_mode            0000000140024900 f   libucrt:new_mode.obj
 0001:00023910       _set_new_mode              0000000140024910 f   libucrt:new_mode.obj
 0001:0002394c       ?value@?$dual_state_global@J@__crt_state_management@@QEAAAEAJXZ 000000014002494c f i libucrt:new_mode.obj
 0001:00023950       __p__commode               0000000140024950 f   libucrt:ncommode.obj
 0001:0002395c       ??$?B$$A6AXXZ@__crt_fast_encoded_nullptr_t@@QEBAP6AXXZXZ 000000014002495c f i libucrt:onexit.obj
 0001:00023968       ??$?BP6AXXZ@__crt_fast_encoded_nullptr_t@@QEBAPEAP6AXXZXZ 0000000140024968 f i libucrt:onexit.obj
 0001:00023974       ??$?RP6AXXZ@__crt_internal_free_policy@@QEBAXQEBQ6AXXZ@Z 0000000140024974 f i libucrt:onexit.obj
 0001:00023a84       ??$__crt_fast_decode_pointer@P6AXXZ@@YAP6AXXZQ6AXXZ@Z 0000000140024a84 f i libucrt:onexit.obj
 0001:00023aa0       ??$__crt_fast_decode_pointer@PEAP6AXXZ@@YAPEAP6AXXZQEAP6AXXZ@Z 0000000140024aa0 f i libucrt:onexit.obj
 0001:00023abc       ??$__crt_fast_encode_pointer@P6AHXZ@@YAP6AHXZQ6AHXZ@Z 0000000140024abc f i libucrt:onexit.obj
 0001:00023ae4       ??$__crt_fast_encode_pointer@P6AXXZ@@YAP6AXXZQ6AXXZ@Z 0000000140024ae4 f i libucrt:onexit.obj
 0001:00023b0c       ??$__crt_fast_encode_pointer@PEAP6AXXZ@@YAPEAP6AXXZQEAP6AXXZ@Z 0000000140024b0c f i libucrt:onexit.obj
 0001:00023b7c       ??0?$__crt_unique_heap_ptr@P6AXXZU__crt_internal_free_policy@@@@QEAA@QEAP6AXXZ@Z 0000000140024b7c f i libucrt:onexit.obj
 0001:00023b84       ??1?$__crt_unique_heap_ptr@P6AXXZU__crt_internal_free_policy@@@@QEAA@XZ 0000000140024b84 f i libucrt:onexit.obj
 0001:00023ba8       ??1scoped_global_state_reset@__crt_state_management@@QEAA@XZ 0000000140024ba8 f i libucrt:onexit.obj
 0001:00023f44       ?detach@?$__crt_unique_heap_ptr@P6AXXZU__crt_internal_free_policy@@@@QEAAPEAP6AXXZXZ 0000000140024f44 f i libucrt:onexit.obj
 0001:00023f50       ?release@?$__crt_unique_heap_ptr@P6AXXZU__crt_internal_free_policy@@@@QEAAXXZ 0000000140024f50 f i libucrt:onexit.obj
 0001:00023f74       _crt_at_quick_exit         0000000140024f74 f   libucrt:onexit.obj
 0001:00023f88       _crt_atexit                0000000140024f88 f   libucrt:onexit.obj
 0001:00023f9c       _execute_onexit_table      0000000140024f9c f   libucrt:onexit.obj
 0001:00023ff0       _initialize_onexit_table   0000000140024ff0 f   libucrt:onexit.obj
 0001:00024020       _register_onexit_function  0000000140025020 f   libucrt:onexit.obj
 0001:00024200       ??$?BX@__crt_fast_encoded_nullptr_t@@QEBAPEAXXZ 0000000140025200 f i libucrt:initialization.obj
 0001:0002420c       ??$__crt_fast_encode_pointer@PEAX@@YAPEAXQEAX@Z 000000014002520c f i libucrt:initialization.obj
 0001:000242f4       ?__acrt_stdio_is_initialized@@YA_NXZ 00000001400252f4 f i libucrt:initialization.obj
 0001:00024304       ?initialize@?$dual_state_global@PEAU__crt_locale_data@@@__crt_state_management@@QEAAXQEAU__crt_locale_data@@@Z 0000000140025304 f i libucrt:initialization.obj
 0001:00024314       __acrt_initialize          0000000140025314 f   libucrt:initialization.obj
 0001:0002432c       __acrt_thread_attach       000000014002532c f   libucrt:initialization.obj
 0001:00024348       __acrt_thread_detach       0000000140025348 f   libucrt:initialization.obj
 0001:0002435c       __acrt_uninitialize        000000014002535c f   libucrt:initialization.obj
 0001:000243a0       __acrt_uninitialize_critical 00000001400253a0 f   libucrt:initialization.obj
 0001:000243cc       _get_terminate             00000001400253cc f   libucrt:terminate.obj
 0001:000243f8       set_terminate              00000001400253f8 f   libucrt:terminate.obj
 0001:00024430       terminate                  0000000140025430 f   libucrt:terminate.obj
 0001:00024460       free                       0000000140025460 f   libucrt:free.obj
 0001:00024470       malloc                     0000000140025470 f   libucrt:malloc.obj
 0001:00024520       strcpy_s                   0000000140025520 f   libucrt:strcpy_s.obj
 0001:000245c0       _set_abort_behavior        00000001400255c0 f   libucrt:abort.obj
 0001:000245e4       abort                      00000001400255e4 f   libucrt:abort.obj
 0001:00024650       calloc                     0000000140025650 f   libucrt:calloc.obj
 0001:00024658       ??$?0AEBV?$stream_output_adapter@D@__crt_stdio_output@@AEB_KAEBQEBDAEAV__crt_cached_ptd_host@@AEBQEAD@?$format_validation_base@DV?$stream_output_adapter@D@__crt_stdio_output@@@__crt_stdio_output@@IEAA@AEBV?$stream_output_adapter@D@1@AEB_KAEBQEBDAEAV__crt_cached_ptd_host@@AEBQEAD@Z 0000000140025658 f i libucrt:output.obj
 0001:000246e4       ??$?0AEBV?$stream_output_adapter@D@__crt_stdio_output@@AEB_KAEBQEBDAEAV__crt_cached_ptd_host@@AEBQEAD@?$positional_parameter_base@DV?$stream_output_adapter@D@__crt_stdio_output@@@__crt_stdio_output@@IEAA@AEBV?$stream_output_adapter@D@1@AEB_KAEBQEBDAEAV__crt_cached_ptd_host@@AEBQEAD@Z 00000001400256e4 f i libucrt:output.obj
 0001:00024794       ??$?0AEBV?$stream_output_adapter@D@__crt_stdio_output@@AEB_KAEBQEBDAEAV__crt_cached_ptd_host@@AEBQEAD@?$standard_base@DV?$stream_output_adapter@D@__crt_stdio_output@@@__crt_stdio_output@@IEAA@AEBV?$stream_output_adapter@D@1@AEB_KAEBQEBDAEAV__crt_cached_ptd_host@@AEBQEAD@Z 0000000140025794 f i libucrt:output.obj
 0001:00024820       ??$?0AEBV?$stream_output_adapter@_W@__crt_stdio_output@@AEB_KAEBQEB_WAEAV__crt_cached_ptd_host@@AEBQEAD@?$format_validation_base@_WV?$stream_output_adapter@_W@__crt_stdio_output@@@__crt_stdio_output@@IEAA@AEBV?$stream_output_adapter@_W@1@AEB_KAEBQEB_WAEAV__crt_cached_ptd_host@@AEBQEAD@Z 0000000140025820 f i libucrt:output.obj
 0001:000248b4       ??$?0AEBV?$stream_output_adapter@_W@__crt_stdio_output@@AEB_KAEBQEB_WAEAV__crt_cached_ptd_host@@AEBQEAD@?$positional_parameter_base@_WV?$stream_output_adapter@_W@__crt_stdio_output@@@__crt_stdio_output@@IEAA@AEBV?$stream_output_adapter@_W@1@AEB_KAEBQEB_WAEAV__crt_cached_ptd_host@@AEBQEAD@Z 00000001400258b4 f i libucrt:output.obj
 0001:0002496c       ??$?0AEBV?$stream_output_adapter@_W@__crt_stdio_output@@AEB_KAEBQEB_WAEAV__crt_cached_ptd_host@@AEBQEAD@?$standard_base@_WV?$stream_output_adapter@_W@__crt_stdio_output@@@__crt_stdio_output@@IEAA@AEBV?$stream_output_adapter@_W@1@AEB_KAEBQEB_WAEAV__crt_cached_ptd_host@@AEBQEAD@Z 000000014002596c f i libucrt:output.obj
 0001:00024a00       ??$?0AEBV?$string_output_adapter@D@__crt_stdio_output@@AEB_KAEBQEBDAEAV__crt_cached_ptd_host@@AEBQEAD@?$format_validation_base@DV?$string_output_adapter@D@__crt_stdio_output@@@__crt_stdio_output@@IEAA@AEBV?$string_output_adapter@D@1@AEB_KAEBQEBDAEAV__crt_cached_ptd_host@@AEBQEAD@Z 0000000140025a00 f i libucrt:output.obj
 0001:00024a8c       ??$?0AEBV?$string_output_adapter@D@__crt_stdio_output@@AEB_KAEBQEBDAEAV__crt_cached_ptd_host@@AEBQEAD@?$positional_parameter_base@DV?$string_output_adapter@D@__crt_stdio_output@@@__crt_stdio_output@@IEAA@AEBV?$string_output_adapter@D@1@AEB_KAEBQEBDAEAV__crt_cached_ptd_host@@AEBQEAD@Z 0000000140025a8c f i libucrt:output.obj
 0001:00024b3c       ??$?0AEBV?$string_output_adapter@D@__crt_stdio_output@@AEB_KAEBQEBDAEAV__crt_cached_ptd_host@@AEBQEAD@?$standard_base@DV?$string_output_adapter@D@__crt_stdio_output@@@__crt_stdio_output@@IEAA@AEBV?$string_output_adapter@D@1@AEB_KAEBQEBDAEAV__crt_cached_ptd_host@@AEBQEAD@Z 0000000140025b3c f i libucrt:output.obj
 0001:00024bc8       ??$?0AEBV?$string_output_adapter@_W@__crt_stdio_output@@AEB_KAEBQEB_WAEAV__crt_cached_ptd_host@@AEBQEAD@?$format_validation_base@_WV?$string_output_adapter@_W@__crt_stdio_output@@@__crt_stdio_output@@IEAA@AEBV?$string_output_adapter@_W@1@AEB_KAEBQEB_WAEAV__crt_cached_ptd_host@@AEBQEAD@Z 0000000140025bc8 f i libucrt:output.obj
 0001:00024c5c       ??$?0AEBV?$string_output_adapter@_W@__crt_stdio_output@@AEB_KAEBQEB_WAEAV__crt_cached_ptd_host@@AEBQEAD@?$positional_parameter_base@_WV?$string_output_adapter@_W@__crt_stdio_output@@@__crt_stdio_output@@IEAA@AEBV?$string_output_adapter@_W@1@AEB_KAEBQEB_WAEAV__crt_cached_ptd_host@@AEBQEAD@Z 0000000140025c5c f i libucrt:output.obj
 0001:00024d14       ??$?0AEBV?$string_output_adapter@_W@__crt_stdio_output@@AEB_KAEBQEB_WAEAV__crt_cached_ptd_host@@AEBQEAD@?$standard_base@_WV?$string_output_adapter@_W@__crt_stdio_output@@@__crt_stdio_output@@IEAA@AEBV?$string_output_adapter@_W@1@AEB_KAEBQEB_WAEAV__crt_cached_ptd_host@@AEBQEAD@Z 0000000140025d14 f i libucrt:output.obj
 0001:000250a8       ??$_tcstol_internal@DPEAPEAD$0A@@@YAJAEAV__crt_cached_ptd_host@@QEBDQEAPEADH@Z 00000001400260a8 f i libucrt:output.obj
 0001:000250e4       ??$_tcstol_internal@_WPEAPEA_W$0A@@@YAJAEAV__crt_cached_ptd_host@@QEB_WQEAPEA_WH@Z 00000001400260e4 f i libucrt:output.obj
 0001:00026680       ??$count@D@formatting_buffer@__crt_stdio_output@@QEBA_KXZ 0000000140027680 f i libucrt:output.obj
 0001:000266a4       ??$count@_W@formatting_buffer@__crt_stdio_output@@QEBA_KXZ 00000001400276a4 f i libucrt:output.obj
 0001:000266c8       ??$data@D@formatting_buffer@__crt_stdio_output@@QEAAPEADXZ 00000001400276c8 f i libucrt:output.obj
 0001:000266dc       ??$data@_W@formatting_buffer@__crt_stdio_output@@QEAAPEA_WXZ 00000001400276dc f i libucrt:output.obj
 0001:000266f0       ??$ensure_buffer_is_big_enough@D@formatting_buffer@__crt_stdio_output@@QEAA_N_KAEAV__crt_cached_ptd_host@@@Z 00000001400276f0 f i libucrt:output.obj
 0001:000267c4       ??$ensure_buffer_is_big_enough@_W@formatting_buffer@__crt_stdio_output@@QEAA_N_KAEAV__crt_cached_ptd_host@@@Z 00000001400277c4 f i libucrt:output.obj
 0001:0002689c       ??$extract_argument_from_va_list@C_J@?$positional_parameter_base@DV?$stream_output_adapter@D@__crt_stdio_output@@@__crt_stdio_output@@IEAA_NAEA_J@Z 000000014002789c f i libucrt:output.obj
 0001:000269e8       ??$extract_argument_from_va_list@C_J@?$positional_parameter_base@DV?$string_output_adapter@D@__crt_stdio_output@@@__crt_stdio_output@@IEAA_NAEA_J@Z 00000001400279e8 f i libucrt:output.obj
 0001:00026b34       ??$extract_argument_from_va_list@C_J@?$positional_parameter_base@_WV?$stream_output_adapter@_W@__crt_stdio_output@@@__crt_stdio_output@@IEAA_NAEA_J@Z 0000000140027b34 f i libucrt:output.obj
 0001:00026c84       ??$extract_argument_from_va_list@C_J@?$positional_parameter_base@_WV?$string_output_adapter@_W@__crt_stdio_output@@@__crt_stdio_output@@IEAA_NAEA_J@Z 0000000140027c84 f i libucrt:output.obj
 0001:00026dd4       ??$extract_argument_from_va_list@C_J@?$standard_base@DV?$stream_output_adapter@D@__crt_stdio_output@@@__crt_stdio_output@@IEAA_NAEA_J@Z 0000000140027dd4 f i libucrt:output.obj
 0001:00026df0       ??$extract_argument_from_va_list@C_J@?$standard_base@DV?$string_output_adapter@D@__crt_stdio_output@@@__crt_stdio_output@@IEAA_NAEA_J@Z 0000000140027df0 f i libucrt:output.obj
 0001:00026e0c       ??$extract_argument_from_va_list@C_J@?$standard_base@_WV?$stream_output_adapter@_W@__crt_stdio_output@@@__crt_stdio_output@@IEAA_NAEA_J@Z 0000000140027e0c f i libucrt:output.obj
 0001:00026e28       ??$extract_argument_from_va_list@C_J@?$standard_base@_WV?$string_output_adapter@_W@__crt_stdio_output@@@__crt_stdio_output@@IEAA_NAEA_J@Z 0000000140027e28 f i libucrt:output.obj
 0001:00026e44       ??$extract_argument_from_va_list@E_J@?$positional_parameter_base@DV?$stream_output_adapter@D@__crt_stdio_output@@@__crt_stdio_output@@IEAA_NAEA_J@Z 0000000140027e44 f i libucrt:output.obj
 0001:00026f90       ??$extract_argument_from_va_list@E_J@?$positional_parameter_base@DV?$string_output_adapter@D@__crt_stdio_output@@@__crt_stdio_output@@IEAA_NAEA_J@Z 0000000140027f90 f i libucrt:output.obj
 0001:000270dc       ??$extract_argument_from_va_list@E_J@?$positional_parameter_base@_WV?$stream_output_adapter@_W@__crt_stdio_output@@@__crt_stdio_output@@IEAA_NAEA_J@Z 00000001400280dc f i libucrt:output.obj
 0001:00027228       ??$extract_argument_from_va_list@E_J@?$positional_parameter_base@_WV?$string_output_adapter@_W@__crt_stdio_output@@@__crt_stdio_output@@IEAA_NAEA_J@Z 0000000140028228 f i libucrt:output.obj
 0001:00027374       ??$extract_argument_from_va_list@E_J@?$standard_base@DV?$stream_output_adapter@D@__crt_stdio_output@@@__crt_stdio_output@@IEAA_NAEA_J@Z 0000000140028374 f i libucrt:output.obj
 0001:00027390       ??$extract_argument_from_va_list@E_J@?$standard_base@DV?$string_output_adapter@D@__crt_stdio_output@@@__crt_stdio_output@@IEAA_NAEA_J@Z 0000000140028390 f i libucrt:output.obj
 0001:000273ac       ??$extract_argument_from_va_list@E_J@?$standard_base@_WV?$stream_output_adapter@_W@__crt_stdio_output@@@__crt_stdio_output@@IEAA_NAEA_J@Z 00000001400283ac f i libucrt:output.obj
 0001:000273c8       ??$extract_argument_from_va_list@E_J@?$standard_base@_WV?$string_output_adapter@_W@__crt_stdio_output@@@__crt_stdio_output@@IEAA_NAEA_J@Z 00000001400283c8 f i libucrt:output.obj
 0001:000273e4       ??$extract_argument_from_va_list@F_J@?$positional_parameter_base@DV?$stream_output_adapter@D@__crt_stdio_output@@@__crt_stdio_output@@IEAA_NAEA_J@Z 00000001400283e4 f i libucrt:output.obj
 0001:00027530       ??$extract_argument_from_va_list@F_J@?$positional_parameter_base@DV?$string_output_adapter@D@__crt_stdio_output@@@__crt_stdio_output@@IEAA_NAEA_J@Z 0000000140028530 f i libucrt:output.obj
 0001:0002767c       ??$extract_argument_from_va_list@F_J@?$positional_parameter_base@_WV?$stream_output_adapter@_W@__crt_stdio_output@@@__crt_stdio_output@@IEAA_NAEA_J@Z 000000014002867c f i libucrt:output.obj
 0001:000277cc       ??$extract_argument_from_va_list@F_J@?$positional_parameter_base@_WV?$string_output_adapter@_W@__crt_stdio_output@@@__crt_stdio_output@@IEAA_NAEA_J@Z 00000001400287cc f i libucrt:output.obj
 0001:0002791c       ??$extract_argument_from_va_list@F_J@?$standard_base@DV?$stream_output_adapter@D@__crt_stdio_output@@@__crt_stdio_output@@IEAA_NAEA_J@Z 000000014002891c f i libucrt:output.obj
 0001:00027938       ??$extract_argument_from_va_list@F_J@?$standard_base@DV?$string_output_adapter@D@__crt_stdio_output@@@__crt_stdio_output@@IEAA_NAEA_J@Z 0000000140028938 f i libucrt:output.obj
 0001:00027954       ??$extract_argument_from_va_list@F_J@?$standard_base@_WV?$stream_output_adapter@_W@__crt_stdio_output@@@__crt_stdio_output@@IEAA_NAEA_J@Z 0000000140028954 f i libucrt:output.obj
 0001:00027970       ??$extract_argument_from_va_list@F_J@?$standard_base@_WV?$string_output_adapter@_W@__crt_stdio_output@@@__crt_stdio_output@@IEAA_NAEA_J@Z 0000000140028970 f i libucrt:output.obj
 0001:0002798c       ??$extract_argument_from_va_list@GD@?$positional_parameter_base@DV?$stream_output_adapter@D@__crt_stdio_output@@@__crt_stdio_output@@IEAA_NAEAD@Z 000000014002898c f i libucrt:output.obj
 0001:00027ad0       ??$extract_argument_from_va_list@GD@?$positional_parameter_base@DV?$string_output_adapter@D@__crt_stdio_output@@@__crt_stdio_output@@IEAA_NAEAD@Z 0000000140028ad0 f i libucrt:output.obj
 0001:00027c14       ??$extract_argument_from_va_list@GD@?$standard_base@DV?$stream_output_adapter@D@__crt_stdio_output@@@__crt_stdio_output@@IEAA_NAEAD@Z 0000000140028c14 f i libucrt:output.obj
 0001:00027c30       ??$extract_argument_from_va_list@GD@?$standard_base@DV?$string_output_adapter@D@__crt_stdio_output@@@__crt_stdio_output@@IEAA_NAEAD@Z 0000000140028c30 f i libucrt:output.obj
 0001:00027c4c       ??$extract_argument_from_va_list@G_J@?$positional_parameter_base@DV?$stream_output_adapter@D@__crt_stdio_output@@@__crt_stdio_output@@IEAA_NAEA_J@Z 0000000140028c4c f i libucrt:output.obj
 0001:00027d98       ??$extract_argument_from_va_list@G_J@?$positional_parameter_base@DV?$string_output_adapter@D@__crt_stdio_output@@@__crt_stdio_output@@IEAA_NAEA_J@Z 0000000140028d98 f i libucrt:output.obj
 0001:00027ee4       ??$extract_argument_from_va_list@G_J@?$positional_parameter_base@_WV?$stream_output_adapter@_W@__crt_stdio_output@@@__crt_stdio_output@@IEAA_NAEA_J@Z 0000000140028ee4 f i libucrt:output.obj
 0001:00028030       ??$extract_argument_from_va_list@G_J@?$positional_parameter_base@_WV?$string_output_adapter@_W@__crt_stdio_output@@@__crt_stdio_output@@IEAA_NAEA_J@Z 0000000140029030 f i libucrt:output.obj
 0001:0002817c       ??$extract_argument_from_va_list@G_J@?$standard_base@DV?$stream_output_adapter@D@__crt_stdio_output@@@__crt_stdio_output@@IEAA_NAEA_J@Z 000000014002917c f i libucrt:output.obj
 0001:00028198       ??$extract_argument_from_va_list@G_J@?$standard_base@DV?$string_output_adapter@D@__crt_stdio_output@@@__crt_stdio_output@@IEAA_NAEA_J@Z 0000000140029198 f i libucrt:output.obj
 0001:000281b4       ??$extract_argument_from_va_list@G_J@?$standard_base@_WV?$stream_output_adapter@_W@__crt_stdio_output@@@__crt_stdio_output@@IEAA_NAEA_J@Z 00000001400291b4 f i libucrt:output.obj
 0001:000281d0       ??$extract_argument_from_va_list@G_J@?$standard_base@_WV?$string_output_adapter@_W@__crt_stdio_output@@@__crt_stdio_output@@IEAA_NAEA_J@Z 00000001400291d0 f i libucrt:output.obj
 0001:000281ec       ??$extract_argument_from_va_list@H_J@?$positional_parameter_base@DV?$stream_output_adapter@D@__crt_stdio_output@@@__crt_stdio_output@@IEAA_NAEA_J@Z 00000001400291ec f i libucrt:output.obj
 0001:00028334       ??$extract_argument_from_va_list@H_J@?$positional_parameter_base@DV?$string_output_adapter@D@__crt_stdio_output@@@__crt_stdio_output@@IEAA_NAEA_J@Z 0000000140029334 f i libucrt:output.obj
 0001:0002847c       ??$extract_argument_from_va_list@H_J@?$positional_parameter_base@_WV?$stream_output_adapter@_W@__crt_stdio_output@@@__crt_stdio_output@@IEAA_NAEA_J@Z 000000014002947c f i libucrt:output.obj
 0001:000285c8       ??$extract_argument_from_va_list@H_J@?$positional_parameter_base@_WV?$string_output_adapter@_W@__crt_stdio_output@@@__crt_stdio_output@@IEAA_NAEA_J@Z 00000001400295c8 f i libucrt:output.obj
 0001:00028714       ??$extract_argument_from_va_list@H_J@?$standard_base@DV?$stream_output_adapter@D@__crt_stdio_output@@@__crt_stdio_output@@IEAA_NAEA_J@Z 0000000140029714 f i libucrt:output.obj
 0001:00028730       ??$extract_argument_from_va_list@H_J@?$standard_base@DV?$string_output_adapter@D@__crt_stdio_output@@@__crt_stdio_output@@IEAA_NAEA_J@Z 0000000140029730 f i libucrt:output.obj
 0001:0002874c       ??$extract_argument_from_va_list@H_J@?$standard_base@_WV?$stream_output_adapter@_W@__crt_stdio_output@@@__crt_stdio_output@@IEAA_NAEA_J@Z 000000014002974c f i libucrt:output.obj
 0001:00028768       ??$extract_argument_from_va_list@H_J@?$standard_base@_WV?$string_output_adapter@_W@__crt_stdio_output@@@__crt_stdio_output@@IEAA_NAEA_J@Z 0000000140029768 f i libucrt:output.obj
 0001:00028784       ??$extract_argument_from_va_list@I_J@?$positional_parameter_base@DV?$stream_output_adapter@D@__crt_stdio_output@@@__crt_stdio_output@@IEAA_NAEA_J@Z 0000000140029784 f i libucrt:output.obj
 0001:000288cc       ??$extract_argument_from_va_list@I_J@?$positional_parameter_base@DV?$string_output_adapter@D@__crt_stdio_output@@@__crt_stdio_output@@IEAA_NAEA_J@Z 00000001400298cc f i libucrt:output.obj
 0001:00028a14       ??$extract_argument_from_va_list@I_J@?$positional_parameter_base@_WV?$stream_output_adapter@_W@__crt_stdio_output@@@__crt_stdio_output@@IEAA_NAEA_J@Z 0000000140029a14 f i libucrt:output.obj
 0001:00028b60       ??$extract_argument_from_va_list@I_J@?$positional_parameter_base@_WV?$string_output_adapter@_W@__crt_stdio_output@@@__crt_stdio_output@@IEAA_NAEA_J@Z 0000000140029b60 f i libucrt:output.obj
 0001:00028cac       ??$extract_argument_from_va_list@I_J@?$standard_base@DV?$stream_output_adapter@D@__crt_stdio_output@@@__crt_stdio_output@@IEAA_NAEA_J@Z 0000000140029cac f i libucrt:output.obj
 0001:00028cc8       ??$extract_argument_from_va_list@I_J@?$standard_base@DV?$string_output_adapter@D@__crt_stdio_output@@@__crt_stdio_output@@IEAA_NAEA_J@Z 0000000140029cc8 f i libucrt:output.obj
 0001:00028ce4       ??$extract_argument_from_va_list@I_J@?$standard_base@_WV?$stream_output_adapter@_W@__crt_stdio_output@@@__crt_stdio_output@@IEAA_NAEA_J@Z 0000000140029ce4 f i libucrt:output.obj
 0001:00028d00       ??$extract_argument_from_va_list@I_J@?$standard_base@_WV?$string_output_adapter@_W@__crt_stdio_output@@@__crt_stdio_output@@IEAA_NAEA_J@Z 0000000140029d00 f i libucrt:output.obj
 0001:00028d1c       ??$extract_argument_from_va_list@PEADPEAD@?$positional_parameter_base@DV?$stream_output_adapter@D@__crt_stdio_output@@@__crt_stdio_output@@IEAA_NAEAPEAD@Z 0000000140029d1c f i libucrt:output.obj
 0001:00028e64       ??$extract_argument_from_va_list@PEADPEAD@?$positional_parameter_base@DV?$string_output_adapter@D@__crt_stdio_output@@@__crt_stdio_output@@IEAA_NAEAPEAD@Z 0000000140029e64 f i libucrt:output.obj
 0001:00028fac       ??$extract_argument_from_va_list@PEADPEAD@?$positional_parameter_base@_WV?$stream_output_adapter@_W@__crt_stdio_output@@@__crt_stdio_output@@IEAA_NAEAPEAD@Z 0000000140029fac f i libucrt:output.obj
 0001:000290f8       ??$extract_argument_from_va_list@PEADPEAD@?$positional_parameter_base@_WV?$string_output_adapter@_W@__crt_stdio_output@@@__crt_stdio_output@@IEAA_NAEAPEAD@Z 000000014002a0f8 f i libucrt:output.obj
 0001:00029244       ??$extract_argument_from_va_list@PEADPEAD@?$standard_base@DV?$stream_output_adapter@D@__crt_stdio_output@@@__crt_stdio_output@@IEAA_NAEAPEAD@Z 000000014002a244 f i libucrt:output.obj
 0001:00029260       ??$extract_argument_from_va_list@PEADPEAD@?$standard_base@DV?$string_output_adapter@D@__crt_stdio_output@@@__crt_stdio_output@@IEAA_NAEAPEAD@Z 000000014002a260 f i libucrt:output.obj
 0001:0002927c       ??$extract_argument_from_va_list@PEADPEAD@?$standard_base@_WV?$stream_output_adapter@_W@__crt_stdio_output@@@__crt_stdio_output@@IEAA_NAEAPEAD@Z 000000014002a27c f i libucrt:output.obj
 0001:00029298       ??$extract_argument_from_va_list@PEADPEAD@?$standard_base@_WV?$string_output_adapter@_W@__crt_stdio_output@@@__crt_stdio_output@@IEAA_NAEAPEAD@Z 000000014002a298 f i libucrt:output.obj
 0001:000292b4       ??$extract_argument_from_va_list@PEAUansi_string@?1??type_case_Z@?$output_processor@DV?$stream_output_adapter@D@__crt_stdio_output@@V?$format_validation_base@DV?$stream_output_adapter@D@__crt_stdio_output@@@2@@__crt_stdio_output@@AEAA_NXZ@PEAU1?1??234@AEAA_NXZ@@?$standard_base@DV?$stream_output_adapter@D@__crt_stdio_output@@@__crt_stdio_output@@IEAA_NAEAPEAUansi_string@?1??type_case_Z@?$output_processor@DV?$stream_output_adapter@D@__crt_stdio_output@@V?$format_validation_base@DV?$stream_output_adapter@D@__crt_stdio_output@@@2@@1@AEAA_NXZ@@Z 000000014002a2b4 f i libucrt:output.obj
 0001:000292d0       ??$extract_argument_from_va_list@PEAUansi_string@?1??type_case_Z@?$output_processor@DV?$stream_output_adapter@D@__crt_stdio_output@@V?$positional_parameter_base@DV?$stream_output_adapter@D@__crt_stdio_output@@@2@@__crt_stdio_output@@AEAA_NXZ@PEAU1?1??234@AEAA_NXZ@@?$positional_parameter_base@DV?$stream_output_adapter@D@__crt_stdio_output@@@__crt_stdio_output@@IEAA_NAEAPEAUansi_string@?1??type_case_Z@?$output_processor@DV?$stream_output_adapter@D@__crt_stdio_output@@V?$positional_parameter_base@DV?$stream_output_adapter@D@__crt_stdio_output@@@2@@1@AEAA_NXZ@@Z 000000014002a2d0 f i libucrt:output.obj
 0001:00029418       ??$extract_argument_from_va_list@PEAUansi_string@?1??type_case_Z@?$output_processor@DV?$stream_output_adapter@D@__crt_stdio_output@@V?$positional_parameter_base@DV?$stream_output_adapter@D@__crt_stdio_output@@@2@@__crt_stdio_output@@AEAA_NXZ@PEAU1?1??234@AEAA_NXZ@@?$standard_base@DV?$stream_output_adapter@D@__crt_stdio_output@@@__crt_stdio_output@@IEAA_NAEAPEAUansi_string@?1??type_case_Z@?$output_processor@DV?$stream_output_adapter@D@__crt_stdio_output@@V?$positional_parameter_base@DV?$stream_output_adapter@D@__crt_stdio_output@@@2@@1@AEAA_NXZ@@Z 000000014002a418 f i libucrt:output.obj
 0001:00029434       ??$extract_argument_from_va_list@PEAUansi_string@?1??type_case_Z@?$output_processor@DV?$stream_output_adapter@D@__crt_stdio_output@@V?$standard_base@DV?$stream_output_adapter@D@__crt_stdio_output@@@2@@__crt_stdio_output@@AEAA_NXZ@PEAU1?1??234@AEAA_NXZ@@?$standard_base@DV?$stream_output_adapter@D@__crt_stdio_output@@@__crt_stdio_output@@IEAA_NAEAPEAUansi_string@?1??type_case_Z@?$output_processor@DV?$stream_output_adapter@D@__crt_stdio_output@@V?$standard_base@DV?$stream_output_adapter@D@__crt_stdio_output@@@2@@1@AEAA_NXZ@@Z 000000014002a434 f i libucrt:output.obj
 0001:00029450       ??$extract_argument_from_va_list@PEAUansi_string@?1??type_case_Z@?$output_processor@DV?$string_output_adapter@D@__crt_stdio_output@@V?$format_validation_base@DV?$string_output_adapter@D@__crt_stdio_output@@@2@@__crt_stdio_output@@AEAA_NXZ@PEAU1?1??234@AEAA_NXZ@@?$standard_base@DV?$string_output_adapter@D@__crt_stdio_output@@@__crt_stdio_output@@IEAA_NAEAPEAUansi_string@?1??type_case_Z@?$output_processor@DV?$string_output_adapter@D@__crt_stdio_output@@V?$format_validation_base@DV?$string_output_adapter@D@__crt_stdio_output@@@2@@1@AEAA_NXZ@@Z 000000014002a450 f i libucrt:output.obj
 0001:0002946c       ??$extract_argument_from_va_list@PEAUansi_string@?1??type_case_Z@?$output_processor@DV?$string_output_adapter@D@__crt_stdio_output@@V?$positional_parameter_base@DV?$string_output_adapter@D@__crt_stdio_output@@@2@@__crt_stdio_output@@AEAA_NXZ@PEAU1?1??234@AEAA_NXZ@@?$positional_parameter_base@DV?$string_output_adapter@D@__crt_stdio_output@@@__crt_stdio_output@@IEAA_NAEAPEAUansi_string@?1??type_case_Z@?$output_processor@DV?$string_output_adapter@D@__crt_stdio_output@@V?$positional_parameter_base@DV?$string_output_adapter@D@__crt_stdio_output@@@2@@1@AEAA_NXZ@@Z 000000014002a46c f i libucrt:output.obj
 0001:000295b4       ??$extract_argument_from_va_list@PEAUansi_string@?1??type_case_Z@?$output_processor@DV?$string_output_adapter@D@__crt_stdio_output@@V?$positional_parameter_base@DV?$string_output_adapter@D@__crt_stdio_output@@@2@@__crt_stdio_output@@AEAA_NXZ@PEAU1?1??234@AEAA_NXZ@@?$standard_base@DV?$string_output_adapter@D@__crt_stdio_output@@@__crt_stdio_output@@IEAA_NAEAPEAUansi_string@?1??type_case_Z@?$output_processor@DV?$string_output_adapter@D@__crt_stdio_output@@V?$positional_parameter_base@DV?$string_output_adapter@D@__crt_stdio_output@@@2@@1@AEAA_NXZ@@Z 000000014002a5b4 f i libucrt:output.obj
 0001:000295d0       ??$extract_argument_from_va_list@PEAUansi_string@?1??type_case_Z@?$output_processor@DV?$string_output_adapter@D@__crt_stdio_output@@V?$standard_base@DV?$string_output_adapter@D@__crt_stdio_output@@@2@@__crt_stdio_output@@AEAA_NXZ@PEAU1?1??234@AEAA_NXZ@@?$standard_base@DV?$string_output_adapter@D@__crt_stdio_output@@@__crt_stdio_output@@IEAA_NAEAPEAUansi_string@?1??type_case_Z@?$output_processor@DV?$string_output_adapter@D@__crt_stdio_output@@V?$standard_base@DV?$string_output_adapter@D@__crt_stdio_output@@@2@@1@AEAA_NXZ@@Z 000000014002a5d0 f i libucrt:output.obj
 0001:000295ec       ??$extract_argument_from_va_list@PEAUansi_string@?1??type_case_Z@?$output_processor@_WV?$stream_output_adapter@_W@__crt_stdio_output@@V?$format_validation_base@_WV?$stream_output_adapter@_W@__crt_stdio_output@@@2@@__crt_stdio_output@@AEAA_NXZ@PEAU1?1??234@AEAA_NXZ@@?$standard_base@_WV?$stream_output_adapter@_W@__crt_stdio_output@@@__crt_stdio_output@@IEAA_NAEAPEAUansi_string@?1??type_case_Z@?$output_processor@_WV?$stream_output_adapter@_W@__crt_stdio_output@@V?$format_validation_base@_WV?$stream_output_adapter@_W@__crt_stdio_output@@@2@@1@AEAA_NXZ@@Z 000000014002a5ec f i libucrt:output.obj
 0001:00029608       ??$extract_argument_from_va_list@PEAUansi_string@?1??type_case_Z@?$output_processor@_WV?$stream_output_adapter@_W@__crt_stdio_output@@V?$positional_parameter_base@_WV?$stream_output_adapter@_W@__crt_stdio_output@@@2@@__crt_stdio_output@@AEAA_NXZ@PEAU1?1??234@AEAA_NXZ@@?$positional_parameter_base@_WV?$stream_output_adapter@_W@__crt_stdio_output@@@__crt_stdio_output@@IEAA_NAEAPEAUansi_string@?1??type_case_Z@?$output_processor@_WV?$stream_output_adapter@_W@__crt_stdio_output@@V?$positional_parameter_base@_WV?$stream_output_adapter@_W@__crt_stdio_output@@@2@@1@AEAA_NXZ@@Z 000000014002a608 f i libucrt:output.obj
 0001:00029754       ??$extract_argument_from_va_list@PEAUansi_string@?1??type_case_Z@?$output_processor@_WV?$stream_output_adapter@_W@__crt_stdio_output@@V?$positional_parameter_base@_WV?$stream_output_adapter@_W@__crt_stdio_output@@@2@@__crt_stdio_output@@AEAA_NXZ@PEAU1?1??234@AEAA_NXZ@@?$standard_base@_WV?$stream_output_adapter@_W@__crt_stdio_output@@@__crt_stdio_output@@IEAA_NAEAPEAUansi_string@?1??type_case_Z@?$output_processor@_WV?$stream_output_adapter@_W@__crt_stdio_output@@V?$positional_parameter_base@_WV?$stream_output_adapter@_W@__crt_stdio_output@@@2@@1@AEAA_NXZ@@Z 000000014002a754 f i libucrt:output.obj
 0001:00029770       ??$extract_argument_from_va_list@PEAUansi_string@?1??type_case_Z@?$output_processor@_WV?$stream_output_adapter@_W@__crt_stdio_output@@V?$standard_base@_WV?$stream_output_adapter@_W@__crt_stdio_output@@@2@@__crt_stdio_output@@AEAA_NXZ@PEAU1?1??234@AEAA_NXZ@@?$standard_base@_WV?$stream_output_adapter@_W@__crt_stdio_output@@@__crt_stdio_output@@IEAA_NAEAPEAUansi_string@?1??type_case_Z@?$output_processor@_WV?$stream_output_adapter@_W@__crt_stdio_output@@V?$standard_base@_WV?$stream_output_adapter@_W@__crt_stdio_output@@@2@@1@AEAA_NXZ@@Z 000000014002a770 f i libucrt:output.obj
 0001:0002978c       ??$extract_argument_from_va_list@PEAUansi_string@?1??type_case_Z@?$output_processor@_WV?$string_output_adapter@_W@__crt_stdio_output@@V?$format_validation_base@_WV?$string_output_adapter@_W@__crt_stdio_output@@@2@@__crt_stdio_output@@AEAA_NXZ@PEAU1?1??234@AEAA_NXZ@@?$standard_base@_WV?$string_output_adapter@_W@__crt_stdio_output@@@__crt_stdio_output@@IEAA_NAEAPEAUansi_string@?1??type_case_Z@?$output_processor@_WV?$string_output_adapter@_W@__crt_stdio_output@@V?$format_validation_base@_WV?$string_output_adapter@_W@__crt_stdio_output@@@2@@1@AEAA_NXZ@@Z 000000014002a78c f i libucrt:output.obj
 0001:000297a8       ??$extract_argument_from_va_list@PEAUansi_string@?1??type_case_Z@?$output_processor@_WV?$string_output_adapter@_W@__crt_stdio_output@@V?$positional_parameter_base@_WV?$string_output_adapter@_W@__crt_stdio_output@@@2@@__crt_stdio_output@@AEAA_NXZ@PEAU1?1??234@AEAA_NXZ@@?$positional_parameter_base@_WV?$string_output_adapter@_W@__crt_stdio_output@@@__crt_stdio_output@@IEAA_NAEAPEAUansi_string@?1??type_case_Z@?$output_processor@_WV?$string_output_adapter@_W@__crt_stdio_output@@V?$positional_parameter_base@_WV?$string_output_adapter@_W@__crt_stdio_output@@@2@@1@AEAA_NXZ@@Z 000000014002a7a8 f i libucrt:output.obj
 0001:000298f4       ??$extract_argument_from_va_list@PEAUansi_string@?1??type_case_Z@?$output_processor@_WV?$string_output_adapter@_W@__crt_stdio_output@@V?$positional_parameter_base@_WV?$string_output_adapter@_W@__crt_stdio_output@@@2@@__crt_stdio_output@@AEAA_NXZ@PEAU1?1??234@AEAA_NXZ@@?$standard_base@_WV?$string_output_adapter@_W@__crt_stdio_output@@@__crt_stdio_output@@IEAA_NAEAPEAUansi_string@?1??type_case_Z@?$output_processor@_WV?$string_output_adapter@_W@__crt_stdio_output@@V?$positional_parameter_base@_WV?$string_output_adapter@_W@__crt_stdio_output@@@2@@1@AEAA_NXZ@@Z 000000014002a8f4 f i libucrt:output.obj
 0001:00029910       ??$extract_argument_from_va_list@PEAUansi_string@?1??type_case_Z@?$output_processor@_WV?$string_output_adapter@_W@__crt_stdio_output@@V?$standard_base@_WV?$string_output_adapter@_W@__crt_stdio_output@@@2@@__crt_stdio_output@@AEAA_NXZ@PEAU1?1??234@AEAA_NXZ@@?$standard_base@_WV?$string_output_adapter@_W@__crt_stdio_output@@@__crt_stdio_output@@IEAA_NAEAPEAUansi_string@?1??type_case_Z@?$output_processor@_WV?$string_output_adapter@_W@__crt_stdio_output@@V?$standard_base@_WV?$string_output_adapter@_W@__crt_stdio_output@@@2@@1@AEAA_NXZ@@Z 000000014002a910 f i libucrt:output.obj
 0001:0002992c       ??$extract_argument_from_va_list@PEAXPEAX@?$positional_parameter_base@DV?$stream_output_adapter@D@__crt_stdio_output@@@__crt_stdio_output@@IEAA_NAEAPEAX@Z 000000014002a92c f i libucrt:output.obj
 0001:00029a74       ??$extract_argument_from_va_list@PEAXPEAX@?$positional_parameter_base@DV?$string_output_adapter@D@__crt_stdio_output@@@__crt_stdio_output@@IEAA_NAEAPEAX@Z 000000014002aa74 f i libucrt:output.obj
 0001:00029bbc       ??$extract_argument_from_va_list@PEAXPEAX@?$positional_parameter_base@_WV?$stream_output_adapter@_W@__crt_stdio_output@@@__crt_stdio_output@@IEAA_NAEAPEAX@Z 000000014002abbc f i libucrt:output.obj
 0001:00029d08       ??$extract_argument_from_va_list@PEAXPEAX@?$positional_parameter_base@_WV?$string_output_adapter@_W@__crt_stdio_output@@@__crt_stdio_output@@IEAA_NAEAPEAX@Z 000000014002ad08 f i libucrt:output.obj
 0001:00029e54       ??$extract_argument_from_va_list@PEAXPEAX@?$standard_base@DV?$stream_output_adapter@D@__crt_stdio_output@@@__crt_stdio_output@@IEAA_NAEAPEAX@Z 000000014002ae54 f i libucrt:output.obj
 0001:00029e70       ??$extract_argument_from_va_list@PEAXPEAX@?$standard_base@DV?$string_output_adapter@D@__crt_stdio_output@@@__crt_stdio_output@@IEAA_NAEAPEAX@Z 000000014002ae70 f i libucrt:output.obj
 0001:00029e8c       ??$extract_argument_from_va_list@PEAXPEAX@?$standard_base@_WV?$stream_output_adapter@_W@__crt_stdio_output@@@__crt_stdio_output@@IEAA_NAEAPEAX@Z 000000014002ae8c f i libucrt:output.obj
 0001:00029ea8       ??$extract_argument_from_va_list@PEAXPEAX@?$standard_base@_WV?$string_output_adapter@_W@__crt_stdio_output@@@__crt_stdio_output@@IEAA_NAEAPEAX@Z 000000014002aea8 f i libucrt:output.obj
 0001:00029ec4       ??$extract_argument_from_va_list@U_CRT_DOUBLE@@U1@@?$positional_parameter_base@DV?$stream_output_adapter@D@__crt_stdio_output@@@__crt_stdio_output@@IEAA_NAEAU_CRT_DOUBLE@@@Z 000000014002aec4 f i libucrt:output.obj
 0001:0002a010       ??$extract_argument_from_va_list@U_CRT_DOUBLE@@U1@@?$positional_parameter_base@DV?$string_output_adapter@D@__crt_stdio_output@@@__crt_stdio_output@@IEAA_NAEAU_CRT_DOUBLE@@@Z 000000014002b010 f i libucrt:output.obj
 0001:0002a15c       ??$extract_argument_from_va_list@U_CRT_DOUBLE@@U1@@?$positional_parameter_base@_WV?$stream_output_adapter@_W@__crt_stdio_output@@@__crt_stdio_output@@IEAA_NAEAU_CRT_DOUBLE@@@Z 000000014002b15c f i libucrt:output.obj
 0001:0002a2a8       ??$extract_argument_from_va_list@U_CRT_DOUBLE@@U1@@?$positional_parameter_base@_WV?$string_output_adapter@_W@__crt_stdio_output@@@__crt_stdio_output@@IEAA_NAEAU_CRT_DOUBLE@@@Z 000000014002b2a8 f i libucrt:output.obj
 0001:0002a3f4       ??$extract_argument_from_va_list@U_CRT_DOUBLE@@U1@@?$standard_base@DV?$stream_output_adapter@D@__crt_stdio_output@@@__crt_stdio_output@@IEAA_NAEAU_CRT_DOUBLE@@@Z 000000014002b3f4 f i libucrt:output.obj
 0001:0002a414       ??$extract_argument_from_va_list@U_CRT_DOUBLE@@U1@@?$standard_base@DV?$string_output_adapter@D@__crt_stdio_output@@@__crt_stdio_output@@IEAA_NAEAU_CRT_DOUBLE@@@Z 000000014002b414 f i libucrt:output.obj
 0001:0002a434       ??$extract_argument_from_va_list@U_CRT_DOUBLE@@U1@@?$standard_base@_WV?$stream_output_adapter@_W@__crt_stdio_output@@@__crt_stdio_output@@IEAA_NAEAU_CRT_DOUBLE@@@Z 000000014002b434 f i libucrt:output.obj
 0001:0002a454       ??$extract_argument_from_va_list@U_CRT_DOUBLE@@U1@@?$standard_base@_WV?$string_output_adapter@_W@__crt_stdio_output@@@__crt_stdio_output@@IEAA_NAEAU_CRT_DOUBLE@@@Z 000000014002b454 f i libucrt:output.obj
 0001:0002a474       ??$extract_argument_from_va_list@_J_J@?$positional_parameter_base@DV?$stream_output_adapter@D@__crt_stdio_output@@@__crt_stdio_output@@IEAA_NAEA_J@Z 000000014002b474 f i libucrt:output.obj
 0001:0002a5bc       ??$extract_argument_from_va_list@_J_J@?$positional_parameter_base@DV?$string_output_adapter@D@__crt_stdio_output@@@__crt_stdio_output@@IEAA_NAEA_J@Z 000000014002b5bc f i libucrt:output.obj
 0001:0002a704       ??$extract_argument_from_va_list@_J_J@?$positional_parameter_base@_WV?$stream_output_adapter@_W@__crt_stdio_output@@@__crt_stdio_output@@IEAA_NAEA_J@Z 000000014002b704 f i libucrt:output.obj
 0001:0002a850       ??$extract_argument_from_va_list@_J_J@?$positional_parameter_base@_WV?$string_output_adapter@_W@__crt_stdio_output@@@__crt_stdio_output@@IEAA_NAEA_J@Z 000000014002b850 f i libucrt:output.obj
 0001:0002a99c       ??$extract_argument_from_va_list@_J_J@?$standard_base@DV?$stream_output_adapter@D@__crt_stdio_output@@@__crt_stdio_output@@IEAA_NAEA_J@Z 000000014002b99c f i libucrt:output.obj
 0001:0002a9b8       ??$extract_argument_from_va_list@_J_J@?$standard_base@DV?$string_output_adapter@D@__crt_stdio_output@@@__crt_stdio_output@@IEAA_NAEA_J@Z 000000014002b9b8 f i libucrt:output.obj
 0001:0002a9d4       ??$extract_argument_from_va_list@_J_J@?$standard_base@_WV?$stream_output_adapter@_W@__crt_stdio_output@@@__crt_stdio_output@@IEAA_NAEA_J@Z 000000014002b9d4 f i libucrt:output.obj
 0001:0002a9f0       ??$extract_argument_from_va_list@_J_J@?$standard_base@_WV?$string_output_adapter@_W@__crt_stdio_output@@@__crt_stdio_output@@IEAA_NAEA_J@Z 000000014002b9f0 f i libucrt:output.obj
 0001:0002aa0c       ??$extract_argument_from_va_list@_K_J@?$positional_parameter_base@DV?$stream_output_adapter@D@__crt_stdio_output@@@__crt_stdio_output@@IEAA_NAEA_J@Z 000000014002ba0c f i libucrt:output.obj
 0001:0002ab54       ??$extract_argument_from_va_list@_K_J@?$positional_parameter_base@DV?$string_output_adapter@D@__crt_stdio_output@@@__crt_stdio_output@@IEAA_NAEA_J@Z 000000014002bb54 f i libucrt:output.obj
 0001:0002ac9c       ??$extract_argument_from_va_list@_K_J@?$positional_parameter_base@_WV?$stream_output_adapter@_W@__crt_stdio_output@@@__crt_stdio_output@@IEAA_NAEA_J@Z 000000014002bc9c f i libucrt:output.obj
 0001:0002ade8       ??$extract_argument_from_va_list@_K_J@?$positional_parameter_base@_WV?$string_output_adapter@_W@__crt_stdio_output@@@__crt_stdio_output@@IEAA_NAEA_J@Z 000000014002bde8 f i libucrt:output.obj
 0001:0002af34       ??$extract_argument_from_va_list@_K_J@?$standard_base@DV?$stream_output_adapter@D@__crt_stdio_output@@@__crt_stdio_output@@IEAA_NAEA_J@Z 000000014002bf34 f i libucrt:output.obj
 0001:0002af50       ??$extract_argument_from_va_list@_K_J@?$standard_base@DV?$string_output_adapter@D@__crt_stdio_output@@@__crt_stdio_output@@IEAA_NAEA_J@Z 000000014002bf50 f i libucrt:output.obj
 0001:0002af6c       ??$extract_argument_from_va_list@_K_J@?$standard_base@_WV?$stream_output_adapter@_W@__crt_stdio_output@@@__crt_stdio_output@@IEAA_NAEA_J@Z 000000014002bf6c f i libucrt:output.obj
 0001:0002af88       ??$extract_argument_from_va_list@_K_J@?$standard_base@_WV?$string_output_adapter@_W@__crt_stdio_output@@@__crt_stdio_output@@IEAA_NAEA_J@Z 000000014002bf88 f i libucrt:output.obj
 0001:0002afa4       ??$extract_argument_from_va_list@_W_W@?$positional_parameter_base@DV?$stream_output_adapter@D@__crt_stdio_output@@@__crt_stdio_output@@IEAA_NAEA_W@Z 000000014002bfa4 f i libucrt:output.obj
 0001:0002b0ec       ??$extract_argument_from_va_list@_W_W@?$positional_parameter_base@DV?$string_output_adapter@D@__crt_stdio_output@@@__crt_stdio_output@@IEAA_NAEA_W@Z 000000014002c0ec f i libucrt:output.obj
 0001:0002b234       ??$extract_argument_from_va_list@_W_W@?$positional_parameter_base@_WV?$stream_output_adapter@_W@__crt_stdio_output@@@__crt_stdio_output@@IEAA_NAEA_W@Z 000000014002c234 f i libucrt:output.obj
 0001:0002b380       ??$extract_argument_from_va_list@_W_W@?$positional_parameter_base@_WV?$string_output_adapter@_W@__crt_stdio_output@@@__crt_stdio_output@@IEAA_NAEA_W@Z 000000014002c380 f i libucrt:output.obj
 0001:0002b4cc       ??$extract_argument_from_va_list@_W_W@?$standard_base@DV?$stream_output_adapter@D@__crt_stdio_output@@@__crt_stdio_output@@IEAA_NAEA_W@Z 000000014002c4cc f i libucrt:output.obj
 0001:0002b4e8       ??$extract_argument_from_va_list@_W_W@?$standard_base@DV?$string_output_adapter@D@__crt_stdio_output@@@__crt_stdio_output@@IEAA_NAEA_W@Z 000000014002c4e8 f i libucrt:output.obj
 0001:0002b504       ??$extract_argument_from_va_list@_W_W@?$standard_base@_WV?$stream_output_adapter@_W@__crt_stdio_output@@@__crt_stdio_output@@IEAA_NAEA_W@Z 000000014002c504 f i libucrt:output.obj
 0001:0002b520       ??$extract_argument_from_va_list@_W_W@?$standard_base@_WV?$string_output_adapter@_W@__crt_stdio_output@@@__crt_stdio_output@@IEAA_NAEA_W@Z 000000014002c520 f i libucrt:output.obj
 0001:0002b53c       ??$get_parameter_type@D@?$positional_parameter_base@DV?$stream_output_adapter@D@__crt_stdio_output@@@__crt_stdio_output@@CA?AW4parameter_type@01@PEAD@Z 000000014002c53c f i libucrt:output.obj
 0001:0002b544       ??$get_parameter_type@D@?$positional_parameter_base@DV?$string_output_adapter@D@__crt_stdio_output@@@__crt_stdio_output@@CA?AW4parameter_type@01@PEAD@Z 000000014002c544 f i libucrt:output.obj
 0001:0002b54c       ??$get_parameter_type@D@?$positional_parameter_base@_WV?$stream_output_adapter@_W@__crt_stdio_output@@@__crt_stdio_output@@CA?AW4parameter_type@01@PEAD@Z 000000014002c54c f i libucrt:output.obj
 0001:0002b554       ??$get_parameter_type@D@?$positional_parameter_base@_WV?$string_output_adapter@_W@__crt_stdio_output@@@__crt_stdio_output@@CA?AW4parameter_type@01@PEAD@Z 000000014002c554 f i libucrt:output.obj
 0001:0002b55c       ??$get_parameter_type@Uansi_string@?1??type_case_Z@?$output_processor@DV?$stream_output_adapter@D@__crt_stdio_output@@V?$positional_parameter_base@DV?$stream_output_adapter@D@__crt_stdio_output@@@2@@__crt_stdio_output@@AEAA_NXZ@@?$positional_parameter_base@DV?$stream_output_adapter@D@__crt_stdio_output@@@__crt_stdio_output@@CA?AW4parameter_type@01@PEAUansi_string@?1??type_case_Z@?$output_processor@DV?$stream_output_adapter@D@__crt_stdio_output@@V?$positional_parameter_base@DV?$stream_output_adapter@D@__crt_stdio_output@@@2@@1@AEAA_NXZ@@Z 000000014002c55c f i libucrt:output.obj
 0001:0002b564       ??$get_parameter_type@Uansi_string@?1??type_case_Z@?$output_processor@DV?$string_output_adapter@D@__crt_stdio_output@@V?$positional_parameter_base@DV?$string_output_adapter@D@__crt_stdio_output@@@2@@__crt_stdio_output@@AEAA_NXZ@@?$positional_parameter_base@DV?$string_output_adapter@D@__crt_stdio_output@@@__crt_stdio_output@@CA?AW4parameter_type@01@PEAUansi_string@?1??type_case_Z@?$output_processor@DV?$string_output_adapter@D@__crt_stdio_output@@V?$positional_parameter_base@DV?$string_output_adapter@D@__crt_stdio_output@@@2@@1@AEAA_NXZ@@Z 000000014002c564 f i libucrt:output.obj
 0001:0002b56c       ??$get_parameter_type@Uansi_string@?1??type_case_Z@?$output_processor@_WV?$stream_output_adapter@_W@__crt_stdio_output@@V?$positional_parameter_base@_WV?$stream_output_adapter@_W@__crt_stdio_output@@@2@@__crt_stdio_output@@AEAA_NXZ@@?$positional_parameter_base@_WV?$stream_output_adapter@_W@__crt_stdio_output@@@__crt_stdio_output@@CA?AW4parameter_type@01@PEAUansi_string@?1??type_case_Z@?$output_processor@_WV?$stream_output_adapter@_W@__crt_stdio_output@@V?$positional_parameter_base@_WV?$stream_output_adapter@_W@__crt_stdio_output@@@2@@1@AEAA_NXZ@@Z 000000014002c56c f i libucrt:output.obj
 0001:0002b574       ??$get_parameter_type@Uansi_string@?1??type_case_Z@?$output_processor@_WV?$string_output_adapter@_W@__crt_stdio_output@@V?$positional_parameter_base@_WV?$string_output_adapter@_W@__crt_stdio_output@@@2@@__crt_stdio_output@@AEAA_NXZ@@?$positional_parameter_base@_WV?$string_output_adapter@_W@__crt_stdio_output@@@__crt_stdio_output@@CA?AW4parameter_type@01@PEAUansi_string@?1??type_case_Z@?$output_processor@_WV?$string_output_adapter@_W@__crt_stdio_output@@V?$positional_parameter_base@_WV?$string_output_adapter@_W@__crt_stdio_output@@@2@@1@AEAA_NXZ@@Z 000000014002c574 f i libucrt:output.obj
 0001:0002b57c       ??$get_parameter_type@X@?$positional_parameter_base@DV?$stream_output_adapter@D@__crt_stdio_output@@@__crt_stdio_output@@CA?AW4parameter_type@01@PEAX@Z 000000014002c57c f i libucrt:output.obj
 0001:0002b584       ??$get_parameter_type@X@?$positional_parameter_base@DV?$string_output_adapter@D@__crt_stdio_output@@@__crt_stdio_output@@CA?AW4parameter_type@01@PEAX@Z 000000014002c584 f i libucrt:output.obj
 0001:0002b58c       ??$get_parameter_type@X@?$positional_parameter_base@_WV?$stream_output_adapter@_W@__crt_stdio_output@@@__crt_stdio_output@@CA?AW4parameter_type@01@PEAX@Z 000000014002c58c f i libucrt:output.obj
 0001:0002b594       ??$get_parameter_type@X@?$positional_parameter_base@_WV?$string_output_adapter@_W@__crt_stdio_output@@@__crt_stdio_output@@CA?AW4parameter_type@01@PEAX@Z 000000014002c594 f i libucrt:output.obj
 0001:0002b59c       ??$is_character_specifier@D@?$positional_parameter_base@DV?$stream_output_adapter@D@__crt_stdio_output@@@__crt_stdio_output@@CA_ND@Z 000000014002c59c f i libucrt:output.obj
 0001:0002b5a8       ??$is_character_specifier@D@?$positional_parameter_base@DV?$string_output_adapter@D@__crt_stdio_output@@@__crt_stdio_output@@CA_ND@Z 000000014002c5a8 f i libucrt:output.obj
 0001:0002b5b4       ??$is_character_specifier@_W@?$positional_parameter_base@_WV?$stream_output_adapter@_W@__crt_stdio_output@@@__crt_stdio_output@@CA_N_W@Z 000000014002c5b4 f i libucrt:output.obj
 0001:0002b5c8       ??$is_character_specifier@_W@?$positional_parameter_base@_WV?$string_output_adapter@_W@__crt_stdio_output@@@__crt_stdio_output@@CA_N_W@Z 000000014002c5c8 f i libucrt:output.obj
 0001:0002b5dc       ??$is_integral_specifier@D@?$positional_parameter_base@DV?$stream_output_adapter@D@__crt_stdio_output@@@__crt_stdio_output@@CA_ND@Z 000000014002c5dc f i libucrt:output.obj
 0001:0002b608       ??$is_integral_specifier@D@?$positional_parameter_base@DV?$string_output_adapter@D@__crt_stdio_output@@@__crt_stdio_output@@CA_ND@Z 000000014002c608 f i libucrt:output.obj
 0001:0002b634       ??$is_integral_specifier@_W@?$positional_parameter_base@_WV?$stream_output_adapter@_W@__crt_stdio_output@@@__crt_stdio_output@@CA_N_W@Z 000000014002c634 f i libucrt:output.obj
 0001:0002b664       ??$is_integral_specifier@_W@?$positional_parameter_base@_WV?$string_output_adapter@_W@__crt_stdio_output@@@__crt_stdio_output@@CA_N_W@Z 000000014002c664 f i libucrt:output.obj
 0001:0002b694       ??$is_overflow_condition@K@__crt_strtox@@YA_NIK@Z 000000014002c694 f i libucrt:output.obj
 0001:0002b6c4       ??$is_pointer_specifier@D@?$positional_parameter_base@DV?$stream_output_adapter@D@__crt_stdio_output@@@__crt_stdio_output@@CA_ND@Z 000000014002c6c4 f i libucrt:output.obj
 0001:0002b6cc       ??$is_pointer_specifier@D@?$positional_parameter_base@DV?$string_output_adapter@D@__crt_stdio_output@@@__crt_stdio_output@@CA_ND@Z 000000014002c6cc f i libucrt:output.obj
 0001:0002b6d4       ??$is_pointer_specifier@_W@?$positional_parameter_base@_WV?$stream_output_adapter@_W@__crt_stdio_output@@@__crt_stdio_output@@CA_N_W@Z 000000014002c6d4 f i libucrt:output.obj
 0001:0002b6e0       ??$is_pointer_specifier@_W@?$positional_parameter_base@_WV?$string_output_adapter@_W@__crt_stdio_output@@@__crt_stdio_output@@CA_N_W@Z 000000014002c6e0 f i libucrt:output.obj
 0001:0002b6ec       ??$is_string_specifier@D@?$positional_parameter_base@DV?$stream_output_adapter@D@__crt_stdio_output@@@__crt_stdio_output@@CA_ND@Z 000000014002c6ec f i libucrt:output.obj
 0001:0002b6f8       ??$is_string_specifier@D@?$positional_parameter_base@DV?$string_output_adapter@D@__crt_stdio_output@@@__crt_stdio_output@@CA_ND@Z 000000014002c6f8 f i libucrt:output.obj
 0001:0002b704       ??$is_string_specifier@_W@?$positional_parameter_base@_WV?$stream_output_adapter@_W@__crt_stdio_output@@@__crt_stdio_output@@CA_N_W@Z 000000014002c704 f i libucrt:output.obj
 0001:0002b718       ??$is_string_specifier@_W@?$positional_parameter_base@_WV?$string_output_adapter@_W@__crt_stdio_output@@@__crt_stdio_output@@CA_N_W@Z 000000014002c718 f i libucrt:output.obj
 0001:0002b72c       ??$is_wide_character_specifier@D@__crt_stdio_output@@YA_N_KDW4length_modifier@0@@Z 000000014002c72c f i libucrt:output.obj
 0001:0002b760       ??$is_wide_character_specifier@_W@__crt_stdio_output@@YA_N_K_WW4length_modifier@0@@Z 000000014002c760 f i libucrt:output.obj
 0001:0002b7b0       ??$make_c_string_character_source@DPEAPEAD@__crt_strtox@@YA?AV?$c_string_character_source@D@0@QEBDQEAPEAD@Z 000000014002c7b0 f i libucrt:output.obj
 0001:0002b7c8       ??$make_c_string_character_source@_WPEAPEA_W@__crt_strtox@@YA?AV?$c_string_character_source@_W@0@QEB_WQEAPEA_W@Z 000000014002c7c8 f i libucrt:output.obj
 0001:0002b7e0       ??$parse_integer@KV?$c_string_character_source@D@__crt_strtox@@$0A@@__crt_strtox@@YAKAEAV__crt_cached_ptd_host@@V?$c_string_character_source@D@0@H_N@Z 000000014002c7e0 f i libucrt:output.obj
 0001:0002bb44       ??$parse_integer@KV?$c_string_character_source@_W@__crt_strtox@@$0A@@__crt_strtox@@YAKAEAV__crt_cached_ptd_host@@V?$c_string_character_source@_W@0@H_N@Z 000000014002cb44 f i libucrt:output.obj
 0001:0002c488       ??$peek_va_arg@C@__crt_stdio_output@@YACPEAD@Z 000000014002d488 f i libucrt:output.obj
 0001:0002c48c       ??$peek_va_arg@E@__crt_stdio_output@@YAEPEAD@Z 000000014002d48c f i libucrt:output.obj
 0001:0002c490       ??$peek_va_arg@F@__crt_stdio_output@@YAFPEAD@Z 000000014002d490 f i libucrt:output.obj
 0001:0002c494       ??$peek_va_arg@G@__crt_stdio_output@@YAGPEAD@Z 000000014002d494 f i libucrt:output.obj
 0001:0002c498       ??$peek_va_arg@H@__crt_stdio_output@@YAHPEAD@Z 000000014002d498 f i libucrt:output.obj
 0001:0002c49c       ??$peek_va_arg@I@__crt_stdio_output@@YAIPEAD@Z 000000014002d49c f i libucrt:output.obj
 0001:0002c4a0       ??$peek_va_arg@PEAD@__crt_stdio_output@@YAPEADPEAD@Z 000000014002d4a0 f i libucrt:output.obj
 0001:0002c4a4       ??$peek_va_arg@PEAUansi_string@?1??type_case_Z@?$output_processor@DV?$stream_output_adapter@D@__crt_stdio_output@@V?$positional_parameter_base@DV?$stream_output_adapter@D@__crt_stdio_output@@@2@@__crt_stdio_output@@AEAA_NXZ@@__crt_stdio_output@@YAPEAUansi_string@?1??type_case_Z@?$output_processor@DV?$stream_output_adapter@D@__crt_stdio_output@@V?$positional_parameter_base@DV?$stream_output_adapter@D@__crt_stdio_output@@@2@@0@AEAA_NXZ@PEAD@Z 000000014002d4a4 f i libucrt:output.obj
 0001:0002c4a8       ??$peek_va_arg@PEAUansi_string@?1??type_case_Z@?$output_processor@DV?$string_output_adapter@D@__crt_stdio_output@@V?$positional_parameter_base@DV?$string_output_adapter@D@__crt_stdio_output@@@2@@__crt_stdio_output@@AEAA_NXZ@@__crt_stdio_output@@YAPEAUansi_string@?1??type_case_Z@?$output_processor@DV?$string_output_adapter@D@__crt_stdio_output@@V?$positional_parameter_base@DV?$string_output_adapter@D@__crt_stdio_output@@@2@@0@AEAA_NXZ@PEAD@Z 000000014002d4a8 f i libucrt:output.obj
 0001:0002c4ac       ??$peek_va_arg@PEAUansi_string@?1??type_case_Z@?$output_processor@_WV?$stream_output_adapter@_W@__crt_stdio_output@@V?$positional_parameter_base@_WV?$stream_output_adapter@_W@__crt_stdio_output@@@2@@__crt_stdio_output@@AEAA_NXZ@@__crt_stdio_output@@YAPEAUansi_string@?1??type_case_Z@?$output_processor@_WV?$stream_output_adapter@_W@__crt_stdio_output@@V?$positional_parameter_base@_WV?$stream_output_adapter@_W@__crt_stdio_output@@@2@@0@AEAA_NXZ@PEAD@Z 000000014002d4ac f i libucrt:output.obj
 0001:0002c4b0       ??$peek_va_arg@PEAUansi_string@?1??type_case_Z@?$output_processor@_WV?$string_output_adapter@_W@__crt_stdio_output@@V?$positional_parameter_base@_WV?$string_output_adapter@_W@__crt_stdio_output@@@2@@__crt_stdio_output@@AEAA_NXZ@@__crt_stdio_output@@YAPEAUansi_string@?1??type_case_Z@?$output_processor@_WV?$string_output_adapter@_W@__crt_stdio_output@@V?$positional_parameter_base@_WV?$string_output_adapter@_W@__crt_stdio_output@@@2@@0@AEAA_NXZ@PEAD@Z 000000014002d4b0 f i libucrt:output.obj
 0001:0002c4b4       ??$peek_va_arg@PEAX@__crt_stdio_output@@YAPEAXPEAD@Z 000000014002d4b4 f i libucrt:output.obj
 0001:0002c4b8       ??$peek_va_arg@U_CRT_DOUBLE@@@__crt_stdio_output@@YA?AU_CRT_DOUBLE@@PEAD@Z 000000014002d4b8 f i libucrt:output.obj
 0001:0002c4bc       ??$peek_va_arg@_J@__crt_stdio_output@@YA_JPEAD@Z 000000014002d4bc f i libucrt:output.obj
 0001:0002c4c0       ??$peek_va_arg@_K@__crt_stdio_output@@YA_KPEAD@Z 000000014002d4c0 f i libucrt:output.obj
 0001:0002c4c4       ??$peek_va_arg@_W@__crt_stdio_output@@YA_WPEAD@Z 000000014002d4c4 f i libucrt:output.obj
 0001:0002c4c8       ??$puttc_nolock_internal@AEBDPEAU_iobuf@@AEAV__crt_cached_ptd_host@@@?$__crt_char_traits@D@@SAHAEBD$$QEAPEAU_iobuf@@AEAV__crt_cached_ptd_host@@@Z 000000014002d4c8 f i libucrt:output.obj
 0001:0002c4d8       ??$puttc_nolock_internal@AEB_WPEAU_iobuf@@AEAV__crt_cached_ptd_host@@@?$__crt_char_traits@_W@@SAGAEB_W$$QEAPEAU_iobuf@@AEAV__crt_cached_ptd_host@@@Z 000000014002d4d8 f i libucrt:output.obj
 0001:0002c4e8       ??$read_va_arg@C@__crt_stdio_output@@YACAEAPEAD@Z 000000014002d4e8 f i libucrt:output.obj
 0001:0002c4f8       ??$read_va_arg@E@__crt_stdio_output@@YAEAEAPEAD@Z 000000014002d4f8 f i libucrt:output.obj
 0001:0002c508       ??$read_va_arg@F@__crt_stdio_output@@YAFAEAPEAD@Z 000000014002d508 f i libucrt:output.obj
 0001:0002c51c       ??$read_va_arg@G@__crt_stdio_output@@YAGAEAPEAD@Z 000000014002d51c f i libucrt:output.obj
 0001:0002c530       ??$read_va_arg@H@__crt_stdio_output@@YAHAEAPEAD@Z 000000014002d530 f i libucrt:output.obj
 0001:0002c540       ??$read_va_arg@I@__crt_stdio_output@@YAIAEAPEAD@Z 000000014002d540 f i libucrt:output.obj
 0001:0002c550       ??$read_va_arg@PEAD@__crt_stdio_output@@YAPEADAEAPEAD@Z 000000014002d550 f i libucrt:output.obj
 0001:0002c564       ??$read_va_arg@PEAUansi_string@?1??type_case_Z@?$output_processor@DV?$stream_output_adapter@D@__crt_stdio_output@@V?$format_validation_base@DV?$stream_output_adapter@D@__crt_stdio_output@@@2@@__crt_stdio_output@@AEAA_NXZ@@__crt_stdio_output@@YAPEAUansi_string@?1??type_case_Z@?$output_processor@DV?$stream_output_adapter@D@__crt_stdio_output@@V?$format_validation_base@DV?$stream_output_adapter@D@__crt_stdio_output@@@2@@0@AEAA_NXZ@AEAPEAD@Z 000000014002d564 f i libucrt:output.obj
 0001:0002c578       ??$read_va_arg@PEAUansi_string@?1??type_case_Z@?$output_processor@DV?$stream_output_adapter@D@__crt_stdio_output@@V?$positional_parameter_base@DV?$stream_output_adapter@D@__crt_stdio_output@@@2@@__crt_stdio_output@@AEAA_NXZ@@__crt_stdio_output@@YAPEAUansi_string@?1??type_case_Z@?$output_processor@DV?$stream_output_adapter@D@__crt_stdio_output@@V?$positional_parameter_base@DV?$stream_output_adapter@D@__crt_stdio_output@@@2@@0@AEAA_NXZ@AEAPEAD@Z 000000014002d578 f i libucrt:output.obj
 0001:0002c58c       ??$read_va_arg@PEAUansi_string@?1??type_case_Z@?$output_processor@DV?$stream_output_adapter@D@__crt_stdio_output@@V?$standard_base@DV?$stream_output_adapter@D@__crt_stdio_output@@@2@@__crt_stdio_output@@AEAA_NXZ@@__crt_stdio_output@@YAPEAUansi_string@?1??type_case_Z@?$output_processor@DV?$stream_output_adapter@D@__crt_stdio_output@@V?$standard_base@DV?$stream_output_adapter@D@__crt_stdio_output@@@2@@0@AEAA_NXZ@AEAPEAD@Z 000000014002d58c f i libucrt:output.obj
 0001:0002c5a0       ??$read_va_arg@PEAUansi_string@?1??type_case_Z@?$output_processor@DV?$string_output_adapter@D@__crt_stdio_output@@V?$format_validation_base@DV?$string_output_adapter@D@__crt_stdio_output@@@2@@__crt_stdio_output@@AEAA_NXZ@@__crt_stdio_output@@YAPEAUansi_string@?1??type_case_Z@?$output_processor@DV?$string_output_adapter@D@__crt_stdio_output@@V?$format_validation_base@DV?$string_output_adapter@D@__crt_stdio_output@@@2@@0@AEAA_NXZ@AEAPEAD@Z 000000014002d5a0 f i libucrt:output.obj
 0001:0002c5b4       ??$read_va_arg@PEAUansi_string@?1??type_case_Z@?$output_processor@DV?$string_output_adapter@D@__crt_stdio_output@@V?$positional_parameter_base@DV?$string_output_adapter@D@__crt_stdio_output@@@2@@__crt_stdio_output@@AEAA_NXZ@@__crt_stdio_output@@YAPEAUansi_string@?1??type_case_Z@?$output_processor@DV?$string_output_adapter@D@__crt_stdio_output@@V?$positional_parameter_base@DV?$string_output_adapter@D@__crt_stdio_output@@@2@@0@AEAA_NXZ@AEAPEAD@Z 000000014002d5b4 f i libucrt:output.obj
 0001:0002c5c8       ??$read_va_arg@PEAUansi_string@?1??type_case_Z@?$output_processor@DV?$string_output_adapter@D@__crt_stdio_output@@V?$standard_base@DV?$string_output_adapter@D@__crt_stdio_output@@@2@@__crt_stdio_output@@AEAA_NXZ@@__crt_stdio_output@@YAPEAUansi_string@?1??type_case_Z@?$output_processor@DV?$string_output_adapter@D@__crt_stdio_output@@V?$standard_base@DV?$string_output_adapter@D@__crt_stdio_output@@@2@@0@AEAA_NXZ@AEAPEAD@Z 000000014002d5c8 f i libucrt:output.obj
 0001:0002c5dc       ??$read_va_arg@PEAUansi_string@?1??type_case_Z@?$output_processor@_WV?$stream_output_adapter@_W@__crt_stdio_output@@V?$format_validation_base@_WV?$stream_output_adapter@_W@__crt_stdio_output@@@2@@__crt_stdio_output@@AEAA_NXZ@@__crt_stdio_output@@YAPEAUansi_string@?1??type_case_Z@?$output_processor@_WV?$stream_output_adapter@_W@__crt_stdio_output@@V?$format_validation_base@_WV?$stream_output_adapter@_W@__crt_stdio_output@@@2@@0@AEAA_NXZ@AEAPEAD@Z 000000014002d5dc f i libucrt:output.obj
 0001:0002c5f0       ??$read_va_arg@PEAUansi_string@?1??type_case_Z@?$output_processor@_WV?$stream_output_adapter@_W@__crt_stdio_output@@V?$positional_parameter_base@_WV?$stream_output_adapter@_W@__crt_stdio_output@@@2@@__crt_stdio_output@@AEAA_NXZ@@__crt_stdio_output@@YAPEAUansi_string@?1??type_case_Z@?$output_processor@_WV?$stream_output_adapter@_W@__crt_stdio_output@@V?$positional_parameter_base@_WV?$stream_output_adapter@_W@__crt_stdio_output@@@2@@0@AEAA_NXZ@AEAPEAD@Z 000000014002d5f0 f i libucrt:output.obj
 0001:0002c604       ??$read_va_arg@PEAUansi_string@?1??type_case_Z@?$output_processor@_WV?$stream_output_adapter@_W@__crt_stdio_output@@V?$standard_base@_WV?$stream_output_adapter@_W@__crt_stdio_output@@@2@@__crt_stdio_output@@AEAA_NXZ@@__crt_stdio_output@@YAPEAUansi_string@?1??type_case_Z@?$output_processor@_WV?$stream_output_adapter@_W@__crt_stdio_output@@V?$standard_base@_WV?$stream_output_adapter@_W@__crt_stdio_output@@@2@@0@AEAA_NXZ@AEAPEAD@Z 000000014002d604 f i libucrt:output.obj
 0001:0002c618       ??$read_va_arg@PEAUansi_string@?1??type_case_Z@?$output_processor@_WV?$string_output_adapter@_W@__crt_stdio_output@@V?$format_validation_base@_WV?$string_output_adapter@_W@__crt_stdio_output@@@2@@__crt_stdio_output@@AEAA_NXZ@@__crt_stdio_output@@YAPEAUansi_string@?1??type_case_Z@?$output_processor@_WV?$string_output_adapter@_W@__crt_stdio_output@@V?$format_validation_base@_WV?$string_output_adapter@_W@__crt_stdio_output@@@2@@0@AEAA_NXZ@AEAPEAD@Z 000000014002d618 f i libucrt:output.obj
 0001:0002c62c       ??$read_va_arg@PEAUansi_string@?1??type_case_Z@?$output_processor@_WV?$string_output_adapter@_W@__crt_stdio_output@@V?$positional_parameter_base@_WV?$string_output_adapter@_W@__crt_stdio_output@@@2@@__crt_stdio_output@@AEAA_NXZ@@__crt_stdio_output@@YAPEAUansi_string@?1??type_case_Z@?$output_processor@_WV?$string_output_adapter@_W@__crt_stdio_output@@V?$positional_parameter_base@_WV?$string_output_adapter@_W@__crt_stdio_output@@@2@@0@AEAA_NXZ@AEAPEAD@Z 000000014002d62c f i libucrt:output.obj
 0001:0002c640       ??$read_va_arg@PEAUansi_string@?1??type_case_Z@?$output_processor@_WV?$string_output_adapter@_W@__crt_stdio_output@@V?$standard_base@_WV?$string_output_adapter@_W@__crt_stdio_output@@@2@@__crt_stdio_output@@AEAA_NXZ@@__crt_stdio_output@@YAPEAUansi_string@?1??type_case_Z@?$output_processor@_WV?$string_output_adapter@_W@__crt_stdio_output@@V?$standard_base@_WV?$string_output_adapter@_W@__crt_stdio_output@@@2@@0@AEAA_NXZ@AEAPEAD@Z 000000014002d640 f i libucrt:output.obj
 0001:0002c654       ??$read_va_arg@PEAX@__crt_stdio_output@@YAPEAXAEAPEAD@Z 000000014002d654 f i libucrt:output.obj
 0001:0002c668       ??$read_va_arg@U_CRT_DOUBLE@@@__crt_stdio_output@@YA?AU_CRT_DOUBLE@@AEAPEAD@Z 000000014002d668 f i libucrt:output.obj
 0001:0002c67c       ??$read_va_arg@_J@__crt_stdio_output@@YA_JAEAPEAD@Z 000000014002d67c f i libucrt:output.obj
 0001:0002c690       ??$read_va_arg@_K@__crt_stdio_output@@YA_KAEAPEAD@Z 000000014002d690 f i libucrt:output.obj
 0001:0002c6a4       ??$read_va_arg@_W@__crt_stdio_output@@YA_WAEAPEAD@Z 000000014002d6a4 f i libucrt:output.obj
 0001:0002c6b8       ??$scratch_count@D@formatting_buffer@__crt_stdio_output@@QEBA_KXZ 000000014002d6b8 f i libucrt:output.obj
 0001:0002c6dc       ??$scratch_data@D@formatting_buffer@__crt_stdio_output@@QEAAPEADXZ 000000014002d6dc f i libucrt:output.obj
 0001:0002c708       ??$type_case_integer@$07@?$output_processor@DV?$stream_output_adapter@D@__crt_stdio_output@@V?$format_validation_base@DV?$stream_output_adapter@D@__crt_stdio_output@@@2@@__crt_stdio_output@@AEAA_N_N@Z 000000014002d708 f i libucrt:output.obj
 0001:0002c98c       ??$type_case_integer@$07@?$output_processor@DV?$stream_output_adapter@D@__crt_stdio_output@@V?$positional_parameter_base@DV?$stream_output_adapter@D@__crt_stdio_output@@@2@@__crt_stdio_output@@AEAA_N_N@Z 000000014002d98c f i libucrt:output.obj
 0001:0002cc50       ??$type_case_integer@$07@?$output_processor@DV?$stream_output_adapter@D@__crt_stdio_output@@V?$standard_base@DV?$stream_output_adapter@D@__crt_stdio_output@@@2@@__crt_stdio_output@@AEAA_N_N@Z 000000014002dc50 f i libucrt:output.obj
 0001:0002ced4       ??$type_case_integer@$07@?$output_processor@DV?$string_output_adapter@D@__crt_stdio_output@@V?$format_validation_base@DV?$string_output_adapter@D@__crt_stdio_output@@@2@@__crt_stdio_output@@AEAA_N_N@Z 000000014002ded4 f i libucrt:output.obj
 0001:0002d158       ??$type_case_integer@$07@?$output_processor@DV?$string_output_adapter@D@__crt_stdio_output@@V?$positional_parameter_base@DV?$string_output_adapter@D@__crt_stdio_output@@@2@@__crt_stdio_output@@AEAA_N_N@Z 000000014002e158 f i libucrt:output.obj
 0001:0002d41c       ??$type_case_integer@$07@?$output_processor@DV?$string_output_adapter@D@__crt_stdio_output@@V?$standard_base@DV?$string_output_adapter@D@__crt_stdio_output@@@2@@__crt_stdio_output@@AEAA_N_N@Z 000000014002e41c f i libucrt:output.obj
 0001:0002d6a0       ??$type_case_integer@$07@?$output_processor@_WV?$stream_output_adapter@_W@__crt_stdio_output@@V?$format_validation_base@_WV?$stream_output_adapter@_W@__crt_stdio_output@@@2@@__crt_stdio_output@@AEAA_N_N@Z 000000014002e6a0 f i libucrt:output.obj
 0001:0002d92c       ??$type_case_integer@$07@?$output_processor@_WV?$stream_output_adapter@_W@__crt_stdio_output@@V?$positional_parameter_base@_WV?$stream_output_adapter@_W@__crt_stdio_output@@@2@@__crt_stdio_output@@AEAA_N_N@Z 000000014002e92c f i libucrt:output.obj
 0001:0002dbf8       ??$type_case_integer@$07@?$output_processor@_WV?$stream_output_adapter@_W@__crt_stdio_output@@V?$standard_base@_WV?$stream_output_adapter@_W@__crt_stdio_output@@@2@@__crt_stdio_output@@AEAA_N_N@Z 000000014002ebf8 f i libucrt:output.obj
 0001:0002de84       ??$type_case_integer@$07@?$output_processor@_WV?$string_output_adapter@_W@__crt_stdio_output@@V?$format_validation_base@_WV?$string_output_adapter@_W@__crt_stdio_output@@@2@@__crt_stdio_output@@AEAA_N_N@Z 000000014002ee84 f i libucrt:output.obj
 0001:0002e110       ??$type_case_integer@$07@?$output_processor@_WV?$string_output_adapter@_W@__crt_stdio_output@@V?$positional_parameter_base@_WV?$string_output_adapter@_W@__crt_stdio_output@@@2@@__crt_stdio_output@@AEAA_N_N@Z 000000014002f110 f i libucrt:output.obj
 0001:0002e3dc       ??$type_case_integer@$07@?$output_processor@_WV?$string_output_adapter@_W@__crt_stdio_output@@V?$standard_base@_WV?$string_output_adapter@_W@__crt_stdio_output@@@2@@__crt_stdio_output@@AEAA_N_N@Z 000000014002f3dc f i libucrt:output.obj
 0001:0002e668       ??$type_case_integer@$09@?$output_processor@DV?$stream_output_adapter@D@__crt_stdio_output@@V?$format_validation_base@DV?$stream_output_adapter@D@__crt_stdio_output@@@2@@__crt_stdio_output@@AEAA_N_N@Z 000000014002f668 f i libucrt:output.obj
 0001:0002e8ec       ??$type_case_integer@$09@?$output_processor@DV?$stream_output_adapter@D@__crt_stdio_output@@V?$positional_parameter_base@DV?$stream_output_adapter@D@__crt_stdio_output@@@2@@__crt_stdio_output@@AEAA_N_N@Z 000000014002f8ec f i libucrt:output.obj
 0001:0002ebb0       ??$type_case_integer@$09@?$output_processor@DV?$stream_output_adapter@D@__crt_stdio_output@@V?$standard_base@DV?$stream_output_adapter@D@__crt_stdio_output@@@2@@__crt_stdio_output@@AEAA_N_N@Z 000000014002fbb0 f i libucrt:output.obj
 0001:0002ee34       ??$type_case_integer@$09@?$output_processor@DV?$string_output_adapter@D@__crt_stdio_output@@V?$format_validation_base@DV?$string_output_adapter@D@__crt_stdio_output@@@2@@__crt_stdio_output@@AEAA_N_N@Z 000000014002fe34 f i libucrt:output.obj
 0001:0002f0b8       ??$type_case_integer@$09@?$output_processor@DV?$string_output_adapter@D@__crt_stdio_output@@V?$positional_parameter_base@DV?$string_output_adapter@D@__crt_stdio_output@@@2@@__crt_stdio_output@@AEAA_N_N@Z 00000001400300b8 f i libucrt:output.obj
 0001:0002f37c       ??$type_case_integer@$09@?$output_processor@DV?$string_output_adapter@D@__crt_stdio_output@@V?$standard_base@DV?$string_output_adapter@D@__crt_stdio_output@@@2@@__crt_stdio_output@@AEAA_N_N@Z 000000014003037c f i libucrt:output.obj
 0001:0002f600       ??$type_case_integer@$09@?$output_processor@_WV?$stream_output_adapter@_W@__crt_stdio_output@@V?$format_validation_base@_WV?$stream_output_adapter@_W@__crt_stdio_output@@@2@@__crt_stdio_output@@AEAA_N_N@Z 0000000140030600 f i libucrt:output.obj
 0001:0002f88c       ??$type_case_integer@$09@?$output_processor@_WV?$stream_output_adapter@_W@__crt_stdio_output@@V?$positional_parameter_base@_WV?$stream_output_adapter@_W@__crt_stdio_output@@@2@@__crt_stdio_output@@AEAA_N_N@Z 000000014003088c f i libucrt:output.obj
 0001:0002fb58       ??$type_case_integer@$09@?$output_processor@_WV?$stream_output_adapter@_W@__crt_stdio_output@@V?$standard_base@_WV?$stream_output_adapter@_W@__crt_stdio_output@@@2@@__crt_stdio_output@@AEAA_N_N@Z 0000000140030b58 f i libucrt:output.obj
 0001:0002fde4       ??$type_case_integer@$09@?$output_processor@_WV?$string_output_adapter@_W@__crt_stdio_output@@V?$format_validation_base@_WV?$string_output_adapter@_W@__crt_stdio_output@@@2@@__crt_stdio_output@@AEAA_N_N@Z 0000000140030de4 f i libucrt:output.obj
 0001:00030070       ??$type_case_integer@$09@?$output_processor@_WV?$string_output_adapter@_W@__crt_stdio_output@@V?$positional_parameter_base@_WV?$string_output_adapter@_W@__crt_stdio_output@@@2@@__crt_stdio_output@@AEAA_N_N@Z 0000000140031070 f i libucrt:output.obj
 0001:0003033c       ??$type_case_integer@$09@?$output_processor@_WV?$string_output_adapter@_W@__crt_stdio_output@@V?$standard_base@_WV?$string_output_adapter@_W@__crt_stdio_output@@@2@@__crt_stdio_output@@AEAA_N_N@Z 000000014003133c f i libucrt:output.obj
 0001:000305c8       ??$type_case_integer@$0BA@@?$output_processor@DV?$stream_output_adapter@D@__crt_stdio_output@@V?$format_validation_base@DV?$stream_output_adapter@D@__crt_stdio_output@@@2@@__crt_stdio_output@@AEAA_N_N@Z 00000001400315c8 f i libucrt:output.obj
 0001:0003084c       ??$type_case_integer@$0BA@@?$output_processor@DV?$stream_output_adapter@D@__crt_stdio_output@@V?$positional_parameter_base@DV?$stream_output_adapter@D@__crt_stdio_output@@@2@@__crt_stdio_output@@AEAA_N_N@Z 000000014003184c f i libucrt:output.obj
 0001:00030b10       ??$type_case_integer@$0BA@@?$output_processor@DV?$stream_output_adapter@D@__crt_stdio_output@@V?$standard_base@DV?$stream_output_adapter@D@__crt_stdio_output@@@2@@__crt_stdio_output@@AEAA_N_N@Z 0000000140031b10 f i libucrt:output.obj
 0001:00030d94       ??$type_case_integer@$0BA@@?$output_processor@DV?$string_output_adapter@D@__crt_stdio_output@@V?$format_validation_base@DV?$string_output_adapter@D@__crt_stdio_output@@@2@@__crt_stdio_output@@AEAA_N_N@Z 0000000140031d94 f i libucrt:output.obj
 0001:00031018       ??$type_case_integer@$0BA@@?$output_processor@DV?$string_output_adapter@D@__crt_stdio_output@@V?$positional_parameter_base@DV?$string_output_adapter@D@__crt_stdio_output@@@2@@__crt_stdio_output@@AEAA_N_N@Z 0000000140032018 f i libucrt:output.obj
 0001:000312dc       ??$type_case_integer@$0BA@@?$output_processor@DV?$string_output_adapter@D@__crt_stdio_output@@V?$standard_base@DV?$string_output_adapter@D@__crt_stdio_output@@@2@@__crt_stdio_output@@AEAA_N_N@Z 00000001400322dc f i libucrt:output.obj
 0001:00031560       ??$type_case_integer@$0BA@@?$output_processor@_WV?$stream_output_adapter@_W@__crt_stdio_output@@V?$format_validation_base@_WV?$stream_output_adapter@_W@__crt_stdio_output@@@2@@__crt_stdio_output@@AEAA_N_N@Z 0000000140032560 f i libucrt:output.obj
 0001:000317ec       ??$type_case_integer@$0BA@@?$output_processor@_WV?$stream_output_adapter@_W@__crt_stdio_output@@V?$positional_parameter_base@_WV?$stream_output_adapter@_W@__crt_stdio_output@@@2@@__crt_stdio_output@@AEAA_N_N@Z 00000001400327ec f i libucrt:output.obj
 0001:00031ab8       ??$type_case_integer@$0BA@@?$output_processor@_WV?$stream_output_adapter@_W@__crt_stdio_output@@V?$standard_base@_WV?$stream_output_adapter@_W@__crt_stdio_output@@@2@@__crt_stdio_output@@AEAA_N_N@Z 0000000140032ab8 f i libucrt:output.obj
 0001:00031d44       ??$type_case_integer@$0BA@@?$output_processor@_WV?$string_output_adapter@_W@__crt_stdio_output@@V?$format_validation_base@_WV?$string_output_adapter@_W@__crt_stdio_output@@@2@@__crt_stdio_output@@AEAA_N_N@Z 0000000140032d44 f i libucrt:output.obj
 0001:00031fd0       ??$type_case_integer@$0BA@@?$output_processor@_WV?$string_output_adapter@_W@__crt_stdio_output@@V?$positional_parameter_base@_WV?$string_output_adapter@_W@__crt_stdio_output@@@2@@__crt_stdio_output@@AEAA_N_N@Z 0000000140032fd0 f i libucrt:output.obj
 0001:0003229c       ??$type_case_integer@$0BA@@?$output_processor@_WV?$string_output_adapter@_W@__crt_stdio_output@@V?$standard_base@_WV?$string_output_adapter@_W@__crt_stdio_output@@@2@@__crt_stdio_output@@AEAA_N_N@Z 000000014003329c f i libucrt:output.obj
 0001:00032528       ??$type_case_integer_parse_into_buffer@I$07@?$output_processor@DV?$stream_output_adapter@D@__crt_stdio_output@@V?$format_validation_base@DV?$stream_output_adapter@D@__crt_stdio_output@@@2@@__crt_stdio_output@@AEAAXI_N@Z 0000000140033528 f i libucrt:output.obj
 0001:000325b0       ??$type_case_integer_parse_into_buffer@I$07@?$output_processor@DV?$stream_output_adapter@D@__crt_stdio_output@@V?$positional_parameter_base@DV?$stream_output_adapter@D@__crt_stdio_output@@@2@@__crt_stdio_output@@AEAAXI_N@Z 00000001400335b0 f i libucrt:output.obj
 0001:00032638       ??$type_case_integer_parse_into_buffer@I$07@?$output_processor@DV?$stream_output_adapter@D@__crt_stdio_output@@V?$standard_base@DV?$stream_output_adapter@D@__crt_stdio_output@@@2@@__crt_stdio_output@@AEAAXI_N@Z 0000000140033638 f i libucrt:output.obj
 0001:000326c0       ??$type_case_integer_parse_into_buffer@I$07@?$output_processor@DV?$string_output_adapter@D@__crt_stdio_output@@V?$format_validation_base@DV?$string_output_adapter@D@__crt_stdio_output@@@2@@__crt_stdio_output@@AEAAXI_N@Z 00000001400336c0 f i libucrt:output.obj
 0001:00032748       ??$type_case_integer_parse_into_buffer@I$07@?$output_processor@DV?$string_output_adapter@D@__crt_stdio_output@@V?$positional_parameter_base@DV?$string_output_adapter@D@__crt_stdio_output@@@2@@__crt_stdio_output@@AEAAXI_N@Z 0000000140033748 f i libucrt:output.obj
 0001:000327d0       ??$type_case_integer_parse_into_buffer@I$07@?$output_processor@DV?$string_output_adapter@D@__crt_stdio_output@@V?$standard_base@DV?$string_output_adapter@D@__crt_stdio_output@@@2@@__crt_stdio_output@@AEAAXI_N@Z 00000001400337d0 f i libucrt:output.obj
 0001:00032858       ??$type_case_integer_parse_into_buffer@I$07@?$output_processor@_WV?$stream_output_adapter@_W@__crt_stdio_output@@V?$format_validation_base@_WV?$stream_output_adapter@_W@__crt_stdio_output@@@2@@__crt_stdio_output@@AEAAXI_N@Z 0000000140033858 f i libucrt:output.obj
 0001:00032900       ??$type_case_integer_parse_into_buffer@I$07@?$output_processor@_WV?$stream_output_adapter@_W@__crt_stdio_output@@V?$positional_parameter_base@_WV?$stream_output_adapter@_W@__crt_stdio_output@@@2@@__crt_stdio_output@@AEAAXI_N@Z 0000000140033900 f i libucrt:output.obj
 0001:000329a8       ??$type_case_integer_parse_into_buffer@I$07@?$output_processor@_WV?$stream_output_adapter@_W@__crt_stdio_output@@V?$standard_base@_WV?$stream_output_adapter@_W@__crt_stdio_output@@@2@@__crt_stdio_output@@AEAAXI_N@Z 00000001400339a8 f i libucrt:output.obj
 0001:00032a50       ??$type_case_integer_parse_into_buffer@I$07@?$output_processor@_WV?$string_output_adapter@_W@__crt_stdio_output@@V?$format_validation_base@_WV?$string_output_adapter@_W@__crt_stdio_output@@@2@@__crt_stdio_output@@AEAAXI_N@Z 0000000140033a50 f i libucrt:output.obj
 0001:00032af8       ??$type_case_integer_parse_into_buffer@I$07@?$output_processor@_WV?$string_output_adapter@_W@__crt_stdio_output@@V?$positional_parameter_base@_WV?$string_output_adapter@_W@__crt_stdio_output@@@2@@__crt_stdio_output@@AEAAXI_N@Z 0000000140033af8 f i libucrt:output.obj
 0001:00032ba0       ??$type_case_integer_parse_into_buffer@I$07@?$output_processor@_WV?$string_output_adapter@_W@__crt_stdio_output@@V?$standard_base@_WV?$string_output_adapter@_W@__crt_stdio_output@@@2@@__crt_stdio_output@@AEAAXI_N@Z 0000000140033ba0 f i libucrt:output.obj
 0001:00032c48       ??$type_case_integer_parse_into_buffer@I$09@?$output_processor@DV?$stream_output_adapter@D@__crt_stdio_output@@V?$format_validation_base@DV?$stream_output_adapter@D@__crt_stdio_output@@@2@@__crt_stdio_output@@AEAAXI_N@Z 0000000140033c48 f i libucrt:output.obj
 0001:00032d1c       ??$type_case_integer_parse_into_buffer@I$09@?$output_processor@DV?$stream_output_adapter@D@__crt_stdio_output@@V?$positional_parameter_base@DV?$stream_output_adapter@D@__crt_stdio_output@@@2@@__crt_stdio_output@@AEAAXI_N@Z 0000000140033d1c f i libucrt:output.obj
 0001:00032df0       ??$type_case_integer_parse_into_buffer@I$09@?$output_processor@DV?$stream_output_adapter@D@__crt_stdio_output@@V?$standard_base@DV?$stream_output_adapter@D@__crt_stdio_output@@@2@@__crt_stdio_output@@AEAAXI_N@Z 0000000140033df0 f i libucrt:output.obj
 0001:00032ec4       ??$type_case_integer_parse_into_buffer@I$09@?$output_processor@DV?$string_output_adapter@D@__crt_stdio_output@@V?$format_validation_base@DV?$string_output_adapter@D@__crt_stdio_output@@@2@@__crt_stdio_output@@AEAAXI_N@Z 0000000140033ec4 f i libucrt:output.obj
 0001:00032f98       ??$type_case_integer_parse_into_buffer@I$09@?$output_processor@DV?$string_output_adapter@D@__crt_stdio_output@@V?$positional_parameter_base@DV?$string_output_adapter@D@__crt_stdio_output@@@2@@__crt_stdio_output@@AEAAXI_N@Z 0000000140033f98 f i libucrt:output.obj
 0001:0003306c       ??$type_case_integer_parse_into_buffer@I$09@?$output_processor@DV?$string_output_adapter@D@__crt_stdio_output@@V?$standard_base@DV?$string_output_adapter@D@__crt_stdio_output@@@2@@__crt_stdio_output@@AEAAXI_N@Z 000000014003406c f i libucrt:output.obj
 0001:00033140       ??$type_case_integer_parse_into_buffer@I$09@?$output_processor@_WV?$stream_output_adapter@_W@__crt_stdio_output@@V?$format_validation_base@_WV?$stream_output_adapter@_W@__crt_stdio_output@@@2@@__crt_stdio_output@@AEAAXI_N@Z 0000000140034140 f i libucrt:output.obj
 0001:0003322c       ??$type_case_integer_parse_into_buffer@I$09@?$output_processor@_WV?$stream_output_adapter@_W@__crt_stdio_output@@V?$positional_parameter_base@_WV?$stream_output_adapter@_W@__crt_stdio_output@@@2@@__crt_stdio_output@@AEAAXI_N@Z 000000014003422c f i libucrt:output.obj
 0001:00033318       ??$type_case_integer_parse_into_buffer@I$09@?$output_processor@_WV?$stream_output_adapter@_W@__crt_stdio_output@@V?$standard_base@_WV?$stream_output_adapter@_W@__crt_stdio_output@@@2@@__crt_stdio_output@@AEAAXI_N@Z 0000000140034318 f i libucrt:output.obj
 0001:00033404       ??$type_case_integer_parse_into_buffer@I$09@?$output_processor@_WV?$string_output_adapter@_W@__crt_stdio_output@@V?$format_validation_base@_WV?$string_output_adapter@_W@__crt_stdio_output@@@2@@__crt_stdio_output@@AEAAXI_N@Z 0000000140034404 f i libucrt:output.obj
 0001:000334f0       ??$type_case_integer_parse_into_buffer@I$09@?$output_processor@_WV?$string_output_adapter@_W@__crt_stdio_output@@V?$positional_parameter_base@_WV?$string_output_adapter@_W@__crt_stdio_output@@@2@@__crt_stdio_output@@AEAAXI_N@Z 00000001400344f0 f i libucrt:output.obj
 0001:000335dc       ??$type_case_integer_parse_into_buffer@I$09@?$output_processor@_WV?$string_output_adapter@_W@__crt_stdio_output@@V?$standard_base@_WV?$string_output_adapter@_W@__crt_stdio_output@@@2@@__crt_stdio_output@@AEAAXI_N@Z 00000001400345dc f i libucrt:output.obj
 0001:000336c8       ??$type_case_integer_parse_into_buffer@I$0BA@@?$output_processor@DV?$stream_output_adapter@D@__crt_stdio_output@@V?$format_validation_base@DV?$stream_output_adapter@D@__crt_stdio_output@@@2@@__crt_stdio_output@@AEAAXI_N@Z 00000001400346c8 f i libucrt:output.obj
 0001:00033770       ??$type_case_integer_parse_into_buffer@I$0BA@@?$output_processor@DV?$stream_output_adapter@D@__crt_stdio_output@@V?$positional_parameter_base@DV?$stream_output_adapter@D@__crt_stdio_output@@@2@@__crt_stdio_output@@AEAAXI_N@Z 0000000140034770 f i libucrt:output.obj
 0001:00033818       ??$type_case_integer_parse_into_buffer@I$0BA@@?$output_processor@DV?$stream_output_adapter@D@__crt_stdio_output@@V?$standard_base@DV?$stream_output_adapter@D@__crt_stdio_output@@@2@@__crt_stdio_output@@AEAAXI_N@Z 0000000140034818 f i libucrt:output.obj
 0001:000338c0       ??$type_case_integer_parse_into_buffer@I$0BA@@?$output_processor@DV?$string_output_adapter@D@__crt_stdio_output@@V?$format_validation_base@DV?$string_output_adapter@D@__crt_stdio_output@@@2@@__crt_stdio_output@@AEAAXI_N@Z 00000001400348c0 f i libucrt:output.obj
 0001:00033968       ??$type_case_integer_parse_into_buffer@I$0BA@@?$output_processor@DV?$string_output_adapter@D@__crt_stdio_output@@V?$positional_parameter_base@DV?$string_output_adapter@D@__crt_stdio_output@@@2@@__crt_stdio_output@@AEAAXI_N@Z 0000000140034968 f i libucrt:output.obj
 0001:00033a10       ??$type_case_integer_parse_into_buffer@I$0BA@@?$output_processor@DV?$string_output_adapter@D@__crt_stdio_output@@V?$standard_base@DV?$string_output_adapter@D@__crt_stdio_output@@@2@@__crt_stdio_output@@AEAAXI_N@Z 0000000140034a10 f i libucrt:output.obj
 0001:00033ab8       ??$type_case_integer_parse_into_buffer@I$0BA@@?$output_processor@_WV?$stream_output_adapter@_W@__crt_stdio_output@@V?$format_validation_base@_WV?$stream_output_adapter@_W@__crt_stdio_output@@@2@@__crt_stdio_output@@AEAAXI_N@Z 0000000140034ab8 f i libucrt:output.obj
 0001:00033b80       ??$type_case_integer_parse_into_buffer@I$0BA@@?$output_processor@_WV?$stream_output_adapter@_W@__crt_stdio_output@@V?$positional_parameter_base@_WV?$stream_output_adapter@_W@__crt_stdio_output@@@2@@__crt_stdio_output@@AEAAXI_N@Z 0000000140034b80 f i libucrt:output.obj
 0001:00033c48       ??$type_case_integer_parse_into_buffer@I$0BA@@?$output_processor@_WV?$stream_output_adapter@_W@__crt_stdio_output@@V?$standard_base@_WV?$stream_output_adapter@_W@__crt_stdio_output@@@2@@__crt_stdio_output@@AEAAXI_N@Z 0000000140034c48 f i libucrt:output.obj
 0001:00033d10       ??$type_case_integer_parse_into_buffer@I$0BA@@?$output_processor@_WV?$string_output_adapter@_W@__crt_stdio_output@@V?$format_validation_base@_WV?$string_output_adapter@_W@__crt_stdio_output@@@2@@__crt_stdio_output@@AEAAXI_N@Z 0000000140034d10 f i libucrt:output.obj
 0001:00033dd8       ??$type_case_integer_parse_into_buffer@I$0BA@@?$output_processor@_WV?$string_output_adapter@_W@__crt_stdio_output@@V?$positional_parameter_base@_WV?$string_output_adapter@_W@__crt_stdio_output@@@2@@__crt_stdio_output@@AEAAXI_N@Z 0000000140034dd8 f i libucrt:output.obj
 0001:00033ea0       ??$type_case_integer_parse_into_buffer@I$0BA@@?$output_processor@_WV?$string_output_adapter@_W@__crt_stdio_output@@V?$standard_base@_WV?$string_output_adapter@_W@__crt_stdio_output@@@2@@__crt_stdio_output@@AEAAXI_N@Z 0000000140034ea0 f i libucrt:output.obj
 0001:00033f68       ??$type_case_integer_parse_into_buffer@_K$07@?$output_processor@DV?$stream_output_adapter@D@__crt_stdio_output@@V?$format_validation_base@DV?$stream_output_adapter@D@__crt_stdio_output@@@2@@__crt_stdio_output@@AEAAX_K_N@Z 0000000140034f68 f i libucrt:output.obj
 0001:00033ff0       ??$type_case_integer_parse_into_buffer@_K$07@?$output_processor@DV?$stream_output_adapter@D@__crt_stdio_output@@V?$positional_parameter_base@DV?$stream_output_adapter@D@__crt_stdio_output@@@2@@__crt_stdio_output@@AEAAX_K_N@Z 0000000140034ff0 f i libucrt:output.obj
 0001:00034078       ??$type_case_integer_parse_into_buffer@_K$07@?$output_processor@DV?$stream_output_adapter@D@__crt_stdio_output@@V?$standard_base@DV?$stream_output_adapter@D@__crt_stdio_output@@@2@@__crt_stdio_output@@AEAAX_K_N@Z 0000000140035078 f i libucrt:output.obj
 0001:00034100       ??$type_case_integer_parse_into_buffer@_K$07@?$output_processor@DV?$string_output_adapter@D@__crt_stdio_output@@V?$format_validation_base@DV?$string_output_adapter@D@__crt_stdio_output@@@2@@__crt_stdio_output@@AEAAX_K_N@Z 0000000140035100 f i libucrt:output.obj
 0001:00034188       ??$type_case_integer_parse_into_buffer@_K$07@?$output_processor@DV?$string_output_adapter@D@__crt_stdio_output@@V?$positional_parameter_base@DV?$string_output_adapter@D@__crt_stdio_output@@@2@@__crt_stdio_output@@AEAAX_K_N@Z 0000000140035188 f i libucrt:output.obj
 0001:00034210       ??$type_case_integer_parse_into_buffer@_K$07@?$output_processor@DV?$string_output_adapter@D@__crt_stdio_output@@V?$standard_base@DV?$string_output_adapter@D@__crt_stdio_output@@@2@@__crt_stdio_output@@AEAAX_K_N@Z 0000000140035210 f i libucrt:output.obj
 0001:00034298       ??$type_case_integer_parse_into_buffer@_K$07@?$output_processor@_WV?$stream_output_adapter@_W@__crt_stdio_output@@V?$format_validation_base@_WV?$stream_output_adapter@_W@__crt_stdio_output@@@2@@__crt_stdio_output@@AEAAX_K_N@Z 0000000140035298 f i libucrt:output.obj
 0001:00034340       ??$type_case_integer_parse_into_buffer@_K$07@?$output_processor@_WV?$stream_output_adapter@_W@__crt_stdio_output@@V?$positional_parameter_base@_WV?$stream_output_adapter@_W@__crt_stdio_output@@@2@@__crt_stdio_output@@AEAAX_K_N@Z 0000000140035340 f i libucrt:output.obj
 0001:000343e8       ??$type_case_integer_parse_into_buffer@_K$07@?$output_processor@_WV?$stream_output_adapter@_W@__crt_stdio_output@@V?$standard_base@_WV?$stream_output_adapter@_W@__crt_stdio_output@@@2@@__crt_stdio_output@@AEAAX_K_N@Z 00000001400353e8 f i libucrt:output.obj
 0001:00034490       ??$type_case_integer_parse_into_buffer@_K$07@?$output_processor@_WV?$string_output_adapter@_W@__crt_stdio_output@@V?$format_validation_base@_WV?$string_output_adapter@_W@__crt_stdio_output@@@2@@__crt_stdio_output@@AEAAX_K_N@Z 0000000140035490 f i libucrt:output.obj
 0001:00034538       ??$type_case_integer_parse_into_buffer@_K$07@?$output_processor@_WV?$string_output_adapter@_W@__crt_stdio_output@@V?$positional_parameter_base@_WV?$string_output_adapter@_W@__crt_stdio_output@@@2@@__crt_stdio_output@@AEAAX_K_N@Z 0000000140035538 f i libucrt:output.obj
 0001:000345e0       ??$type_case_integer_parse_into_buffer@_K$07@?$output_processor@_WV?$string_output_adapter@_W@__crt_stdio_output@@V?$standard_base@_WV?$string_output_adapter@_W@__crt_stdio_output@@@2@@__crt_stdio_output@@AEAAX_K_N@Z 00000001400355e0 f i libucrt:output.obj
 0001:00034688       ??$type_case_integer_parse_into_buffer@_K$09@?$output_processor@DV?$stream_output_adapter@D@__crt_stdio_output@@V?$format_validation_base@DV?$stream_output_adapter@D@__crt_stdio_output@@@2@@__crt_stdio_output@@AEAAX_K_N@Z 0000000140035688 f i libucrt:output.obj
 0001:00034764       ??$type_case_integer_parse_into_buffer@_K$09@?$output_processor@DV?$stream_output_adapter@D@__crt_stdio_output@@V?$positional_parameter_base@DV?$stream_output_adapter@D@__crt_stdio_output@@@2@@__crt_stdio_output@@AEAAX_K_N@Z 0000000140035764 f i libucrt:output.obj
 0001:00034840       ??$type_case_integer_parse_into_buffer@_K$09@?$output_processor@DV?$stream_output_adapter@D@__crt_stdio_output@@V?$standard_base@DV?$stream_output_adapter@D@__crt_stdio_output@@@2@@__crt_stdio_output@@AEAAX_K_N@Z 0000000140035840 f i libucrt:output.obj
 0001:0003491c       ??$type_case_integer_parse_into_buffer@_K$09@?$output_processor@DV?$string_output_adapter@D@__crt_stdio_output@@V?$format_validation_base@DV?$string_output_adapter@D@__crt_stdio_output@@@2@@__crt_stdio_output@@AEAAX_K_N@Z 000000014003591c f i libucrt:output.obj
 0001:000349f8       ??$type_case_integer_parse_into_buffer@_K$09@?$output_processor@DV?$string_output_adapter@D@__crt_stdio_output@@V?$positional_parameter_base@DV?$string_output_adapter@D@__crt_stdio_output@@@2@@__crt_stdio_output@@AEAAX_K_N@Z 00000001400359f8 f i libucrt:output.obj
 0001:00034ad4       ??$type_case_integer_parse_into_buffer@_K$09@?$output_processor@DV?$string_output_adapter@D@__crt_stdio_output@@V?$standard_base@DV?$string_output_adapter@D@__crt_stdio_output@@@2@@__crt_stdio_output@@AEAAX_K_N@Z 0000000140035ad4 f i libucrt:output.obj
 0001:00034bb0       ??$type_case_integer_parse_into_buffer@_K$09@?$output_processor@_WV?$stream_output_adapter@_W@__crt_stdio_output@@V?$format_validation_base@_WV?$stream_output_adapter@_W@__crt_stdio_output@@@2@@__crt_stdio_output@@AEAAX_K_N@Z 0000000140035bb0 f i libucrt:output.obj
 0001:00034ca4       ??$type_case_integer_parse_into_buffer@_K$09@?$output_processor@_WV?$stream_output_adapter@_W@__crt_stdio_output@@V?$positional_parameter_base@_WV?$stream_output_adapter@_W@__crt_stdio_output@@@2@@__crt_stdio_output@@AEAAX_K_N@Z 0000000140035ca4 f i libucrt:output.obj
 0001:00034d98       ??$type_case_integer_parse_into_buffer@_K$09@?$output_processor@_WV?$stream_output_adapter@_W@__crt_stdio_output@@V?$standard_base@_WV?$stream_output_adapter@_W@__crt_stdio_output@@@2@@__crt_stdio_output@@AEAAX_K_N@Z 0000000140035d98 f i libucrt:output.obj
 0001:00034e8c       ??$type_case_integer_parse_into_buffer@_K$09@?$output_processor@_WV?$string_output_adapter@_W@__crt_stdio_output@@V?$format_validation_base@_WV?$string_output_adapter@_W@__crt_stdio_output@@@2@@__crt_stdio_output@@AEAAX_K_N@Z 0000000140035e8c f i libucrt:output.obj
 0001:00034f80       ??$type_case_integer_parse_into_buffer@_K$09@?$output_processor@_WV?$string_output_adapter@_W@__crt_stdio_output@@V?$positional_parameter_base@_WV?$string_output_adapter@_W@__crt_stdio_output@@@2@@__crt_stdio_output@@AEAAX_K_N@Z 0000000140035f80 f i libucrt:output.obj
 0001:00035074       ??$type_case_integer_parse_into_buffer@_K$09@?$output_processor@_WV?$string_output_adapter@_W@__crt_stdio_output@@V?$standard_base@_WV?$string_output_adapter@_W@__crt_stdio_output@@@2@@__crt_stdio_output@@AEAAX_K_N@Z 0000000140036074 f i libucrt:output.obj
 0001:00035168       ??$type_case_integer_parse_into_buffer@_K$0BA@@?$output_processor@DV?$stream_output_adapter@D@__crt_stdio_output@@V?$format_validation_base@DV?$stream_output_adapter@D@__crt_stdio_output@@@2@@__crt_stdio_output@@AEAAX_K_N@Z 0000000140036168 f i libucrt:output.obj
 0001:00035210       ??$type_case_integer_parse_into_buffer@_K$0BA@@?$output_processor@DV?$stream_output_adapter@D@__crt_stdio_output@@V?$positional_parameter_base@DV?$stream_output_adapter@D@__crt_stdio_output@@@2@@__crt_stdio_output@@AEAAX_K_N@Z 0000000140036210 f i libucrt:output.obj
 0001:000352b8       ??$type_case_integer_parse_into_buffer@_K$0BA@@?$output_processor@DV?$stream_output_adapter@D@__crt_stdio_output@@V?$standard_base@DV?$stream_output_adapter@D@__crt_stdio_output@@@2@@__crt_stdio_output@@AEAAX_K_N@Z 00000001400362b8 f i libucrt:output.obj
 0001:00035360       ??$type_case_integer_parse_into_buffer@_K$0BA@@?$output_processor@DV?$string_output_adapter@D@__crt_stdio_output@@V?$format_validation_base@DV?$string_output_adapter@D@__crt_stdio_output@@@2@@__crt_stdio_output@@AEAAX_K_N@Z 0000000140036360 f i libucrt:output.obj
 0001:00035408       ??$type_case_integer_parse_into_buffer@_K$0BA@@?$output_processor@DV?$string_output_adapter@D@__crt_stdio_output@@V?$positional_parameter_base@DV?$string_output_adapter@D@__crt_stdio_output@@@2@@__crt_stdio_output@@AEAAX_K_N@Z 0000000140036408 f i libucrt:output.obj
 0001:000354b0       ??$type_case_integer_parse_into_buffer@_K$0BA@@?$output_processor@DV?$string_output_adapter@D@__crt_stdio_output@@V?$standard_base@DV?$string_output_adapter@D@__crt_stdio_output@@@2@@__crt_stdio_output@@AEAAX_K_N@Z 00000001400364b0 f i libucrt:output.obj
 0001:00035558       ??$type_case_integer_parse_into_buffer@_K$0BA@@?$output_processor@_WV?$stream_output_adapter@_W@__crt_stdio_output@@V?$format_validation_base@_WV?$stream_output_adapter@_W@__crt_stdio_output@@@2@@__crt_stdio_output@@AEAAX_K_N@Z 0000000140036558 f i libucrt:output.obj
 0001:00035620       ??$type_case_integer_parse_into_buffer@_K$0BA@@?$output_processor@_WV?$stream_output_adapter@_W@__crt_stdio_output@@V?$positional_parameter_base@_WV?$stream_output_adapter@_W@__crt_stdio_output@@@2@@__crt_stdio_output@@AEAAX_K_N@Z 0000000140036620 f i libucrt:output.obj
 0001:000356e8       ??$type_case_integer_parse_into_buffer@_K$0BA@@?$output_processor@_WV?$stream_output_adapter@_W@__crt_stdio_output@@V?$standard_base@_WV?$stream_output_adapter@_W@__crt_stdio_output@@@2@@__crt_stdio_output@@AEAAX_K_N@Z 00000001400366e8 f i libucrt:output.obj
 0001:000357b0       ??$type_case_integer_parse_into_buffer@_K$0BA@@?$output_processor@_WV?$string_output_adapter@_W@__crt_stdio_output@@V?$format_validation_base@_WV?$string_output_adapter@_W@__crt_stdio_output@@@2@@__crt_stdio_output@@AEAAX_K_N@Z 00000001400367b0 f i libucrt:output.obj
 0001:00035878       ??$type_case_integer_parse_into_buffer@_K$0BA@@?$output_processor@_WV?$string_output_adapter@_W@__crt_stdio_output@@V?$positional_parameter_base@_WV?$string_output_adapter@_W@__crt_stdio_output@@@2@@__crt_stdio_output@@AEAAX_K_N@Z 0000000140036878 f i libucrt:output.obj
 0001:00035940       ??$type_case_integer_parse_into_buffer@_K$0BA@@?$output_processor@_WV?$string_output_adapter@_W@__crt_stdio_output@@V?$standard_base@_WV?$string_output_adapter@_W@__crt_stdio_output@@@2@@__crt_stdio_output@@AEAAX_K_N@Z 0000000140036940 f i libucrt:output.obj
 0001:00035a08       ??$write_multiple_characters@V?$stream_output_adapter@D@__crt_stdio_output@@D@__crt_stdio_output@@YAXAEBV?$stream_output_adapter@D@0@DHQEAHAEAV__crt_cached_ptd_host@@@Z 0000000140036a08 f i libucrt:output.obj
 0001:00035ac0       ??$write_multiple_characters@V?$stream_output_adapter@_W@__crt_stdio_output@@D@__crt_stdio_output@@YAXAEBV?$stream_output_adapter@_W@0@DHQEAHAEAV__crt_cached_ptd_host@@@Z 0000000140036ac0 f i libucrt:output.obj
 0001:00035b7c       ??$write_multiple_characters@V?$string_output_adapter@D@__crt_stdio_output@@D@__crt_stdio_output@@YAXAEBV?$string_output_adapter@D@0@DHQEAHAEAV__crt_cached_ptd_host@@@Z 0000000140036b7c f i libucrt:output.obj
 0001:00035c10       ??$write_multiple_characters@V?$string_output_adapter@_W@__crt_stdio_output@@D@__crt_stdio_output@@YAXAEBV?$string_output_adapter@_W@0@DHQEAHAEAV__crt_cached_ptd_host@@@Z 0000000140036c10 f i libucrt:output.obj
 0001:00035e3c       ??0?$c_string_character_source@D@__crt_strtox@@QEAA@QEBDQEAPEBD@Z 0000000140036e3c f i libucrt:output.obj
 0001:00035e54       ??0?$c_string_character_source@_W@__crt_strtox@@QEAA@QEB_WQEAPEB_W@Z 0000000140036e54 f i libucrt:output.obj
 0001:00035e6c       ??0?$common_data@D@__crt_stdio_output@@IEAA@AEAV__crt_cached_ptd_host@@@Z 0000000140036e6c f i libucrt:output.obj
 0001:00035eb4       ??0?$common_data@_W@__crt_stdio_output@@IEAA@AEAV__crt_cached_ptd_host@@@Z 0000000140036eb4 f i libucrt:output.obj
 0001:00035f00       ??0?$output_adapter_data@DV?$stream_output_adapter@D@__crt_stdio_output@@@__crt_stdio_output@@IEAA@AEBV?$stream_output_adapter@D@1@_KQEBDAEAV__crt_cached_ptd_host@@QEAD@Z 0000000140036f00 f i libucrt:output.obj
 0001:00035f78       ??0?$output_adapter_data@DV?$string_output_adapter@D@__crt_stdio_output@@@__crt_stdio_output@@IEAA@AEBV?$string_output_adapter@D@1@_KQEBDAEAV__crt_cached_ptd_host@@QEAD@Z 0000000140036f78 f i libucrt:output.obj
 0001:00035ff0       ??0?$output_adapter_data@_WV?$stream_output_adapter@_W@__crt_stdio_output@@@__crt_stdio_output@@IEAA@AEBV?$stream_output_adapter@_W@1@_KQEB_WAEAV__crt_cached_ptd_host@@QEAD@Z 0000000140036ff0 f i libucrt:output.obj
 0001:00036070       ??0?$output_adapter_data@_WV?$string_output_adapter@_W@__crt_stdio_output@@@__crt_stdio_output@@IEAA@AEBV?$string_output_adapter@_W@1@_KQEB_WAEAV__crt_cached_ptd_host@@QEAD@Z 0000000140037070 f i libucrt:output.obj
 0001:000360f0       ??0?$output_processor@DV?$stream_output_adapter@D@__crt_stdio_output@@V?$format_validation_base@DV?$stream_output_adapter@D@__crt_stdio_output@@@2@@__crt_stdio_output@@QEAA@AEBV?$stream_output_adapter@D@1@_KQEBDAEAV__crt_cached_ptd_host@@QEAD@Z 00000001400370f0 f i libucrt:output.obj
 0001:00036170       ??0?$output_processor@DV?$stream_output_adapter@D@__crt_stdio_output@@V?$positional_parameter_base@DV?$stream_output_adapter@D@__crt_stdio_output@@@2@@__crt_stdio_output@@QEAA@AEBV?$stream_output_adapter@D@1@_KQEBDAEAV__crt_cached_ptd_host@@QEAD@Z 0000000140037170 f i libucrt:output.obj
 0001:00036218       ??0?$output_processor@DV?$stream_output_adapter@D@__crt_stdio_output@@V?$standard_base@DV?$stream_output_adapter@D@__crt_stdio_output@@@2@@__crt_stdio_output@@QEAA@AEBV?$stream_output_adapter@D@1@_KQEBDAEAV__crt_cached_ptd_host@@QEAD@Z 0000000140037218 f i libucrt:output.obj
 0001:00036298       ??0?$output_processor@DV?$string_output_adapter@D@__crt_stdio_output@@V?$format_validation_base@DV?$string_output_adapter@D@__crt_stdio_output@@@2@@__crt_stdio_output@@QEAA@AEBV?$string_output_adapter@D@1@_KQEBDAEAV__crt_cached_ptd_host@@QEAD@Z 0000000140037298 f i libucrt:output.obj
 0001:00036318       ??0?$output_processor@DV?$string_output_adapter@D@__crt_stdio_output@@V?$positional_parameter_base@DV?$string_output_adapter@D@__crt_stdio_output@@@2@@__crt_stdio_output@@QEAA@AEBV?$string_output_adapter@D@1@_KQEBDAEAV__crt_cached_ptd_host@@QEAD@Z 0000000140037318 f i libucrt:output.obj
 0001:000363c0       ??0?$output_processor@DV?$string_output_adapter@D@__crt_stdio_output@@V?$standard_base@DV?$string_output_adapter@D@__crt_stdio_output@@@2@@__crt_stdio_output@@QEAA@AEBV?$string_output_adapter@D@1@_KQEBDAEAV__crt_cached_ptd_host@@QEAD@Z 00000001400373c0 f i libucrt:output.obj
 0001:00036440       ??0?$output_processor@_WV?$stream_output_adapter@_W@__crt_stdio_output@@V?$format_validation_base@_WV?$stream_output_adapter@_W@__crt_stdio_output@@@2@@__crt_stdio_output@@QEAA@AEBV?$stream_output_adapter@_W@1@_KQEB_WAEAV__crt_cached_ptd_host@@QEAD@Z 0000000140037440 f i libucrt:output.obj
 0001:000364c8       ??0?$output_processor@_WV?$stream_output_adapter@_W@__crt_stdio_output@@V?$positional_parameter_base@_WV?$stream_output_adapter@_W@__crt_stdio_output@@@2@@__crt_stdio_output@@QEAA@AEBV?$stream_output_adapter@_W@1@_KQEB_WAEAV__crt_cached_ptd_host@@QEAD@Z 00000001400374c8 f i libucrt:output.obj
 0001:00036574       ??0?$output_processor@_WV?$stream_output_adapter@_W@__crt_stdio_output@@V?$standard_base@_WV?$stream_output_adapter@_W@__crt_stdio_output@@@2@@__crt_stdio_output@@QEAA@AEBV?$stream_output_adapter@_W@1@_KQEB_WAEAV__crt_cached_ptd_host@@QEAD@Z 0000000140037574 f i libucrt:output.obj
 0001:000365fc       ??0?$output_processor@_WV?$string_output_adapter@_W@__crt_stdio_output@@V?$format_validation_base@_WV?$string_output_adapter@_W@__crt_stdio_output@@@2@@__crt_stdio_output@@QEAA@AEBV?$string_output_adapter@_W@1@_KQEB_WAEAV__crt_cached_ptd_host@@QEAD@Z 00000001400375fc f i libucrt:output.obj
 0001:00036684       ??0?$output_processor@_WV?$string_output_adapter@_W@__crt_stdio_output@@V?$positional_parameter_base@_WV?$string_output_adapter@_W@__crt_stdio_output@@@2@@__crt_stdio_output@@QEAA@AEBV?$string_output_adapter@_W@1@_KQEB_WAEAV__crt_cached_ptd_host@@QEAD@Z 0000000140037684 f i libucrt:output.obj
 0001:00036730       ??0?$output_processor@_WV?$string_output_adapter@_W@__crt_stdio_output@@V?$standard_base@_WV?$string_output_adapter@_W@__crt_stdio_output@@@2@@__crt_stdio_output@@QEAA@AEBV?$string_output_adapter@_W@1@_KQEB_WAEAV__crt_cached_ptd_host@@QEAD@Z 0000000140037730 f i libucrt:output.obj
 0001:000367b8       ??0?$stream_output_adapter@D@__crt_stdio_output@@QEAA@QEAU_iobuf@@@Z 00000001400377b8 f i libucrt:output.obj
 0001:000367c0       ??0?$stream_output_adapter@_W@__crt_stdio_output@@QEAA@QEAU_iobuf@@@Z 00000001400377c0 f i libucrt:output.obj
 0001:000367c8       ??0?$string_output_adapter@D@__crt_stdio_output@@QEAA@QEAU?$string_output_adapter_context@D@1@@Z 00000001400377c8 f i libucrt:output.obj
 0001:000367d0       ??0?$string_output_adapter@_W@__crt_stdio_output@@QEAA@QEAU?$string_output_adapter_context@_W@1@@Z 00000001400377d0 f i libucrt:output.obj
 0001:000367d8       ??0__acrt_stdio_temporary_buffering_guard@@QEAA@QEAU_iobuf@@AEAV__crt_cached_ptd_host@@@Z 00000001400377d8 f i libucrt:output.obj
 0001:00036808       ??0formatting_buffer@__crt_stdio_output@@QEAA@XZ 0000000140037808 f i libucrt:output.obj
 0001:00036824       ??0guard@?$cached@H@__crt_cached_ptd_host@@QEAA@AEAU12@@Z 0000000140037824 f i libucrt:output.obj
 0001:0003683c       ??1?$c_string_character_source@D@__crt_strtox@@QEAA@XZ 000000014003783c f i libucrt:output.obj
 0001:00036850       ??1?$c_string_character_source@_W@__crt_strtox@@QEAA@XZ 0000000140037850 f i libucrt:output.obj
 0001:00036864       ??1?$common_data@D@__crt_stdio_output@@QEAA@XZ 0000000140037864 f i libucrt:output.obj
 0001:00036890       ??1?$common_data@_W@__crt_stdio_output@@QEAA@XZ 0000000140037890 f i libucrt:output.obj
 0001:000368bc       ??1?$format_validation_base@DV?$stream_output_adapter@D@__crt_stdio_output@@@__crt_stdio_output@@QEAA@XZ 00000001400378bc f i libucrt:output.obj
 0001:000368e8       ??1?$format_validation_base@DV?$string_output_adapter@D@__crt_stdio_output@@@__crt_stdio_output@@QEAA@XZ 00000001400378e8 f i libucrt:output.obj
 0001:00036914       ??1?$format_validation_base@_WV?$stream_output_adapter@_W@__crt_stdio_output@@@__crt_stdio_output@@QEAA@XZ 0000000140037914 f i libucrt:output.obj
 0001:00036940       ??1?$format_validation_base@_WV?$string_output_adapter@_W@__crt_stdio_output@@@__crt_stdio_output@@QEAA@XZ 0000000140037940 f i libucrt:output.obj
 0001:0003696c       ??1?$output_adapter_data@DV?$stream_output_adapter@D@__crt_stdio_output@@@__crt_stdio_output@@QEAA@XZ 000000014003796c f i libucrt:output.obj
 0001:00036998       ??1?$output_adapter_data@DV?$string_output_adapter@D@__crt_stdio_output@@@__crt_stdio_output@@QEAA@XZ 0000000140037998 f i libucrt:output.obj
 0001:000369c4       ??1?$output_adapter_data@_WV?$stream_output_adapter@_W@__crt_stdio_output@@@__crt_stdio_output@@QEAA@XZ 00000001400379c4 f i libucrt:output.obj
 0001:000369f0       ??1?$output_adapter_data@_WV?$string_output_adapter@_W@__crt_stdio_output@@@__crt_stdio_output@@QEAA@XZ 00000001400379f0 f i libucrt:output.obj
 0001:00036a1c       ??1?$output_processor@DV?$stream_output_adapter@D@__crt_stdio_output@@V?$format_validation_base@DV?$stream_output_adapter@D@__crt_stdio_output@@@2@@__crt_stdio_output@@QEAA@XZ 0000000140037a1c f i libucrt:output.obj
 0001:00036a48       ??1?$output_processor@DV?$stream_output_adapter@D@__crt_stdio_output@@V?$positional_parameter_base@DV?$stream_output_adapter@D@__crt_stdio_output@@@2@@__crt_stdio_output@@QEAA@XZ 0000000140037a48 f i libucrt:output.obj
 0001:00036a74       ??1?$output_processor@DV?$stream_output_adapter@D@__crt_stdio_output@@V?$standard_base@DV?$stream_output_adapter@D@__crt_stdio_output@@@2@@__crt_stdio_output@@QEAA@XZ 0000000140037a74 f i libucrt:output.obj
 0001:00036aa0       ??1?$output_processor@DV?$string_output_adapter@D@__crt_stdio_output@@V?$format_validation_base@DV?$string_output_adapter@D@__crt_stdio_output@@@2@@__crt_stdio_output@@QEAA@XZ 0000000140037aa0 f i libucrt:output.obj
 0001:00036acc       ??1?$output_processor@DV?$string_output_adapter@D@__crt_stdio_output@@V?$positional_parameter_base@DV?$string_output_adapter@D@__crt_stdio_output@@@2@@__crt_stdio_output@@QEAA@XZ 0000000140037acc f i libucrt:output.obj
 0001:00036af8       ??1?$output_processor@DV?$string_output_adapter@D@__crt_stdio_output@@V?$standard_base@DV?$string_output_adapter@D@__crt_stdio_output@@@2@@__crt_stdio_output@@QEAA@XZ 0000000140037af8 f i libucrt:output.obj
 0001:00036b24       ??1?$output_processor@_WV?$stream_output_adapter@_W@__crt_stdio_output@@V?$format_validation_base@_WV?$stream_output_adapter@_W@__crt_stdio_output@@@2@@__crt_stdio_output@@QEAA@XZ 0000000140037b24 f i libucrt:output.obj
 0001:00036b50       ??1?$output_processor@_WV?$stream_output_adapter@_W@__crt_stdio_output@@V?$positional_parameter_base@_WV?$stream_output_adapter@_W@__crt_stdio_output@@@2@@__crt_stdio_output@@QEAA@XZ 0000000140037b50 f i libucrt:output.obj
 0001:00036b7c       ??1?$output_processor@_WV?$stream_output_adapter@_W@__crt_stdio_output@@V?$standard_base@_WV?$stream_output_adapter@_W@__crt_stdio_output@@@2@@__crt_stdio_output@@QEAA@XZ 0000000140037b7c f i libucrt:output.obj
 0001:00036ba8       ??1?$output_processor@_WV?$string_output_adapter@_W@__crt_stdio_output@@V?$format_validation_base@_WV?$string_output_adapter@_W@__crt_stdio_output@@@2@@__crt_stdio_output@@QEAA@XZ 0000000140037ba8 f i libucrt:output.obj
 0001:00036bd4       ??1?$output_processor@_WV?$string_output_adapter@_W@__crt_stdio_output@@V?$positional_parameter_base@_WV?$string_output_adapter@_W@__crt_stdio_output@@@2@@__crt_stdio_output@@QEAA@XZ 0000000140037bd4 f i libucrt:output.obj
 0001:00036c00       ??1?$output_processor@_WV?$string_output_adapter@_W@__crt_stdio_output@@V?$standard_base@_WV?$string_output_adapter@_W@__crt_stdio_output@@@2@@__crt_stdio_output@@QEAA@XZ 0000000140037c00 f i libucrt:output.obj
 0001:00036c2c       ??1?$positional_parameter_base@DV?$stream_output_adapter@D@__crt_stdio_output@@@__crt_stdio_output@@QEAA@XZ 0000000140037c2c f i libucrt:output.obj
 0001:00036c58       ??1?$positional_parameter_base@DV?$string_output_adapter@D@__crt_stdio_output@@@__crt_stdio_output@@QEAA@XZ 0000000140037c58 f i libucrt:output.obj
 0001:00036c84       ??1?$positional_parameter_base@_WV?$stream_output_adapter@_W@__crt_stdio_output@@@__crt_stdio_output@@QEAA@XZ 0000000140037c84 f i libucrt:output.obj
 0001:00036cb0       ??1?$positional_parameter_base@_WV?$string_output_adapter@_W@__crt_stdio_output@@@__crt_stdio_output@@QEAA@XZ 0000000140037cb0 f i libucrt:output.obj
 0001:00036cdc       ??1?$standard_base@DV?$stream_output_adapter@D@__crt_stdio_output@@@__crt_stdio_output@@QEAA@XZ 0000000140037cdc f i libucrt:output.obj
 0001:00036d08       ??1?$standard_base@DV?$string_output_adapter@D@__crt_stdio_output@@@__crt_stdio_output@@QEAA@XZ 0000000140037d08 f i libucrt:output.obj
 0001:00036d34       ??1?$standard_base@_WV?$stream_output_adapter@_W@__crt_stdio_output@@@__crt_stdio_output@@QEAA@XZ 0000000140037d34 f i libucrt:output.obj
 0001:00036d60       ??1?$standard_base@_WV?$string_output_adapter@_W@__crt_stdio_output@@@__crt_stdio_output@@QEAA@XZ 0000000140037d60 f i libucrt:output.obj
 0001:00036d8c       ??1__acrt_stdio_temporary_buffering_guard@@QEAA@XZ 0000000140037d8c f i libucrt:output.obj
 0001:00036da0       ??1formatting_buffer@__crt_stdio_output@@QEAA@XZ 0000000140037da0 f i libucrt:output.obj
 0001:00036dcc       ??1guard@?$cached@H@__crt_cached_ptd_host@@QEAA@XZ 0000000140037dcc f i libucrt:output.obj
 0001:00036de4       ??4?$__crt_unique_heap_ptr@DU__crt_internal_free_policy@@@@QEAAAEAV0@$$QEAV0@@Z 0000000140037de4 f i libucrt:output.obj
 0001:00036e28       ??A?$spectre_mitigated_lookup_table@Ustate_transition_pair@__crt_stdio_output@@$0IA@@__crt_stdio_output@@QEBAAEBUstate_transition_pair@1@_K@Z 0000000140037e28 f i libucrt:output.obj
 0001:00037764       ?adjust_hexit@?$output_processor@DV?$stream_output_adapter@D@__crt_stdio_output@@V?$format_validation_base@DV?$stream_output_adapter@D@__crt_stdio_output@@@2@@__crt_stdio_output@@CADH_N@Z 0000000140038764 f i libucrt:output.obj
 0001:00037774       ?adjust_hexit@?$output_processor@DV?$stream_output_adapter@D@__crt_stdio_output@@V?$positional_parameter_base@DV?$stream_output_adapter@D@__crt_stdio_output@@@2@@__crt_stdio_output@@CADH_N@Z 0000000140038774 f i libucrt:output.obj
 0001:00037784       ?adjust_hexit@?$output_processor@DV?$stream_output_adapter@D@__crt_stdio_output@@V?$standard_base@DV?$stream_output_adapter@D@__crt_stdio_output@@@2@@__crt_stdio_output@@CADH_N@Z 0000000140038784 f i libucrt:output.obj
 0001:00037794       ?adjust_hexit@?$output_processor@DV?$string_output_adapter@D@__crt_stdio_output@@V?$format_validation_base@DV?$string_output_adapter@D@__crt_stdio_output@@@2@@__crt_stdio_output@@CADH_N@Z 0000000140038794 f i libucrt:output.obj
 0001:000377a4       ?adjust_hexit@?$output_processor@DV?$string_output_adapter@D@__crt_stdio_output@@V?$positional_parameter_base@DV?$string_output_adapter@D@__crt_stdio_output@@@2@@__crt_stdio_output@@CADH_N@Z 00000001400387a4 f i libucrt:output.obj
 0001:000377b4       ?adjust_hexit@?$output_processor@DV?$string_output_adapter@D@__crt_stdio_output@@V?$standard_base@DV?$string_output_adapter@D@__crt_stdio_output@@@2@@__crt_stdio_output@@CADH_N@Z 00000001400387b4 f i libucrt:output.obj
 0001:000377c4       ?adjust_hexit@?$output_processor@_WV?$stream_output_adapter@_W@__crt_stdio_output@@V?$format_validation_base@_WV?$stream_output_adapter@_W@__crt_stdio_output@@@2@@__crt_stdio_output@@CADH_N@Z 00000001400387c4 f i libucrt:output.obj
 0001:000377d4       ?adjust_hexit@?$output_processor@_WV?$stream_output_adapter@_W@__crt_stdio_output@@V?$positional_parameter_base@_WV?$stream_output_adapter@_W@__crt_stdio_output@@@2@@__crt_stdio_output@@CADH_N@Z 00000001400387d4 f i libucrt:output.obj
 0001:000377e4       ?adjust_hexit@?$output_processor@_WV?$stream_output_adapter@_W@__crt_stdio_output@@V?$standard_base@_WV?$stream_output_adapter@_W@__crt_stdio_output@@@2@@__crt_stdio_output@@CADH_N@Z 00000001400387e4 f i libucrt:output.obj
 0001:000377f4       ?adjust_hexit@?$output_processor@_WV?$string_output_adapter@_W@__crt_stdio_output@@V?$format_validation_base@_WV?$string_output_adapter@_W@__crt_stdio_output@@@2@@__crt_stdio_output@@CADH_N@Z 00000001400387f4 f i libucrt:output.obj
 0001:00037804       ?adjust_hexit@?$output_processor@_WV?$string_output_adapter@_W@__crt_stdio_output@@V?$positional_parameter_base@_WV?$string_output_adapter@_W@__crt_stdio_output@@@2@@__crt_stdio_output@@CADH_N@Z 0000000140038804 f i libucrt:output.obj
 0001:00037814       ?adjust_hexit@?$output_processor@_WV?$string_output_adapter@_W@__crt_stdio_output@@V?$standard_base@_WV?$string_output_adapter@_W@__crt_stdio_output@@@2@@__crt_stdio_output@@CADH_N@Z 0000000140038814 f i libucrt:output.obj
 0001:00037824       ?advance_to_next_pass@?$positional_parameter_base@DV?$stream_output_adapter@D@__crt_stdio_output@@@__crt_stdio_output@@IEAA_NXZ 0000000140038824 f i libucrt:output.obj
 0001:0003788c       ?advance_to_next_pass@?$positional_parameter_base@DV?$string_output_adapter@D@__crt_stdio_output@@@__crt_stdio_output@@IEAA_NXZ 000000014003888c f i libucrt:output.obj
 0001:000378f4       ?advance_to_next_pass@?$positional_parameter_base@_WV?$stream_output_adapter@_W@__crt_stdio_output@@@__crt_stdio_output@@IEAA_NXZ 00000001400388f4 f i libucrt:output.obj
 0001:0003795c       ?advance_to_next_pass@?$positional_parameter_base@_WV?$string_output_adapter@_W@__crt_stdio_output@@@__crt_stdio_output@@IEAA_NXZ 000000014003895c f i libucrt:output.obj
 0001:000379c4       ?advance_to_next_pass@?$standard_base@DV?$stream_output_adapter@D@__crt_stdio_output@@@__crt_stdio_output@@IEAA_NXZ 00000001400389c4 f i libucrt:output.obj
 0001:000379dc       ?advance_to_next_pass@?$standard_base@DV?$string_output_adapter@D@__crt_stdio_output@@@__crt_stdio_output@@IEAA_NXZ 00000001400389dc f i libucrt:output.obj
 0001:000379f4       ?advance_to_next_pass@?$standard_base@_WV?$stream_output_adapter@_W@__crt_stdio_output@@@__crt_stdio_output@@IEAA_NXZ 00000001400389f4 f i libucrt:output.obj
 0001:00037a0c       ?advance_to_next_pass@?$standard_base@_WV?$string_output_adapter@_W@__crt_stdio_output@@@__crt_stdio_output@@IEAA_NXZ 0000000140038a0c f i libucrt:output.obj
 0001:00037a24       ?check@?$cached@H@__crt_cached_ptd_host@@QEBA_NH@Z 0000000140038a24 f i libucrt:output.obj
 0001:00037a38       ?create_guard@?$cached@H@__crt_cached_ptd_host@@QEAA?AVguard@12@XZ 0000000140038a38 f i libucrt:output.obj
 0001:00037a50       ?crop_zeroes@__crt_stdio_output@@YAXPEADQEAU__crt_locale_pointers@@@Z 0000000140038a50 f i libucrt:output.obj
 0001:00037ad4       ?disable@guard@?$cached@H@__crt_cached_ptd_host@@QEAAXXZ 0000000140038ad4 f i libucrt:output.obj
 0001:00037adc       ?enable@guard@?$cached@H@__crt_cached_ptd_host@@QEAAXXZ 0000000140038adc f i libucrt:output.obj
 0001:00037ae4       ?find_next_state@?$output_processor@DV?$stream_output_adapter@D@__crt_stdio_output@@V?$format_validation_base@DV?$stream_output_adapter@D@__crt_stdio_output@@@2@@__crt_stdio_output@@AEBA?AW4state@2@DW432@@Z 0000000140038ae4 f i libucrt:output.obj
 0001:00037b28       ?find_next_state@?$output_processor@DV?$stream_output_adapter@D@__crt_stdio_output@@V?$positional_parameter_base@DV?$stream_output_adapter@D@__crt_stdio_output@@@2@@__crt_stdio_output@@AEBA?AW4state@2@DW432@@Z 0000000140038b28 f i libucrt:output.obj
 0001:00037b6c       ?find_next_state@?$output_processor@DV?$stream_output_adapter@D@__crt_stdio_output@@V?$standard_base@DV?$stream_output_adapter@D@__crt_stdio_output@@@2@@__crt_stdio_output@@AEBA?AW4state@2@DW432@@Z 0000000140038b6c f i libucrt:output.obj
 0001:00037bb0       ?find_next_state@?$output_processor@DV?$string_output_adapter@D@__crt_stdio_output@@V?$format_validation_base@DV?$string_output_adapter@D@__crt_stdio_output@@@2@@__crt_stdio_output@@AEBA?AW4state@2@DW432@@Z 0000000140038bb0 f i libucrt:output.obj
 0001:00037bf4       ?find_next_state@?$output_processor@DV?$string_output_adapter@D@__crt_stdio_output@@V?$positional_parameter_base@DV?$string_output_adapter@D@__crt_stdio_output@@@2@@__crt_stdio_output@@AEBA?AW4state@2@DW432@@Z 0000000140038bf4 f i libucrt:output.obj
 0001:00037c38       ?find_next_state@?$output_processor@DV?$string_output_adapter@D@__crt_stdio_output@@V?$standard_base@DV?$string_output_adapter@D@__crt_stdio_output@@@2@@__crt_stdio_output@@AEBA?AW4state@2@DW432@@Z 0000000140038c38 f i libucrt:output.obj
 0001:00037c7c       ?find_next_state@?$output_processor@_WV?$stream_output_adapter@_W@__crt_stdio_output@@V?$format_validation_base@_WV?$stream_output_adapter@_W@__crt_stdio_output@@@2@@__crt_stdio_output@@AEBA?AW4state@2@_WW432@@Z 0000000140038c7c f i libucrt:output.obj
 0001:00037ccc       ?find_next_state@?$output_processor@_WV?$stream_output_adapter@_W@__crt_stdio_output@@V?$positional_parameter_base@_WV?$stream_output_adapter@_W@__crt_stdio_output@@@2@@__crt_stdio_output@@AEBA?AW4state@2@_WW432@@Z 0000000140038ccc f i libucrt:output.obj
 0001:00037d1c       ?find_next_state@?$output_processor@_WV?$stream_output_adapter@_W@__crt_stdio_output@@V?$standard_base@_WV?$stream_output_adapter@_W@__crt_stdio_output@@@2@@__crt_stdio_output@@AEBA?AW4state@2@_WW432@@Z 0000000140038d1c f i libucrt:output.obj
 0001:00037d68       ?find_next_state@?$output_processor@_WV?$string_output_adapter@_W@__crt_stdio_output@@V?$format_validation_base@_WV?$string_output_adapter@_W@__crt_stdio_output@@@2@@__crt_stdio_output@@AEBA?AW4state@2@_WW432@@Z 0000000140038d68 f i libucrt:output.obj
 0001:00037db8       ?find_next_state@?$output_processor@_WV?$string_output_adapter@_W@__crt_stdio_output@@V?$positional_parameter_base@_WV?$string_output_adapter@_W@__crt_stdio_output@@@2@@__crt_stdio_output@@AEBA?AW4state@2@_WW432@@Z 0000000140038db8 f i libucrt:output.obj
 0001:00037e08       ?find_next_state@?$output_processor@_WV?$string_output_adapter@_W@__crt_stdio_output@@V?$standard_base@_WV?$string_output_adapter@_W@__crt_stdio_output@@@2@@__crt_stdio_output@@AEBA?AW4state@2@_WW432@@Z 0000000140038e08 f i libucrt:output.obj
 0001:00037e54       ?force_decimal_point@__crt_stdio_output@@YAXPEADQEAU__crt_locale_pointers@@@Z 0000000140038e54 f i libucrt:output.obj
 0001:00037ecc       ?get@?$c_string_character_source@D@__crt_strtox@@QEAADXZ 0000000140038ecc f i libucrt:output.obj
 0001:00037edc       ?get@?$c_string_character_source@_W@__crt_strtox@@QEAA_WXZ 0000000140038edc f i libucrt:output.obj
 0001:00037ef0       ?get_locale@__crt_cached_ptd_host@@QEAAPEAU__crt_locale_pointers@@XZ 0000000140038ef0 f i libucrt:output.obj
 0001:00037f24       ?get_parameter_type@?$positional_parameter_base@DV?$stream_output_adapter@D@__crt_stdio_output@@@__crt_stdio_output@@CA?AW4parameter_type@12@F@Z 0000000140038f24 f i libucrt:output.obj
 0001:00037f2c       ?get_parameter_type@?$positional_parameter_base@DV?$stream_output_adapter@D@__crt_stdio_output@@@__crt_stdio_output@@CA?AW4parameter_type@12@G@Z 0000000140038f2c f i libucrt:output.obj
 0001:00037f34       ?get_parameter_type@?$positional_parameter_base@DV?$stream_output_adapter@D@__crt_stdio_output@@@__crt_stdio_output@@CA?AW4parameter_type@12@H@Z 0000000140038f34 f i libucrt:output.obj
 0001:00037f3c       ?get_parameter_type@?$positional_parameter_base@DV?$stream_output_adapter@D@__crt_stdio_output@@@__crt_stdio_output@@CA?AW4parameter_type@12@I@Z 0000000140038f3c f i libucrt:output.obj
 0001:00037f44       ?get_parameter_type@?$positional_parameter_base@DV?$stream_output_adapter@D@__crt_stdio_output@@@__crt_stdio_output@@CA?AW4parameter_type@12@U_CRT_DOUBLE@@@Z 0000000140038f44 f i libucrt:output.obj
 0001:00037f4c       ?get_parameter_type@?$positional_parameter_base@DV?$stream_output_adapter@D@__crt_stdio_output@@@__crt_stdio_output@@CA?AW4parameter_type@12@_J@Z 0000000140038f4c f i libucrt:output.obj
 0001:00037f54       ?get_parameter_type@?$positional_parameter_base@DV?$stream_output_adapter@D@__crt_stdio_output@@@__crt_stdio_output@@CA?AW4parameter_type@12@_K@Z 0000000140038f54 f i libucrt:output.obj
 0001:00037f5c       ?get_parameter_type@?$positional_parameter_base@DV?$stream_output_adapter@D@__crt_stdio_output@@@__crt_stdio_output@@CA?AW4parameter_type@12@_W@Z 0000000140038f5c f i libucrt:output.obj
 0001:00037f64       ?get_parameter_type@?$positional_parameter_base@DV?$string_output_adapter@D@__crt_stdio_output@@@__crt_stdio_output@@CA?AW4parameter_type@12@F@Z 0000000140038f64 f i libucrt:output.obj
 0001:00037f6c       ?get_parameter_type@?$positional_parameter_base@DV?$string_output_adapter@D@__crt_stdio_output@@@__crt_stdio_output@@CA?AW4parameter_type@12@G@Z 0000000140038f6c f i libucrt:output.obj
 0001:00037f74       ?get_parameter_type@?$positional_parameter_base@DV?$string_output_adapter@D@__crt_stdio_output@@@__crt_stdio_output@@CA?AW4parameter_type@12@H@Z 0000000140038f74 f i libucrt:output.obj
 0001:00037f7c       ?get_parameter_type@?$positional_parameter_base@DV?$string_output_adapter@D@__crt_stdio_output@@@__crt_stdio_output@@CA?AW4parameter_type@12@I@Z 0000000140038f7c f i libucrt:output.obj
 0001:00037f84       ?get_parameter_type@?$positional_parameter_base@DV?$string_output_adapter@D@__crt_stdio_output@@@__crt_stdio_output@@CA?AW4parameter_type@12@U_CRT_DOUBLE@@@Z 0000000140038f84 f i libucrt:output.obj
 0001:00037f8c       ?get_parameter_type@?$positional_parameter_base@DV?$string_output_adapter@D@__crt_stdio_output@@@__crt_stdio_output@@CA?AW4parameter_type@12@_J@Z 0000000140038f8c f i libucrt:output.obj
 0001:00037f94       ?get_parameter_type@?$positional_parameter_base@DV?$string_output_adapter@D@__crt_stdio_output@@@__crt_stdio_output@@CA?AW4parameter_type@12@_K@Z 0000000140038f94 f i libucrt:output.obj
 0001:00037f9c       ?get_parameter_type@?$positional_parameter_base@DV?$string_output_adapter@D@__crt_stdio_output@@@__crt_stdio_output@@CA?AW4parameter_type@12@_W@Z 0000000140038f9c f i libucrt:output.obj
 0001:00037fa4       ?get_parameter_type@?$positional_parameter_base@_WV?$stream_output_adapter@_W@__crt_stdio_output@@@__crt_stdio_output@@CA?AW4parameter_type@12@F@Z 0000000140038fa4 f i libucrt:output.obj
 0001:00037fac       ?get_parameter_type@?$positional_parameter_base@_WV?$stream_output_adapter@_W@__crt_stdio_output@@@__crt_stdio_output@@CA?AW4parameter_type@12@G@Z 0000000140038fac f i libucrt:output.obj
 0001:00037fb4       ?get_parameter_type@?$positional_parameter_base@_WV?$stream_output_adapter@_W@__crt_stdio_output@@@__crt_stdio_output@@CA?AW4parameter_type@12@H@Z 0000000140038fb4 f i libucrt:output.obj
 0001:00037fbc       ?get_parameter_type@?$positional_parameter_base@_WV?$stream_output_adapter@_W@__crt_stdio_output@@@__crt_stdio_output@@CA?AW4parameter_type@12@I@Z 0000000140038fbc f i libucrt:output.obj
 0001:00037fc4       ?get_parameter_type@?$positional_parameter_base@_WV?$stream_output_adapter@_W@__crt_stdio_output@@@__crt_stdio_output@@CA?AW4parameter_type@12@U_CRT_DOUBLE@@@Z 0000000140038fc4 f i libucrt:output.obj
 0001:00037fcc       ?get_parameter_type@?$positional_parameter_base@_WV?$stream_output_adapter@_W@__crt_stdio_output@@@__crt_stdio_output@@CA?AW4parameter_type@12@_J@Z 0000000140038fcc f i libucrt:output.obj
 0001:00037fd4       ?get_parameter_type@?$positional_parameter_base@_WV?$stream_output_adapter@_W@__crt_stdio_output@@@__crt_stdio_output@@CA?AW4parameter_type@12@_K@Z 0000000140038fd4 f i libucrt:output.obj
 0001:00037fdc       ?get_parameter_type@?$positional_parameter_base@_WV?$stream_output_adapter@_W@__crt_stdio_output@@@__crt_stdio_output@@CA?AW4parameter_type@12@_W@Z 0000000140038fdc f i libucrt:output.obj
 0001:00037fe4       ?get_parameter_type@?$positional_parameter_base@_WV?$string_output_adapter@_W@__crt_stdio_output@@@__crt_stdio_output@@CA?AW4parameter_type@12@F@Z 0000000140038fe4 f i libucrt:output.obj
 0001:00037fec       ?get_parameter_type@?$positional_parameter_base@_WV?$string_output_adapter@_W@__crt_stdio_output@@@__crt_stdio_output@@CA?AW4parameter_type@12@G@Z 0000000140038fec f i libucrt:output.obj
 0001:00037ff4       ?get_parameter_type@?$positional_parameter_base@_WV?$string_output_adapter@_W@__crt_stdio_output@@@__crt_stdio_output@@CA?AW4parameter_type@12@H@Z 0000000140038ff4 f i libucrt:output.obj
 0001:00037ffc       ?get_parameter_type@?$positional_parameter_base@_WV?$string_output_adapter@_W@__crt_stdio_output@@@__crt_stdio_output@@CA?AW4parameter_type@12@I@Z 0000000140038ffc f i libucrt:output.obj
 0001:00038004       ?get_parameter_type@?$positional_parameter_base@_WV?$string_output_adapter@_W@__crt_stdio_output@@@__crt_stdio_output@@CA?AW4parameter_type@12@U_CRT_DOUBLE@@@Z 0000000140039004 f i libucrt:output.obj
 0001:0003800c       ?get_parameter_type@?$positional_parameter_base@_WV?$string_output_adapter@_W@__crt_stdio_output@@@__crt_stdio_output@@CA?AW4parameter_type@12@_J@Z 000000014003900c f i libucrt:output.obj
 0001:00038014       ?get_parameter_type@?$positional_parameter_base@_WV?$string_output_adapter@_W@__crt_stdio_output@@@__crt_stdio_output@@CA?AW4parameter_type@12@_K@Z 0000000140039014 f i libucrt:output.obj
 0001:0003801c       ?get_parameter_type@?$positional_parameter_base@_WV?$string_output_adapter@_W@__crt_stdio_output@@@__crt_stdio_output@@CA?AW4parameter_type@12@_W@Z 000000014003901c f i libucrt:output.obj
 0001:00038024       ?has_flag@?$output_processor@DV?$stream_output_adapter@D@__crt_stdio_output@@V?$format_validation_base@DV?$stream_output_adapter@D@__crt_stdio_output@@@2@@__crt_stdio_output@@AEBA_NI@Z 0000000140039024 f i libucrt:output.obj
 0001:0003802c       ?has_flag@?$output_processor@DV?$stream_output_adapter@D@__crt_stdio_output@@V?$positional_parameter_base@DV?$stream_output_adapter@D@__crt_stdio_output@@@2@@__crt_stdio_output@@AEBA_NI@Z 000000014003902c f i libucrt:output.obj
 0001:00038034       ?has_flag@?$output_processor@DV?$stream_output_adapter@D@__crt_stdio_output@@V?$standard_base@DV?$stream_output_adapter@D@__crt_stdio_output@@@2@@__crt_stdio_output@@AEBA_NI@Z 0000000140039034 f i libucrt:output.obj
 0001:0003803c       ?has_flag@?$output_processor@DV?$string_output_adapter@D@__crt_stdio_output@@V?$format_validation_base@DV?$string_output_adapter@D@__crt_stdio_output@@@2@@__crt_stdio_output@@AEBA_NI@Z 000000014003903c f i libucrt:output.obj
 0001:00038044       ?has_flag@?$output_processor@DV?$string_output_adapter@D@__crt_stdio_output@@V?$positional_parameter_base@DV?$string_output_adapter@D@__crt_stdio_output@@@2@@__crt_stdio_output@@AEBA_NI@Z 0000000140039044 f i libucrt:output.obj
 0001:0003804c       ?has_flag@?$output_processor@DV?$string_output_adapter@D@__crt_stdio_output@@V?$standard_base@DV?$string_output_adapter@D@__crt_stdio_output@@@2@@__crt_stdio_output@@AEBA_NI@Z 000000014003904c f i libucrt:output.obj
 0001:00038054       ?has_flag@?$output_processor@_WV?$stream_output_adapter@_W@__crt_stdio_output@@V?$format_validation_base@_WV?$stream_output_adapter@_W@__crt_stdio_output@@@2@@__crt_stdio_output@@AEBA_NI@Z 0000000140039054 f i libucrt:output.obj
 0001:0003805c       ?has_flag@?$output_processor@_WV?$stream_output_adapter@_W@__crt_stdio_output@@V?$positional_parameter_base@_WV?$stream_output_adapter@_W@__crt_stdio_output@@@2@@__crt_stdio_output@@AEBA_NI@Z 000000014003905c f i libucrt:output.obj
 0001:00038064       ?has_flag@?$output_processor@_WV?$stream_output_adapter@_W@__crt_stdio_output@@V?$standard_base@_WV?$stream_output_adapter@_W@__crt_stdio_output@@@2@@__crt_stdio_output@@AEBA_NI@Z 0000000140039064 f i libucrt:output.obj
 0001:0003806c       ?has_flag@?$output_processor@_WV?$string_output_adapter@_W@__crt_stdio_output@@V?$format_validation_base@_WV?$string_output_adapter@_W@__crt_stdio_output@@@2@@__crt_stdio_output@@AEBA_NI@Z 000000014003906c f i libucrt:output.obj
 0001:00038074       ?has_flag@?$output_processor@_WV?$string_output_adapter@_W@__crt_stdio_output@@V?$positional_parameter_base@_WV?$string_output_adapter@_W@__crt_stdio_output@@@2@@__crt_stdio_output@@AEBA_NI@Z 0000000140039074 f i libucrt:output.obj
 0001:0003807c       ?has_flag@?$output_processor@_WV?$string_output_adapter@_W@__crt_stdio_output@@V?$standard_base@_WV?$string_output_adapter@_W@__crt_stdio_output@@@2@@__crt_stdio_output@@AEBA_NI@Z 000000014003907c f i libucrt:output.obj
 0001:00038084       ?is_positional_parameter_reappearance_consistent@?$positional_parameter_base@DV?$stream_output_adapter@D@__crt_stdio_output@@@__crt_stdio_output@@AEAA_NAEBUparameter_data@12@W4parameter_type@12@DW4length_modifier@2@@Z 0000000140039084 f i libucrt:output.obj
 0001:00038348       ?is_positional_parameter_reappearance_consistent@?$positional_parameter_base@DV?$string_output_adapter@D@__crt_stdio_output@@@__crt_stdio_output@@AEAA_NAEBUparameter_data@12@W4parameter_type@12@DW4length_modifier@2@@Z 0000000140039348 f i libucrt:output.obj
 0001:0003860c       ?is_positional_parameter_reappearance_consistent@?$positional_parameter_base@_WV?$stream_output_adapter@_W@__crt_stdio_output@@@__crt_stdio_output@@AEAA_NAEBUparameter_data@12@W4parameter_type@12@_WW4length_modifier@2@@Z 000000014003960c f i libucrt:output.obj
 0001:00038890       ?is_positional_parameter_reappearance_consistent@?$positional_parameter_base@_WV?$string_output_adapter@_W@__crt_stdio_output@@@__crt_stdio_output@@AEAA_NAEBUparameter_data@12@W4parameter_type@12@_WW4length_modifier@2@@Z 0000000140039890 f i libucrt:output.obj
 0001:00038b14       ?maximum_signed_value@__crt_strtox@@YAJK@Z 0000000140039b14 f i libucrt:output.obj
 0001:00038b1c       ?minimum_signed_value@__crt_strtox@@YAJK@Z 0000000140039b1c f i libucrt:output.obj
 0001:00038b24       ?narrow_null_string@?$output_processor@DV?$stream_output_adapter@D@__crt_stdio_output@@V?$format_validation_base@DV?$stream_output_adapter@D@__crt_stdio_output@@@2@@__crt_stdio_output@@CAPEADXZ 0000000140039b24 f i libucrt:output.obj
 0001:00038b30       ?narrow_null_string@?$output_processor@DV?$stream_output_adapter@D@__crt_stdio_output@@V?$positional_parameter_base@DV?$stream_output_adapter@D@__crt_stdio_output@@@2@@__crt_stdio_output@@CAPEADXZ 0000000140039b30 f i libucrt:output.obj
 0001:00038b3c       ?narrow_null_string@?$output_processor@DV?$stream_output_adapter@D@__crt_stdio_output@@V?$standard_base@DV?$stream_output_adapter@D@__crt_stdio_output@@@2@@__crt_stdio_output@@CAPEADXZ 0000000140039b3c f i libucrt:output.obj
 0001:00038b48       ?narrow_null_string@?$output_processor@DV?$string_output_adapter@D@__crt_stdio_output@@V?$format_validation_base@DV?$string_output_adapter@D@__crt_stdio_output@@@2@@__crt_stdio_output@@CAPEADXZ 0000000140039b48 f i libucrt:output.obj
 0001:00038b54       ?narrow_null_string@?$output_processor@DV?$string_output_adapter@D@__crt_stdio_output@@V?$positional_parameter_base@DV?$string_output_adapter@D@__crt_stdio_output@@@2@@__crt_stdio_output@@CAPEADXZ 0000000140039b54 f i libucrt:output.obj
 0001:00038b60       ?narrow_null_string@?$output_processor@DV?$string_output_adapter@D@__crt_stdio_output@@V?$standard_base@DV?$string_output_adapter@D@__crt_stdio_output@@@2@@__crt_stdio_output@@CAPEADXZ 0000000140039b60 f i libucrt:output.obj
 0001:00038b6c       ?narrow_null_string@?$output_processor@_WV?$stream_output_adapter@_W@__crt_stdio_output@@V?$format_validation_base@_WV?$stream_output_adapter@_W@__crt_stdio_output@@@2@@__crt_stdio_output@@CAPEADXZ 0000000140039b6c f i libucrt:output.obj
 0001:00038b78       ?narrow_null_string@?$output_processor@_WV?$stream_output_adapter@_W@__crt_stdio_output@@V?$positional_parameter_base@_WV?$stream_output_adapter@_W@__crt_stdio_output@@@2@@__crt_stdio_output@@CAPEADXZ 0000000140039b78 f i libucrt:output.obj
 0001:00038b84       ?narrow_null_string@?$output_processor@_WV?$stream_output_adapter@_W@__crt_stdio_output@@V?$standard_base@_WV?$stream_output_adapter@_W@__crt_stdio_output@@@2@@__crt_stdio_output@@CAPEADXZ 0000000140039b84 f i libucrt:output.obj
 0001:00038b90       ?narrow_null_string@?$output_processor@_WV?$string_output_adapter@_W@__crt_stdio_output@@V?$format_validation_base@_WV?$string_output_adapter@_W@__crt_stdio_output@@@2@@__crt_stdio_output@@CAPEADXZ 0000000140039b90 f i libucrt:output.obj
 0001:00038b9c       ?narrow_null_string@?$output_processor@_WV?$string_output_adapter@_W@__crt_stdio_output@@V?$positional_parameter_base@_WV?$string_output_adapter@_W@__crt_stdio_output@@@2@@__crt_stdio_output@@CAPEADXZ 0000000140039b9c f i libucrt:output.obj
 0001:00038ba8       ?narrow_null_string@?$output_processor@_WV?$string_output_adapter@_W@__crt_stdio_output@@V?$standard_base@_WV?$string_output_adapter@_W@__crt_stdio_output@@@2@@__crt_stdio_output@@CAPEADXZ 0000000140039ba8 f i libucrt:output.obj
 0001:00038bb4       ?parse_digit@__crt_strtox@@YAID@Z 0000000140039bb4 f i libucrt:output.obj
 0001:00038bf0       ?parse_digit@__crt_strtox@@YAI_W@Z 0000000140039bf0 f i libucrt:output.obj
 0001:00038e18       ?parse_int_from_format_string@?$output_processor@DV?$stream_output_adapter@D@__crt_stdio_output@@V?$format_validation_base@DV?$stream_output_adapter@D@__crt_stdio_output@@@2@@__crt_stdio_output@@AEAA_NQEAH@Z 0000000140039e18 f i libucrt:output.obj
 0001:00038ec8       ?parse_int_from_format_string@?$output_processor@DV?$stream_output_adapter@D@__crt_stdio_output@@V?$positional_parameter_base@DV?$stream_output_adapter@D@__crt_stdio_output@@@2@@__crt_stdio_output@@AEAA_NQEAH@Z 0000000140039ec8 f i libucrt:output.obj
 0001:00038f78       ?parse_int_from_format_string@?$output_processor@DV?$stream_output_adapter@D@__crt_stdio_output@@V?$standard_base@DV?$stream_output_adapter@D@__crt_stdio_output@@@2@@__crt_stdio_output@@AEAA_NQEAH@Z 0000000140039f78 f i libucrt:output.obj
 0001:00039028       ?parse_int_from_format_string@?$output_processor@DV?$string_output_adapter@D@__crt_stdio_output@@V?$format_validation_base@DV?$string_output_adapter@D@__crt_stdio_output@@@2@@__crt_stdio_output@@AEAA_NQEAH@Z 000000014003a028 f i libucrt:output.obj
 0001:000390d8       ?parse_int_from_format_string@?$output_processor@DV?$string_output_adapter@D@__crt_stdio_output@@V?$positional_parameter_base@DV?$string_output_adapter@D@__crt_stdio_output@@@2@@__crt_stdio_output@@AEAA_NQEAH@Z 000000014003a0d8 f i libucrt:output.obj
 0001:00039188       ?parse_int_from_format_string@?$output_processor@DV?$string_output_adapter@D@__crt_stdio_output@@V?$standard_base@DV?$string_output_adapter@D@__crt_stdio_output@@@2@@__crt_stdio_output@@AEAA_NQEAH@Z 000000014003a188 f i libucrt:output.obj
 0001:00039238       ?parse_int_from_format_string@?$output_processor@_WV?$stream_output_adapter@_W@__crt_stdio_output@@V?$format_validation_base@_WV?$stream_output_adapter@_W@__crt_stdio_output@@@2@@__crt_stdio_output@@AEAA_NQEAH@Z 000000014003a238 f i libucrt:output.obj
 0001:000392ec       ?parse_int_from_format_string@?$output_processor@_WV?$stream_output_adapter@_W@__crt_stdio_output@@V?$positional_parameter_base@_WV?$stream_output_adapter@_W@__crt_stdio_output@@@2@@__crt_stdio_output@@AEAA_NQEAH@Z 000000014003a2ec f i libucrt:output.obj
 0001:000393a0       ?parse_int_from_format_string@?$output_processor@_WV?$stream_output_adapter@_W@__crt_stdio_output@@V?$standard_base@_WV?$stream_output_adapter@_W@__crt_stdio_output@@@2@@__crt_stdio_output@@AEAA_NQEAH@Z 000000014003a3a0 f i libucrt:output.obj
 0001:00039454       ?parse_int_from_format_string@?$output_processor@_WV?$string_output_adapter@_W@__crt_stdio_output@@V?$format_validation_base@_WV?$string_output_adapter@_W@__crt_stdio_output@@@2@@__crt_stdio_output@@AEAA_NQEAH@Z 000000014003a454 f i libucrt:output.obj
 0001:00039508       ?parse_int_from_format_string@?$output_processor@_WV?$string_output_adapter@_W@__crt_stdio_output@@V?$positional_parameter_base@_WV?$string_output_adapter@_W@__crt_stdio_output@@@2@@__crt_stdio_output@@AEAA_NQEAH@Z 000000014003a508 f i libucrt:output.obj
 0001:000395bc       ?parse_int_from_format_string@?$output_processor@_WV?$string_output_adapter@_W@__crt_stdio_output@@V?$standard_base@_WV?$string_output_adapter@_W@__crt_stdio_output@@@2@@__crt_stdio_output@@AEAA_NQEAH@Z 000000014003a5bc f i libucrt:output.obj
 0001:00039670       ?process@?$output_processor@DV?$stream_output_adapter@D@__crt_stdio_output@@V?$format_validation_base@DV?$stream_output_adapter@D@__crt_stdio_output@@@2@@__crt_stdio_output@@QEAAHXZ 000000014003a670 f i libucrt:output.obj
 0001:00039ad0       ?process@?$output_processor@DV?$stream_output_adapter@D@__crt_stdio_output@@V?$positional_parameter_base@DV?$stream_output_adapter@D@__crt_stdio_output@@@2@@__crt_stdio_output@@QEAAHXZ 000000014003aad0 f i libucrt:output.obj
 0001:00039fec       ?process@?$output_processor@DV?$stream_output_adapter@D@__crt_stdio_output@@V?$standard_base@DV?$stream_output_adapter@D@__crt_stdio_output@@@2@@__crt_stdio_output@@QEAAHXZ 000000014003afec f i libucrt:output.obj
 0001:0003a450       ?process@?$output_processor@DV?$string_output_adapter@D@__crt_stdio_output@@V?$format_validation_base@DV?$string_output_adapter@D@__crt_stdio_output@@@2@@__crt_stdio_output@@QEAAHXZ 000000014003b450 f i libucrt:output.obj
 0001:0003a890       ?process@?$output_processor@DV?$string_output_adapter@D@__crt_stdio_output@@V?$positional_parameter_base@DV?$string_output_adapter@D@__crt_stdio_output@@@2@@__crt_stdio_output@@QEAAHXZ 000000014003b890 f i libucrt:output.obj
 0001:0003ad90       ?process@?$output_processor@DV?$string_output_adapter@D@__crt_stdio_output@@V?$standard_base@DV?$string_output_adapter@D@__crt_stdio_output@@@2@@__crt_stdio_output@@QEAAHXZ 000000014003bd90 f i libucrt:output.obj
 0001:0003b1dc       ?process@?$output_processor@_WV?$stream_output_adapter@_W@__crt_stdio_output@@V?$format_validation_base@_WV?$stream_output_adapter@_W@__crt_stdio_output@@@2@@__crt_stdio_output@@QEAAHXZ 000000014003c1dc f i libucrt:output.obj
 0001:0003b54c       ?process@?$output_processor@_WV?$stream_output_adapter@_W@__crt_stdio_output@@V?$positional_parameter_base@_WV?$stream_output_adapter@_W@__crt_stdio_output@@@2@@__crt_stdio_output@@QEAAHXZ 000000014003c54c f i libucrt:output.obj
 0001:0003b984       ?process@?$output_processor@_WV?$stream_output_adapter@_W@__crt_stdio_output@@V?$standard_base@_WV?$stream_output_adapter@_W@__crt_stdio_output@@@2@@__crt_stdio_output@@QEAAHXZ 000000014003c984 f i libucrt:output.obj
 0001:0003bcf0       ?process@?$output_processor@_WV?$string_output_adapter@_W@__crt_stdio_output@@V?$format_validation_base@_WV?$string_output_adapter@_W@__crt_stdio_output@@@2@@__crt_stdio_output@@QEAAHXZ 000000014003ccf0 f i libucrt:output.obj
 0001:0003c058       ?process@?$output_processor@_WV?$string_output_adapter@_W@__crt_stdio_output@@V?$positional_parameter_base@_WV?$string_output_adapter@_W@__crt_stdio_output@@@2@@__crt_stdio_output@@QEAAHXZ 000000014003d058 f i libucrt:output.obj
 0001:0003c490       ?process@?$output_processor@_WV?$string_output_adapter@_W@__crt_stdio_output@@V?$standard_base@_WV?$string_output_adapter@_W@__crt_stdio_output@@@2@@__crt_stdio_output@@QEAAHXZ 000000014003d490 f i libucrt:output.obj
 0001:0003c808       ?restore_state@?$c_string_character_source@D@__crt_strtox@@QEAA_NQEBD@Z 000000014003d808 f i libucrt:output.obj
 0001:0003c810       ?restore_state@?$c_string_character_source@_W@__crt_strtox@@QEAA_NQEB_W@Z 000000014003d810 f i libucrt:output.obj
 0001:0003c818       ?save_state@?$c_string_character_source@D@__crt_strtox@@QEBAPEBDXZ 000000014003d818 f i libucrt:output.obj
 0001:0003c81c       ?save_state@?$c_string_character_source@_W@__crt_strtox@@QEBAPEB_WXZ 000000014003d81c f i libucrt:output.obj
 0001:0003c820       ?set_flag@?$output_processor@DV?$stream_output_adapter@D@__crt_stdio_output@@V?$format_validation_base@DV?$stream_output_adapter@D@__crt_stdio_output@@@2@@__crt_stdio_output@@AEAAXI@Z 000000014003d820 f i libucrt:output.obj
 0001:0003c824       ?set_flag@?$output_processor@DV?$stream_output_adapter@D@__crt_stdio_output@@V?$positional_parameter_base@DV?$stream_output_adapter@D@__crt_stdio_output@@@2@@__crt_stdio_output@@AEAAXI@Z 000000014003d824 f i libucrt:output.obj
 0001:0003c828       ?set_flag@?$output_processor@DV?$stream_output_adapter@D@__crt_stdio_output@@V?$standard_base@DV?$stream_output_adapter@D@__crt_stdio_output@@@2@@__crt_stdio_output@@AEAAXI@Z 000000014003d828 f i libucrt:output.obj
 0001:0003c82c       ?set_flag@?$output_processor@DV?$string_output_adapter@D@__crt_stdio_output@@V?$format_validation_base@DV?$string_output_adapter@D@__crt_stdio_output@@@2@@__crt_stdio_output@@AEAAXI@Z 000000014003d82c f i libucrt:output.obj
 0001:0003c830       ?set_flag@?$output_processor@DV?$string_output_adapter@D@__crt_stdio_output@@V?$positional_parameter_base@DV?$string_output_adapter@D@__crt_stdio_output@@@2@@__crt_stdio_output@@AEAAXI@Z 000000014003d830 f i libucrt:output.obj
 0001:0003c834       ?set_flag@?$output_processor@DV?$string_output_adapter@D@__crt_stdio_output@@V?$standard_base@DV?$string_output_adapter@D@__crt_stdio_output@@@2@@__crt_stdio_output@@AEAAXI@Z 000000014003d834 f i libucrt:output.obj
 0001:0003c838       ?set_flag@?$output_processor@_WV?$stream_output_adapter@_W@__crt_stdio_output@@V?$format_validation_base@_WV?$stream_output_adapter@_W@__crt_stdio_output@@@2@@__crt_stdio_output@@AEAAXI@Z 000000014003d838 f i libucrt:output.obj
 0001:0003c83c       ?set_flag@?$output_processor@_WV?$stream_output_adapter@_W@__crt_stdio_output@@V?$positional_parameter_base@_WV?$stream_output_adapter@_W@__crt_stdio_output@@@2@@__crt_stdio_output@@AEAAXI@Z 000000014003d83c f i libucrt:output.obj
 0001:0003c840       ?set_flag@?$output_processor@_WV?$stream_output_adapter@_W@__crt_stdio_output@@V?$standard_base@_WV?$stream_output_adapter@_W@__crt_stdio_output@@@2@@__crt_stdio_output@@AEAAXI@Z 000000014003d840 f i libucrt:output.obj
 0001:0003c844       ?set_flag@?$output_processor@_WV?$string_output_adapter@_W@__crt_stdio_output@@V?$format_validation_base@_WV?$string_output_adapter@_W@__crt_stdio_output@@@2@@__crt_stdio_output@@AEAAXI@Z 000000014003d844 f i libucrt:output.obj
 0001:0003c848       ?set_flag@?$output_processor@_WV?$string_output_adapter@_W@__crt_stdio_output@@V?$positional_parameter_base@_WV?$string_output_adapter@_W@__crt_stdio_output@@@2@@__crt_stdio_output@@AEAAXI@Z 000000014003d848 f i libucrt:output.obj
 0001:0003c84c       ?set_flag@?$output_processor@_WV?$string_output_adapter@_W@__crt_stdio_output@@V?$standard_base@_WV?$string_output_adapter@_W@__crt_stdio_output@@@2@@__crt_stdio_output@@AEAAXI@Z 000000014003d84c f i libucrt:output.obj
 0001:0003c850       ?should_format@?$positional_parameter_base@DV?$stream_output_adapter@D@__crt_stdio_output@@@__crt_stdio_output@@IEAA_NXZ 000000014003d850 f i libucrt:output.obj
 0001:0003c870       ?should_format@?$positional_parameter_base@DV?$string_output_adapter@D@__crt_stdio_output@@@__crt_stdio_output@@IEAA_NXZ 000000014003d870 f i libucrt:output.obj
 0001:0003c890       ?should_format@?$positional_parameter_base@_WV?$stream_output_adapter@_W@__crt_stdio_output@@@__crt_stdio_output@@IEAA_NXZ 000000014003d890 f i libucrt:output.obj
 0001:0003c8b0       ?should_format@?$positional_parameter_base@_WV?$string_output_adapter@_W@__crt_stdio_output@@@__crt_stdio_output@@IEAA_NXZ 000000014003d8b0 f i libucrt:output.obj
 0001:0003c8d0       ?should_format@?$standard_base@DV?$stream_output_adapter@D@__crt_stdio_output@@@__crt_stdio_output@@IEAA_NXZ 000000014003d8d0 f i libucrt:output.obj
 0001:0003c8d4       ?should_format@?$standard_base@DV?$string_output_adapter@D@__crt_stdio_output@@@__crt_stdio_output@@IEAA_NXZ 000000014003d8d4 f i libucrt:output.obj
 0001:0003c8d8       ?should_format@?$standard_base@_WV?$stream_output_adapter@_W@__crt_stdio_output@@@__crt_stdio_output@@IEAA_NXZ 000000014003d8d8 f i libucrt:output.obj
 0001:0003c8dc       ?should_format@?$standard_base@_WV?$string_output_adapter@_W@__crt_stdio_output@@@__crt_stdio_output@@IEAA_NXZ 000000014003d8dc f i libucrt:output.obj
 0001:0003c8e0       ?should_skip_normal_state_processing@?$positional_parameter_base@DV?$stream_output_adapter@D@__crt_stdio_output@@@__crt_stdio_output@@IEAA_NXZ 000000014003d8e0 f i libucrt:output.obj
 0001:0003c914       ?should_skip_normal_state_processing@?$positional_parameter_base@DV?$string_output_adapter@D@__crt_stdio_output@@@__crt_stdio_output@@IEAA_NXZ 000000014003d914 f i libucrt:output.obj
 0001:0003c948       ?should_skip_normal_state_processing@?$positional_parameter_base@_WV?$stream_output_adapter@_W@__crt_stdio_output@@@__crt_stdio_output@@IEAA_NXZ 000000014003d948 f i libucrt:output.obj
 0001:0003c97c       ?should_skip_normal_state_processing@?$positional_parameter_base@_WV?$string_output_adapter@_W@__crt_stdio_output@@@__crt_stdio_output@@IEAA_NXZ 000000014003d97c f i libucrt:output.obj
 0001:0003c9b0       ?should_skip_normal_state_processing@?$standard_base@DV?$stream_output_adapter@D@__crt_stdio_output@@@__crt_stdio_output@@IEAA_NXZ 000000014003d9b0 f i libucrt:output.obj
 0001:0003c9b4       ?should_skip_normal_state_processing@?$standard_base@DV?$string_output_adapter@D@__crt_stdio_output@@@__crt_stdio_output@@IEAA_NXZ 000000014003d9b4 f i libucrt:output.obj
 0001:0003c9b8       ?should_skip_normal_state_processing@?$standard_base@_WV?$stream_output_adapter@_W@__crt_stdio_output@@@__crt_stdio_output@@IEAA_NXZ 000000014003d9b8 f i libucrt:output.obj
 0001:0003c9bc       ?should_skip_normal_state_processing@?$standard_base@_WV?$string_output_adapter@_W@__crt_stdio_output@@@__crt_stdio_output@@IEAA_NXZ 000000014003d9bc f i libucrt:output.obj
 0001:0003c9c0       ?should_skip_type_state_output@?$positional_parameter_base@DV?$stream_output_adapter@D@__crt_stdio_output@@@__crt_stdio_output@@IEBA_NXZ 000000014003d9c0 f i libucrt:output.obj
 0001:0003c9e0       ?should_skip_type_state_output@?$positional_parameter_base@DV?$string_output_adapter@D@__crt_stdio_output@@@__crt_stdio_output@@IEBA_NXZ 000000014003d9e0 f i libucrt:output.obj
 0001:0003ca00       ?should_skip_type_state_output@?$positional_parameter_base@_WV?$stream_output_adapter@_W@__crt_stdio_output@@@__crt_stdio_output@@IEBA_NXZ 000000014003da00 f i libucrt:output.obj
 0001:0003ca20       ?should_skip_type_state_output@?$positional_parameter_base@_WV?$string_output_adapter@_W@__crt_stdio_output@@@__crt_stdio_output@@IEBA_NXZ 000000014003da20 f i libucrt:output.obj
 0001:0003ca40       ?should_skip_type_state_output@?$standard_base@DV?$stream_output_adapter@D@__crt_stdio_output@@@__crt_stdio_output@@IEBA_NXZ 000000014003da40 f i libucrt:output.obj
 0001:0003ca44       ?should_skip_type_state_output@?$standard_base@DV?$string_output_adapter@D@__crt_stdio_output@@@__crt_stdio_output@@IEBA_NXZ 000000014003da44 f i libucrt:output.obj
 0001:0003ca48       ?should_skip_type_state_output@?$standard_base@_WV?$stream_output_adapter@_W@__crt_stdio_output@@@__crt_stdio_output@@IEBA_NXZ 000000014003da48 f i libucrt:output.obj
 0001:0003ca4c       ?should_skip_type_state_output@?$standard_base@_WV?$string_output_adapter@_W@__crt_stdio_output@@@__crt_stdio_output@@IEBA_NXZ 000000014003da4c f i libucrt:output.obj
 0001:0003ca50       ?state_case_dot@?$output_processor@DV?$stream_output_adapter@D@__crt_stdio_output@@V?$format_validation_base@DV?$stream_output_adapter@D@__crt_stdio_output@@@2@@__crt_stdio_output@@AEAA_NXZ 000000014003da50 f i libucrt:output.obj
 0001:0003ca58       ?state_case_dot@?$output_processor@DV?$stream_output_adapter@D@__crt_stdio_output@@V?$positional_parameter_base@DV?$stream_output_adapter@D@__crt_stdio_output@@@2@@__crt_stdio_output@@AEAA_NXZ 000000014003da58 f i libucrt:output.obj
 0001:0003ca60       ?state_case_dot@?$output_processor@DV?$stream_output_adapter@D@__crt_stdio_output@@V?$standard_base@DV?$stream_output_adapter@D@__crt_stdio_output@@@2@@__crt_stdio_output@@AEAA_NXZ 000000014003da60 f i libucrt:output.obj
 0001:0003ca68       ?state_case_dot@?$output_processor@DV?$string_output_adapter@D@__crt_stdio_output@@V?$format_validation_base@DV?$string_output_adapter@D@__crt_stdio_output@@@2@@__crt_stdio_output@@AEAA_NXZ 000000014003da68 f i libucrt:output.obj
 0001:0003ca70       ?state_case_dot@?$output_processor@DV?$string_output_adapter@D@__crt_stdio_output@@V?$positional_parameter_base@DV?$string_output_adapter@D@__crt_stdio_output@@@2@@__crt_stdio_output@@AEAA_NXZ 000000014003da70 f i libucrt:output.obj
 0001:0003ca78       ?state_case_dot@?$output_processor@DV?$string_output_adapter@D@__crt_stdio_output@@V?$standard_base@DV?$string_output_adapter@D@__crt_stdio_output@@@2@@__crt_stdio_output@@AEAA_NXZ 000000014003da78 f i libucrt:output.obj
 0001:0003ca80       ?state_case_dot@?$output_processor@_WV?$stream_output_adapter@_W@__crt_stdio_output@@V?$format_validation_base@_WV?$stream_output_adapter@_W@__crt_stdio_output@@@2@@__crt_stdio_output@@AEAA_NXZ 000000014003da80 f i libucrt:output.obj
 0001:0003ca88       ?state_case_dot@?$output_processor@_WV?$stream_output_adapter@_W@__crt_stdio_output@@V?$positional_parameter_base@_WV?$stream_output_adapter@_W@__crt_stdio_output@@@2@@__crt_stdio_output@@AEAA_NXZ 000000014003da88 f i libucrt:output.obj
 0001:0003ca90       ?state_case_dot@?$output_processor@_WV?$stream_output_adapter@_W@__crt_stdio_output@@V?$standard_base@_WV?$stream_output_adapter@_W@__crt_stdio_output@@@2@@__crt_stdio_output@@AEAA_NXZ 000000014003da90 f i libucrt:output.obj
 0001:0003ca98       ?state_case_dot@?$output_processor@_WV?$string_output_adapter@_W@__crt_stdio_output@@V?$format_validation_base@_WV?$string_output_adapter@_W@__crt_stdio_output@@@2@@__crt_stdio_output@@AEAA_NXZ 000000014003da98 f i libucrt:output.obj
 0001:0003caa0       ?state_case_dot@?$output_processor@_WV?$string_output_adapter@_W@__crt_stdio_output@@V?$positional_parameter_base@_WV?$string_output_adapter@_W@__crt_stdio_output@@@2@@__crt_stdio_output@@AEAA_NXZ 000000014003daa0 f i libucrt:output.obj
 0001:0003caa8       ?state_case_dot@?$output_processor@_WV?$string_output_adapter@_W@__crt_stdio_output@@V?$standard_base@_WV?$string_output_adapter@_W@__crt_stdio_output@@@2@@__crt_stdio_output@@AEAA_NXZ 000000014003daa8 f i libucrt:output.obj
 0001:0003cab0       ?state_case_flag@?$output_processor@DV?$stream_output_adapter@D@__crt_stdio_output@@V?$format_validation_base@DV?$stream_output_adapter@D@__crt_stdio_output@@@2@@__crt_stdio_output@@AEAA_NXZ 000000014003dab0 f i libucrt:output.obj
 0001:0003caf4       ?state_case_flag@?$output_processor@DV?$stream_output_adapter@D@__crt_stdio_output@@V?$positional_parameter_base@DV?$stream_output_adapter@D@__crt_stdio_output@@@2@@__crt_stdio_output@@AEAA_NXZ 000000014003daf4 f i libucrt:output.obj
 0001:0003cb38       ?state_case_flag@?$output_processor@DV?$stream_output_adapter@D@__crt_stdio_output@@V?$standard_base@DV?$stream_output_adapter@D@__crt_stdio_output@@@2@@__crt_stdio_output@@AEAA_NXZ 000000014003db38 f i libucrt:output.obj
 0001:0003cb7c       ?state_case_flag@?$output_processor@DV?$string_output_adapter@D@__crt_stdio_output@@V?$format_validation_base@DV?$string_output_adapter@D@__crt_stdio_output@@@2@@__crt_stdio_output@@AEAA_NXZ 000000014003db7c f i libucrt:output.obj
 0001:0003cbc0       ?state_case_flag@?$output_processor@DV?$string_output_adapter@D@__crt_stdio_output@@V?$positional_parameter_base@DV?$string_output_adapter@D@__crt_stdio_output@@@2@@__crt_stdio_output@@AEAA_NXZ 000000014003dbc0 f i libucrt:output.obj
 0001:0003cc04       ?state_case_flag@?$output_processor@DV?$string_output_adapter@D@__crt_stdio_output@@V?$standard_base@DV?$string_output_adapter@D@__crt_stdio_output@@@2@@__crt_stdio_output@@AEAA_NXZ 000000014003dc04 f i libucrt:output.obj
 0001:0003cc48       ?state_case_flag@?$output_processor@_WV?$stream_output_adapter@_W@__crt_stdio_output@@V?$format_validation_base@_WV?$stream_output_adapter@_W@__crt_stdio_output@@@2@@__crt_stdio_output@@AEAA_NXZ 000000014003dc48 f i libucrt:output.obj
 0001:0003cca0       ?state_case_flag@?$output_processor@_WV?$stream_output_adapter@_W@__crt_stdio_output@@V?$positional_parameter_base@_WV?$stream_output_adapter@_W@__crt_stdio_output@@@2@@__crt_stdio_output@@AEAA_NXZ 000000014003dca0 f i libucrt:output.obj
 0001:0003ccf8       ?state_case_flag@?$output_processor@_WV?$stream_output_adapter@_W@__crt_stdio_output@@V?$standard_base@_WV?$stream_output_adapter@_W@__crt_stdio_output@@@2@@__crt_stdio_output@@AEAA_NXZ 000000014003dcf8 f i libucrt:output.obj
 0001:0003cd50       ?state_case_flag@?$output_processor@_WV?$string_output_adapter@_W@__crt_stdio_output@@V?$format_validation_base@_WV?$string_output_adapter@_W@__crt_stdio_output@@@2@@__crt_stdio_output@@AEAA_NXZ 000000014003dd50 f i libucrt:output.obj
 0001:0003cda8       ?state_case_flag@?$output_processor@_WV?$string_output_adapter@_W@__crt_stdio_output@@V?$positional_parameter_base@_WV?$string_output_adapter@_W@__crt_stdio_output@@@2@@__crt_stdio_output@@AEAA_NXZ 000000014003dda8 f i libucrt:output.obj
 0001:0003ce00       ?state_case_flag@?$output_processor@_WV?$string_output_adapter@_W@__crt_stdio_output@@V?$standard_base@_WV?$string_output_adapter@_W@__crt_stdio_output@@@2@@__crt_stdio_output@@AEAA_NXZ 000000014003de00 f i libucrt:output.obj
 0001:0003ce58       ?state_case_normal@?$output_processor@DV?$stream_output_adapter@D@__crt_stdio_output@@V?$format_validation_base@DV?$stream_output_adapter@D@__crt_stdio_output@@@2@@__crt_stdio_output@@AEAA_NXZ 000000014003de58 f i libucrt:output.obj
 0001:0003d000       ?state_case_normal@?$output_processor@DV?$stream_output_adapter@D@__crt_stdio_output@@V?$positional_parameter_base@DV?$stream_output_adapter@D@__crt_stdio_output@@@2@@__crt_stdio_output@@AEAA_NXZ 000000014003e000 f i libucrt:output.obj
 0001:0003d1e0       ?state_case_normal@?$output_processor@DV?$stream_output_adapter@D@__crt_stdio_output@@V?$standard_base@DV?$stream_output_adapter@D@__crt_stdio_output@@@2@@__crt_stdio_output@@AEAA_NXZ 000000014003e1e0 f i libucrt:output.obj
 0001:0003d388       ?state_case_normal@?$output_processor@DV?$string_output_adapter@D@__crt_stdio_output@@V?$format_validation_base@DV?$string_output_adapter@D@__crt_stdio_output@@@2@@__crt_stdio_output@@AEAA_NXZ 000000014003e388 f i libucrt:output.obj
 0001:0003d528       ?state_case_normal@?$output_processor@DV?$string_output_adapter@D@__crt_stdio_output@@V?$positional_parameter_base@DV?$string_output_adapter@D@__crt_stdio_output@@@2@@__crt_stdio_output@@AEAA_NXZ 000000014003e528 f i libucrt:output.obj
 0001:0003d6fc       ?state_case_normal@?$output_processor@DV?$string_output_adapter@D@__crt_stdio_output@@V?$standard_base@DV?$string_output_adapter@D@__crt_stdio_output@@@2@@__crt_stdio_output@@AEAA_NXZ 000000014003e6fc f i libucrt:output.obj
 0001:0003d89c       ?state_case_normal@?$output_processor@_WV?$stream_output_adapter@_W@__crt_stdio_output@@V?$format_validation_base@_WV?$stream_output_adapter@_W@__crt_stdio_output@@@2@@__crt_stdio_output@@AEAA_NXZ 000000014003e89c f i libucrt:output.obj
 0001:0003d910       ?state_case_normal@?$output_processor@_WV?$stream_output_adapter@_W@__crt_stdio_output@@V?$positional_parameter_base@_WV?$stream_output_adapter@_W@__crt_stdio_output@@@2@@__crt_stdio_output@@AEAA_NXZ 000000014003e910 f i libucrt:output.obj
 0001:0003d9b4       ?state_case_normal@?$output_processor@_WV?$stream_output_adapter@_W@__crt_stdio_output@@V?$standard_base@_WV?$stream_output_adapter@_W@__crt_stdio_output@@@2@@__crt_stdio_output@@AEAA_NXZ 000000014003e9b4 f i libucrt:output.obj
 0001:0003da28       ?state_case_normal@?$output_processor@_WV?$string_output_adapter@_W@__crt_stdio_output@@V?$format_validation_base@_WV?$string_output_adapter@_W@__crt_stdio_output@@@2@@__crt_stdio_output@@AEAA_NXZ 000000014003ea28 f i libucrt:output.obj
 0001:0003da94       ?state_case_normal@?$output_processor@_WV?$string_output_adapter@_W@__crt_stdio_output@@V?$positional_parameter_base@_WV?$string_output_adapter@_W@__crt_stdio_output@@@2@@__crt_stdio_output@@AEAA_NXZ 000000014003ea94 f i libucrt:output.obj
 0001:0003db2c       ?state_case_normal@?$output_processor@_WV?$string_output_adapter@_W@__crt_stdio_output@@V?$standard_base@_WV?$string_output_adapter@_W@__crt_stdio_output@@@2@@__crt_stdio_output@@AEAA_NXZ 000000014003eb2c f i libucrt:output.obj
 0001:0003db98       ?state_case_normal_common@?$output_processor@DV?$stream_output_adapter@D@__crt_stdio_output@@V?$format_validation_base@DV?$stream_output_adapter@D@__crt_stdio_output@@@2@@__crt_stdio_output@@AEAA_NXZ 000000014003eb98 f i libucrt:output.obj
 0001:0003dd0c       ?state_case_normal_common@?$output_processor@DV?$stream_output_adapter@D@__crt_stdio_output@@V?$positional_parameter_base@DV?$stream_output_adapter@D@__crt_stdio_output@@@2@@__crt_stdio_output@@AEAA_NXZ 000000014003ed0c f i libucrt:output.obj
 0001:0003de80       ?state_case_normal_common@?$output_processor@DV?$stream_output_adapter@D@__crt_stdio_output@@V?$standard_base@DV?$stream_output_adapter@D@__crt_stdio_output@@@2@@__crt_stdio_output@@AEAA_NXZ 000000014003ee80 f i libucrt:output.obj
 0001:0003dff4       ?state_case_normal_common@?$output_processor@DV?$string_output_adapter@D@__crt_stdio_output@@V?$format_validation_base@DV?$string_output_adapter@D@__crt_stdio_output@@@2@@__crt_stdio_output@@AEAA_NXZ 000000014003eff4 f i libucrt:output.obj
 0001:0003e160       ?state_case_normal_common@?$output_processor@DV?$string_output_adapter@D@__crt_stdio_output@@V?$positional_parameter_base@DV?$string_output_adapter@D@__crt_stdio_output@@@2@@__crt_stdio_output@@AEAA_NXZ 000000014003f160 f i libucrt:output.obj
 0001:0003e2cc       ?state_case_normal_common@?$output_processor@DV?$string_output_adapter@D@__crt_stdio_output@@V?$standard_base@DV?$string_output_adapter@D@__crt_stdio_output@@@2@@__crt_stdio_output@@AEAA_NXZ 000000014003f2cc f i libucrt:output.obj
 0001:0003e438       ?state_case_normal_common@?$output_processor@_WV?$stream_output_adapter@_W@__crt_stdio_output@@V?$format_validation_base@_WV?$stream_output_adapter@_W@__crt_stdio_output@@@2@@__crt_stdio_output@@AEAA_NXZ 000000014003f438 f i libucrt:output.obj
 0001:0003e4ac       ?state_case_normal_common@?$output_processor@_WV?$stream_output_adapter@_W@__crt_stdio_output@@V?$positional_parameter_base@_WV?$stream_output_adapter@_W@__crt_stdio_output@@@2@@__crt_stdio_output@@AEAA_NXZ 000000014003f4ac f i libucrt:output.obj
 0001:0003e520       ?state_case_normal_common@?$output_processor@_WV?$stream_output_adapter@_W@__crt_stdio_output@@V?$standard_base@_WV?$stream_output_adapter@_W@__crt_stdio_output@@@2@@__crt_stdio_output@@AEAA_NXZ 000000014003f520 f i libucrt:output.obj
 0001:0003e594       ?state_case_normal_common@?$output_processor@_WV?$string_output_adapter@_W@__crt_stdio_output@@V?$format_validation_base@_WV?$string_output_adapter@_W@__crt_stdio_output@@@2@@__crt_stdio_output@@AEAA_NXZ 000000014003f594 f i libucrt:output.obj
 0001:0003e600       ?state_case_normal_common@?$output_processor@_WV?$string_output_adapter@_W@__crt_stdio_output@@V?$positional_parameter_base@_WV?$string_output_adapter@_W@__crt_stdio_output@@@2@@__crt_stdio_output@@AEAA_NXZ 000000014003f600 f i libucrt:output.obj
 0001:0003e66c       ?state_case_normal_common@?$output_processor@_WV?$string_output_adapter@_W@__crt_stdio_output@@V?$standard_base@_WV?$string_output_adapter@_W@__crt_stdio_output@@@2@@__crt_stdio_output@@AEAA_NXZ 000000014003f66c f i libucrt:output.obj
 0001:0003e6d8       ?state_case_normal_tchar@?$output_processor@DV?$stream_output_adapter@D@__crt_stdio_output@@V?$format_validation_base@DV?$stream_output_adapter@D@__crt_stdio_output@@@2@@__crt_stdio_output@@AEAA_ND@Z 000000014003f6d8 f i libucrt:output.obj
 0001:0003e7ec       ?state_case_normal_tchar@?$output_processor@DV?$stream_output_adapter@D@__crt_stdio_output@@V?$positional_parameter_base@DV?$stream_output_adapter@D@__crt_stdio_output@@@2@@__crt_stdio_output@@AEAA_ND@Z 000000014003f7ec f i libucrt:output.obj
 0001:0003e900       ?state_case_normal_tchar@?$output_processor@DV?$stream_output_adapter@D@__crt_stdio_output@@V?$standard_base@DV?$stream_output_adapter@D@__crt_stdio_output@@@2@@__crt_stdio_output@@AEAA_ND@Z 000000014003f900 f i libucrt:output.obj
 0001:0003ea14       ?state_case_normal_tchar@?$output_processor@DV?$string_output_adapter@D@__crt_stdio_output@@V?$format_validation_base@DV?$string_output_adapter@D@__crt_stdio_output@@@2@@__crt_stdio_output@@AEAA_ND@Z 000000014003fa14 f i libucrt:output.obj
 0001:0003eb28       ?state_case_normal_tchar@?$output_processor@DV?$string_output_adapter@D@__crt_stdio_output@@V?$positional_parameter_base@DV?$string_output_adapter@D@__crt_stdio_output@@@2@@__crt_stdio_output@@AEAA_ND@Z 000000014003fb28 f i libucrt:output.obj
 0001:0003ec3c       ?state_case_normal_tchar@?$output_processor@DV?$string_output_adapter@D@__crt_stdio_output@@V?$standard_base@DV?$string_output_adapter@D@__crt_stdio_output@@@2@@__crt_stdio_output@@AEAA_ND@Z 000000014003fc3c f i libucrt:output.obj
 0001:0003ed50       ?state_case_normal_tchar@?$output_processor@_WV?$stream_output_adapter@_W@__crt_stdio_output@@V?$format_validation_base@_WV?$stream_output_adapter@_W@__crt_stdio_output@@@2@@__crt_stdio_output@@AEAA_N_W@Z 000000014003fd50 f i libucrt:output.obj
 0001:0003ed58       ?state_case_normal_tchar@?$output_processor@_WV?$stream_output_adapter@_W@__crt_stdio_output@@V?$positional_parameter_base@_WV?$stream_output_adapter@_W@__crt_stdio_output@@@2@@__crt_stdio_output@@AEAA_N_W@Z 000000014003fd58 f i libucrt:output.obj
 0001:0003ed60       ?state_case_normal_tchar@?$output_processor@_WV?$stream_output_adapter@_W@__crt_stdio_output@@V?$standard_base@_WV?$stream_output_adapter@_W@__crt_stdio_output@@@2@@__crt_stdio_output@@AEAA_N_W@Z 000000014003fd60 f i libucrt:output.obj
 0001:0003ed68       ?state_case_normal_tchar@?$output_processor@_WV?$string_output_adapter@_W@__crt_stdio_output@@V?$format_validation_base@_WV?$string_output_adapter@_W@__crt_stdio_output@@@2@@__crt_stdio_output@@AEAA_N_W@Z 000000014003fd68 f i libucrt:output.obj
 0001:0003ed70       ?state_case_normal_tchar@?$output_processor@_WV?$string_output_adapter@_W@__crt_stdio_output@@V?$positional_parameter_base@_WV?$string_output_adapter@_W@__crt_stdio_output@@@2@@__crt_stdio_output@@AEAA_N_W@Z 000000014003fd70 f i libucrt:output.obj
 0001:0003ed78       ?state_case_normal_tchar@?$output_processor@_WV?$string_output_adapter@_W@__crt_stdio_output@@V?$standard_base@_WV?$string_output_adapter@_W@__crt_stdio_output@@@2@@__crt_stdio_output@@AEAA_N_W@Z 000000014003fd78 f i libucrt:output.obj
 0001:0003ed80       ?state_case_percent@?$output_processor@DV?$stream_output_adapter@D@__crt_stdio_output@@V?$format_validation_base@DV?$stream_output_adapter@D@__crt_stdio_output@@@2@@__crt_stdio_output@@AEAA_NXZ 000000014003fd80 f i libucrt:output.obj
 0001:0003ed9c       ?state_case_percent@?$output_processor@DV?$stream_output_adapter@D@__crt_stdio_output@@V?$positional_parameter_base@DV?$stream_output_adapter@D@__crt_stdio_output@@@2@@__crt_stdio_output@@AEAA_NXZ 000000014003fd9c f i libucrt:output.obj
 0001:0003edb8       ?state_case_percent@?$output_processor@DV?$stream_output_adapter@D@__crt_stdio_output@@V?$standard_base@DV?$stream_output_adapter@D@__crt_stdio_output@@@2@@__crt_stdio_output@@AEAA_NXZ 000000014003fdb8 f i libucrt:output.obj
 0001:0003edd4       ?state_case_percent@?$output_processor@DV?$string_output_adapter@D@__crt_stdio_output@@V?$format_validation_base@DV?$string_output_adapter@D@__crt_stdio_output@@@2@@__crt_stdio_output@@AEAA_NXZ 000000014003fdd4 f i libucrt:output.obj
 0001:0003edf0       ?state_case_percent@?$output_processor@DV?$string_output_adapter@D@__crt_stdio_output@@V?$positional_parameter_base@DV?$string_output_adapter@D@__crt_stdio_output@@@2@@__crt_stdio_output@@AEAA_NXZ 000000014003fdf0 f i libucrt:output.obj
 0001:0003ee0c       ?state_case_percent@?$output_processor@DV?$string_output_adapter@D@__crt_stdio_output@@V?$standard_base@DV?$string_output_adapter@D@__crt_stdio_output@@@2@@__crt_stdio_output@@AEAA_NXZ 000000014003fe0c f i libucrt:output.obj
 0001:0003ee28       ?state_case_percent@?$output_processor@_WV?$stream_output_adapter@_W@__crt_stdio_output@@V?$format_validation_base@_WV?$stream_output_adapter@_W@__crt_stdio_output@@@2@@__crt_stdio_output@@AEAA_NXZ 000000014003fe28 f i libucrt:output.obj
 0001:0003ee44       ?state_case_percent@?$output_processor@_WV?$stream_output_adapter@_W@__crt_stdio_output@@V?$positional_parameter_base@_WV?$stream_output_adapter@_W@__crt_stdio_output@@@2@@__crt_stdio_output@@AEAA_NXZ 000000014003fe44 f i libucrt:output.obj
 0001:0003ee60       ?state_case_percent@?$output_processor@_WV?$stream_output_adapter@_W@__crt_stdio_output@@V?$standard_base@_WV?$stream_output_adapter@_W@__crt_stdio_output@@@2@@__crt_stdio_output@@AEAA_NXZ 000000014003fe60 f i libucrt:output.obj
 0001:0003ee7c       ?state_case_percent@?$output_processor@_WV?$string_output_adapter@_W@__crt_stdio_output@@V?$format_validation_base@_WV?$string_output_adapter@_W@__crt_stdio_output@@@2@@__crt_stdio_output@@AEAA_NXZ 000000014003fe7c f i libucrt:output.obj
 0001:0003ee98       ?state_case_percent@?$output_processor@_WV?$string_output_adapter@_W@__crt_stdio_output@@V?$positional_parameter_base@_WV?$string_output_adapter@_W@__crt_stdio_output@@@2@@__crt_stdio_output@@AEAA_NXZ 000000014003fe98 f i libucrt:output.obj
 0001:0003eeb4       ?state_case_percent@?$output_processor@_WV?$string_output_adapter@_W@__crt_stdio_output@@V?$standard_base@_WV?$string_output_adapter@_W@__crt_stdio_output@@@2@@__crt_stdio_output@@AEAA_NXZ 000000014003feb4 f i libucrt:output.obj
 0001:0003eed0       ?state_case_precision@?$output_processor@DV?$stream_output_adapter@D@__crt_stdio_output@@V?$format_validation_base@DV?$stream_output_adapter@D@__crt_stdio_output@@@2@@__crt_stdio_output@@AEAA_NXZ 000000014003fed0 f i libucrt:output.obj
 0001:0003ef08       ?state_case_precision@?$output_processor@DV?$stream_output_adapter@D@__crt_stdio_output@@V?$positional_parameter_base@DV?$stream_output_adapter@D@__crt_stdio_output@@@2@@__crt_stdio_output@@AEAA_NXZ 000000014003ff08 f i libucrt:output.obj
 0001:0003ef64       ?state_case_precision@?$output_processor@DV?$stream_output_adapter@D@__crt_stdio_output@@V?$standard_base@DV?$stream_output_adapter@D@__crt_stdio_output@@@2@@__crt_stdio_output@@AEAA_NXZ 000000014003ff64 f i libucrt:output.obj
 0001:0003ef9c       ?state_case_precision@?$output_processor@DV?$string_output_adapter@D@__crt_stdio_output@@V?$format_validation_base@DV?$string_output_adapter@D@__crt_stdio_output@@@2@@__crt_stdio_output@@AEAA_NXZ 000000014003ff9c f i libucrt:output.obj
 0001:0003efd4       ?state_case_precision@?$output_processor@DV?$string_output_adapter@D@__crt_stdio_output@@V?$positional_parameter_base@DV?$string_output_adapter@D@__crt_stdio_output@@@2@@__crt_stdio_output@@AEAA_NXZ 000000014003ffd4 f i libucrt:output.obj
 0001:0003f030       ?state_case_precision@?$output_processor@DV?$string_output_adapter@D@__crt_stdio_output@@V?$standard_base@DV?$string_output_adapter@D@__crt_stdio_output@@@2@@__crt_stdio_output@@AEAA_NXZ 0000000140040030 f i libucrt:output.obj
 0001:0003f068       ?state_case_precision@?$output_processor@_WV?$stream_output_adapter@_W@__crt_stdio_output@@V?$format_validation_base@_WV?$stream_output_adapter@_W@__crt_stdio_output@@@2@@__crt_stdio_output@@AEAA_NXZ 0000000140040068 f i libucrt:output.obj
 0001:0003f0a0       ?state_case_precision@?$output_processor@_WV?$stream_output_adapter@_W@__crt_stdio_output@@V?$positional_parameter_base@_WV?$stream_output_adapter@_W@__crt_stdio_output@@@2@@__crt_stdio_output@@AEAA_NXZ 00000001400400a0 f i libucrt:output.obj
 0001:0003f100       ?state_case_precision@?$output_processor@_WV?$stream_output_adapter@_W@__crt_stdio_output@@V?$standard_base@_WV?$stream_output_adapter@_W@__crt_stdio_output@@@2@@__crt_stdio_output@@AEAA_NXZ 0000000140040100 f i libucrt:output.obj
 0001:0003f138       ?state_case_precision@?$output_processor@_WV?$string_output_adapter@_W@__crt_stdio_output@@V?$format_validation_base@_WV?$string_output_adapter@_W@__crt_stdio_output@@@2@@__crt_stdio_output@@AEAA_NXZ 0000000140040138 f i libucrt:output.obj
 0001:0003f170       ?state_case_precision@?$output_processor@_WV?$string_output_adapter@_W@__crt_stdio_output@@V?$positional_parameter_base@_WV?$string_output_adapter@_W@__crt_stdio_output@@@2@@__crt_stdio_output@@AEAA_NXZ 0000000140040170 f i libucrt:output.obj
 0001:0003f1d0       ?state_case_precision@?$output_processor@_WV?$string_output_adapter@_W@__crt_stdio_output@@V?$standard_base@_WV?$string_output_adapter@_W@__crt_stdio_output@@@2@@__crt_stdio_output@@AEAA_NXZ 00000001400401d0 f i libucrt:output.obj
 0001:0003f208       ?state_case_size@?$output_processor@DV?$stream_output_adapter@D@__crt_stdio_output@@V?$format_validation_base@DV?$stream_output_adapter@D@__crt_stdio_output@@@2@@__crt_stdio_output@@AEAA_NXZ 0000000140040208 f i libucrt:output.obj
 0001:0003f3f0       ?state_case_size@?$output_processor@DV?$stream_output_adapter@D@__crt_stdio_output@@V?$positional_parameter_base@DV?$stream_output_adapter@D@__crt_stdio_output@@@2@@__crt_stdio_output@@AEAA_NXZ 00000001400403f0 f i libucrt:output.obj
 0001:0003f5d8       ?state_case_size@?$output_processor@DV?$stream_output_adapter@D@__crt_stdio_output@@V?$standard_base@DV?$stream_output_adapter@D@__crt_stdio_output@@@2@@__crt_stdio_output@@AEAA_NXZ 00000001400405d8 f i libucrt:output.obj
 0001:0003f7c0       ?state_case_size@?$output_processor@DV?$string_output_adapter@D@__crt_stdio_output@@V?$format_validation_base@DV?$string_output_adapter@D@__crt_stdio_output@@@2@@__crt_stdio_output@@AEAA_NXZ 00000001400407c0 f i libucrt:output.obj
 0001:0003f9a8       ?state_case_size@?$output_processor@DV?$string_output_adapter@D@__crt_stdio_output@@V?$positional_parameter_base@DV?$string_output_adapter@D@__crt_stdio_output@@@2@@__crt_stdio_output@@AEAA_NXZ 00000001400409a8 f i libucrt:output.obj
 0001:0003fb90       ?state_case_size@?$output_processor@DV?$string_output_adapter@D@__crt_stdio_output@@V?$standard_base@DV?$string_output_adapter@D@__crt_stdio_output@@@2@@__crt_stdio_output@@AEAA_NXZ 0000000140040b90 f i libucrt:output.obj
 0001:0003fd78       ?state_case_size@?$output_processor@_WV?$stream_output_adapter@_W@__crt_stdio_output@@V?$format_validation_base@_WV?$stream_output_adapter@_W@__crt_stdio_output@@@2@@__crt_stdio_output@@AEAA_NXZ 0000000140040d78 f i libucrt:output.obj
 0001:0003ff90       ?state_case_size@?$output_processor@_WV?$stream_output_adapter@_W@__crt_stdio_output@@V?$positional_parameter_base@_WV?$stream_output_adapter@_W@__crt_stdio_output@@@2@@__crt_stdio_output@@AEAA_NXZ 0000000140040f90 f i libucrt:output.obj
 0001:000401a8       ?state_case_size@?$output_processor@_WV?$stream_output_adapter@_W@__crt_stdio_output@@V?$standard_base@_WV?$stream_output_adapter@_W@__crt_stdio_output@@@2@@__crt_stdio_output@@AEAA_NXZ 00000001400411a8 f i libucrt:output.obj
 0001:000403c0       ?state_case_size@?$output_processor@_WV?$string_output_adapter@_W@__crt_stdio_output@@V?$format_validation_base@_WV?$string_output_adapter@_W@__crt_stdio_output@@@2@@__crt_stdio_output@@AEAA_NXZ 00000001400413c0 f i libucrt:output.obj
 0001:000405d8       ?state_case_size@?$output_processor@_WV?$string_output_adapter@_W@__crt_stdio_output@@V?$positional_parameter_base@_WV?$string_output_adapter@_W@__crt_stdio_output@@@2@@__crt_stdio_output@@AEAA_NXZ 00000001400415d8 f i libucrt:output.obj
 0001:000407f0       ?state_case_size@?$output_processor@_WV?$string_output_adapter@_W@__crt_stdio_output@@V?$standard_base@_WV?$string_output_adapter@_W@__crt_stdio_output@@@2@@__crt_stdio_output@@AEAA_NXZ 00000001400417f0 f i libucrt:output.obj
 0001:00040a08       ?state_case_type@?$output_processor@DV?$stream_output_adapter@D@__crt_stdio_output@@V?$format_validation_base@DV?$stream_output_adapter@D@__crt_stdio_output@@@2@@__crt_stdio_output@@AEAA_NXZ 0000000140041a08 f i libucrt:output.obj
 0001:00041090       ?state_case_type@?$output_processor@DV?$stream_output_adapter@D@__crt_stdio_output@@V?$positional_parameter_base@DV?$stream_output_adapter@D@__crt_stdio_output@@@2@@__crt_stdio_output@@AEAA_NXZ 0000000140042090 f i libucrt:output.obj
 0001:00041734       ?state_case_type@?$output_processor@DV?$stream_output_adapter@D@__crt_stdio_output@@V?$standard_base@DV?$stream_output_adapter@D@__crt_stdio_output@@@2@@__crt_stdio_output@@AEAA_NXZ 0000000140042734 f i libucrt:output.obj
 0001:00041dbc       ?state_case_type@?$output_processor@DV?$string_output_adapter@D@__crt_stdio_output@@V?$format_validation_base@DV?$string_output_adapter@D@__crt_stdio_output@@@2@@__crt_stdio_output@@AEAA_NXZ 0000000140042dbc f i libucrt:output.obj
 0001:00042344       ?state_case_type@?$output_processor@DV?$string_output_adapter@D@__crt_stdio_output@@V?$positional_parameter_base@DV?$string_output_adapter@D@__crt_stdio_output@@@2@@__crt_stdio_output@@AEAA_NXZ 0000000140043344 f i libucrt:output.obj
 0001:00042920       ?state_case_type@?$output_processor@DV?$string_output_adapter@D@__crt_stdio_output@@V?$standard_base@DV?$string_output_adapter@D@__crt_stdio_output@@@2@@__crt_stdio_output@@AEAA_NXZ 0000000140043920 f i libucrt:output.obj
 0001:00042ea8       ?state_case_type@?$output_processor@_WV?$stream_output_adapter@_W@__crt_stdio_output@@V?$format_validation_base@_WV?$stream_output_adapter@_W@__crt_stdio_output@@@2@@__crt_stdio_output@@AEAA_NXZ 0000000140043ea8 f i libucrt:output.obj
 0001:00043624       ?state_case_type@?$output_processor@_WV?$stream_output_adapter@_W@__crt_stdio_output@@V?$positional_parameter_base@_WV?$stream_output_adapter@_W@__crt_stdio_output@@@2@@__crt_stdio_output@@AEAA_NXZ 0000000140044624 f i libucrt:output.obj
 0001:00043dec       ?state_case_type@?$output_processor@_WV?$stream_output_adapter@_W@__crt_stdio_output@@V?$standard_base@_WV?$stream_output_adapter@_W@__crt_stdio_output@@@2@@__crt_stdio_output@@AEAA_NXZ 0000000140044dec f i libucrt:output.obj
 0001:00044568       ?state_case_type@?$output_processor@_WV?$string_output_adapter@_W@__crt_stdio_output@@V?$format_validation_base@_WV?$string_output_adapter@_W@__crt_stdio_output@@@2@@__crt_stdio_output@@AEAA_NXZ 0000000140045568 f i libucrt:output.obj
 0001:00044c3c       ?state_case_type@?$output_processor@_WV?$string_output_adapter@_W@__crt_stdio_output@@V?$positional_parameter_base@_WV?$string_output_adapter@_W@__crt_stdio_output@@@2@@__crt_stdio_output@@AEAA_NXZ 0000000140045c3c f i libucrt:output.obj
 0001:0004532c       ?state_case_type@?$output_processor@_WV?$string_output_adapter@_W@__crt_stdio_output@@V?$standard_base@_WV?$string_output_adapter@_W@__crt_stdio_output@@@2@@__crt_stdio_output@@AEAA_NXZ 000000014004632c f i libucrt:output.obj
 0001:00045a00       ?state_case_width@?$output_processor@DV?$stream_output_adapter@D@__crt_stdio_output@@V?$format_validation_base@DV?$stream_output_adapter@D@__crt_stdio_output@@@2@@__crt_stdio_output@@AEAA_NXZ 0000000140046a00 f i libucrt:output.obj
 0001:00045a40       ?state_case_width@?$output_processor@DV?$stream_output_adapter@D@__crt_stdio_output@@V?$positional_parameter_base@DV?$stream_output_adapter@D@__crt_stdio_output@@@2@@__crt_stdio_output@@AEAA_NXZ 0000000140046a40 f i libucrt:output.obj
 0001:00045aa4       ?state_case_width@?$output_processor@DV?$stream_output_adapter@D@__crt_stdio_output@@V?$standard_base@DV?$stream_output_adapter@D@__crt_stdio_output@@@2@@__crt_stdio_output@@AEAA_NXZ 0000000140046aa4 f i libucrt:output.obj
 0001:00045ae4       ?state_case_width@?$output_processor@DV?$string_output_adapter@D@__crt_stdio_output@@V?$format_validation_base@DV?$string_output_adapter@D@__crt_stdio_output@@@2@@__crt_stdio_output@@AEAA_NXZ 0000000140046ae4 f i libucrt:output.obj
 0001:00045b24       ?state_case_width@?$output_processor@DV?$string_output_adapter@D@__crt_stdio_output@@V?$positional_parameter_base@DV?$string_output_adapter@D@__crt_stdio_output@@@2@@__crt_stdio_output@@AEAA_NXZ 0000000140046b24 f i libucrt:output.obj
 0001:00045b88       ?state_case_width@?$output_processor@DV?$string_output_adapter@D@__crt_stdio_output@@V?$standard_base@DV?$string_output_adapter@D@__crt_stdio_output@@@2@@__crt_stdio_output@@AEAA_NXZ 0000000140046b88 f i libucrt:output.obj
 0001:00045bc8       ?state_case_width@?$output_processor@_WV?$stream_output_adapter@_W@__crt_stdio_output@@V?$format_validation_base@_WV?$stream_output_adapter@_W@__crt_stdio_output@@@2@@__crt_stdio_output@@AEAA_NXZ 0000000140046bc8 f i libucrt:output.obj
 0001:00045c08       ?state_case_width@?$output_processor@_WV?$stream_output_adapter@_W@__crt_stdio_output@@V?$positional_parameter_base@_WV?$stream_output_adapter@_W@__crt_stdio_output@@@2@@__crt_stdio_output@@AEAA_NXZ 0000000140046c08 f i libucrt:output.obj
 0001:00045c70       ?state_case_width@?$output_processor@_WV?$stream_output_adapter@_W@__crt_stdio_output@@V?$standard_base@_WV?$stream_output_adapter@_W@__crt_stdio_output@@@2@@__crt_stdio_output@@AEAA_NXZ 0000000140046c70 f i libucrt:output.obj
 0001:00045cb0       ?state_case_width@?$output_processor@_WV?$string_output_adapter@_W@__crt_stdio_output@@V?$format_validation_base@_WV?$string_output_adapter@_W@__crt_stdio_output@@@2@@__crt_stdio_output@@AEAA_NXZ 0000000140046cb0 f i libucrt:output.obj
 0001:00045cf0       ?state_case_width@?$output_processor@_WV?$string_output_adapter@_W@__crt_stdio_output@@V?$positional_parameter_base@_WV?$string_output_adapter@_W@__crt_stdio_output@@@2@@__crt_stdio_output@@AEAA_NXZ 0000000140046cf0 f i libucrt:output.obj
 0001:00045d58       ?state_case_width@?$output_processor@_WV?$string_output_adapter@_W@__crt_stdio_output@@V?$standard_base@_WV?$string_output_adapter@_W@__crt_stdio_output@@@2@@__crt_stdio_output@@AEAA_NXZ 0000000140046d58 f i libucrt:output.obj
 0001:00045d98       ?state_count@?$format_validation_base@DV?$stream_output_adapter@D@__crt_stdio_output@@@__crt_stdio_output@@KAIXZ 0000000140046d98 f i libucrt:output.obj
 0001:00045da0       ?state_count@?$format_validation_base@DV?$string_output_adapter@D@__crt_stdio_output@@@__crt_stdio_output@@KAIXZ 0000000140046da0 f i libucrt:output.obj
 0001:00045da8       ?state_count@?$format_validation_base@_WV?$stream_output_adapter@_W@__crt_stdio_output@@@__crt_stdio_output@@KAIXZ 0000000140046da8 f i libucrt:output.obj
 0001:00045db0       ?state_count@?$format_validation_base@_WV?$string_output_adapter@_W@__crt_stdio_output@@@__crt_stdio_output@@KAIXZ 0000000140046db0 f i libucrt:output.obj
 0001:00045db8       ?state_count@?$standard_base@DV?$stream_output_adapter@D@__crt_stdio_output@@@__crt_stdio_output@@KAIXZ 0000000140046db8 f i libucrt:output.obj
 0001:00045dc0       ?state_count@?$standard_base@DV?$string_output_adapter@D@__crt_stdio_output@@@__crt_stdio_output@@KAIXZ 0000000140046dc0 f i libucrt:output.obj
 0001:00045dc8       ?state_count@?$standard_base@_WV?$stream_output_adapter@_W@__crt_stdio_output@@@__crt_stdio_output@@KAIXZ 0000000140046dc8 f i libucrt:output.obj
 0001:00045dd0       ?state_count@?$standard_base@_WV?$string_output_adapter@_W@__crt_stdio_output@@@__crt_stdio_output@@KAIXZ 0000000140046dd0 f i libucrt:output.obj
 0001:00045dd8       ?state_transition_table@?$format_validation_base@DV?$stream_output_adapter@D@__crt_stdio_output@@@__crt_stdio_output@@KAAEBV?$spectre_mitigated_lookup_table@Ustate_transition_pair@__crt_stdio_output@@$0IA@@2@XZ 0000000140046dd8 f i libucrt:output.obj
 0001:00045de4       ?state_transition_table@?$format_validation_base@DV?$string_output_adapter@D@__crt_stdio_output@@@__crt_stdio_output@@KAAEBV?$spectre_mitigated_lookup_table@Ustate_transition_pair@__crt_stdio_output@@$0IA@@2@XZ 0000000140046de4 f i libucrt:output.obj
 0001:00045df0       ?state_transition_table@?$format_validation_base@_WV?$stream_output_adapter@_W@__crt_stdio_output@@@__crt_stdio_output@@KAAEBV?$spectre_mitigated_lookup_table@Ustate_transition_pair@__crt_stdio_output@@$0IA@@2@XZ 0000000140046df0 f i libucrt:output.obj
 0001:00045dfc       ?state_transition_table@?$format_validation_base@_WV?$string_output_adapter@_W@__crt_stdio_output@@@__crt_stdio_output@@KAAEBV?$spectre_mitigated_lookup_table@Ustate_transition_pair@__crt_stdio_output@@$0IA@@2@XZ 0000000140046dfc f i libucrt:output.obj
 0001:00045e08       ?state_transition_table@?$standard_base@DV?$stream_output_adapter@D@__crt_stdio_output@@@__crt_stdio_output@@KAAEBV?$spectre_mitigated_lookup_table@Ustate_transition_pair@__crt_stdio_output@@$0IA@@2@XZ 0000000140046e08 f i libucrt:output.obj
 0001:00045e14       ?state_transition_table@?$standard_base@DV?$string_output_adapter@D@__crt_stdio_output@@@__crt_stdio_output@@KAAEBV?$spectre_mitigated_lookup_table@Ustate_transition_pair@__crt_stdio_output@@$0IA@@2@XZ 0000000140046e14 f i libucrt:output.obj
 0001:00045e20       ?state_transition_table@?$standard_base@_WV?$stream_output_adapter@_W@__crt_stdio_output@@@__crt_stdio_output@@KAAEBV?$spectre_mitigated_lookup_table@Ustate_transition_pair@__crt_stdio_output@@$0IA@@2@XZ 0000000140046e20 f i libucrt:output.obj
 0001:00045e2c       ?state_transition_table@?$standard_base@_WV?$string_output_adapter@_W@__crt_stdio_output@@@__crt_stdio_output@@KAAEBV?$spectre_mitigated_lookup_table@Ustate_transition_pair@__crt_stdio_output@@$0IA@@2@XZ 0000000140046e2c f i libucrt:output.obj
 0001:00045e38       ?tchar_string@?$common_data@D@__crt_stdio_output@@IEAAAEAPEADD@Z 0000000140046e38 f i libucrt:output.obj
 0001:00045e40       ?tchar_string@?$common_data@D@__crt_stdio_output@@IEAAAEAPEADXZ 0000000140046e40 f i libucrt:output.obj
 0001:00045e48       ?tchar_string@?$common_data@_W@__crt_stdio_output@@IEAAAEAPEA_WXZ 0000000140046e48 f i libucrt:output.obj
 0001:00045e50       ?tchar_string@?$common_data@_W@__crt_stdio_output@@IEAAAEAPEA_W_W@Z 0000000140046e50 f i libucrt:output.obj
 0001:00045e58       ?to_integer_size@__crt_stdio_output@@YA_KW4length_modifier@1@@Z 0000000140046e58 f i libucrt:output.obj
 0001:00045eb0       ?type_case_X@?$output_processor@DV?$stream_output_adapter@D@__crt_stdio_output@@V?$format_validation_base@DV?$stream_output_adapter@D@__crt_stdio_output@@@2@@__crt_stdio_output@@AEAA_NXZ 0000000140046eb0 f i libucrt:output.obj
 0001:00045eb8       ?type_case_X@?$output_processor@DV?$stream_output_adapter@D@__crt_stdio_output@@V?$positional_parameter_base@DV?$stream_output_adapter@D@__crt_stdio_output@@@2@@__crt_stdio_output@@AEAA_NXZ 0000000140046eb8 f i libucrt:output.obj
 0001:00045ec0       ?type_case_X@?$output_processor@DV?$stream_output_adapter@D@__crt_stdio_output@@V?$standard_base@DV?$stream_output_adapter@D@__crt_stdio_output@@@2@@__crt_stdio_output@@AEAA_NXZ 0000000140046ec0 f i libucrt:output.obj
 0001:00045ec8       ?type_case_X@?$output_processor@DV?$string_output_adapter@D@__crt_stdio_output@@V?$format_validation_base@DV?$string_output_adapter@D@__crt_stdio_output@@@2@@__crt_stdio_output@@AEAA_NXZ 0000000140046ec8 f i libucrt:output.obj
 0001:00045ed0       ?type_case_X@?$output_processor@DV?$string_output_adapter@D@__crt_stdio_output@@V?$positional_parameter_base@DV?$string_output_adapter@D@__crt_stdio_output@@@2@@__crt_stdio_output@@AEAA_NXZ 0000000140046ed0 f i libucrt:output.obj
 0001:00045ed8       ?type_case_X@?$output_processor@DV?$string_output_adapter@D@__crt_stdio_output@@V?$standard_base@DV?$string_output_adapter@D@__crt_stdio_output@@@2@@__crt_stdio_output@@AEAA_NXZ 0000000140046ed8 f i libucrt:output.obj
 0001:00045ee0       ?type_case_X@?$output_processor@_WV?$stream_output_adapter@_W@__crt_stdio_output@@V?$format_validation_base@_WV?$stream_output_adapter@_W@__crt_stdio_output@@@2@@__crt_stdio_output@@AEAA_NXZ 0000000140046ee0 f i libucrt:output.obj
 0001:00045ee8       ?type_case_X@?$output_processor@_WV?$stream_output_adapter@_W@__crt_stdio_output@@V?$positional_parameter_base@_WV?$stream_output_adapter@_W@__crt_stdio_output@@@2@@__crt_stdio_output@@AEAA_NXZ 0000000140046ee8 f i libucrt:output.obj
 0001:00045ef0       ?type_case_X@?$output_processor@_WV?$stream_output_adapter@_W@__crt_stdio_output@@V?$standard_base@_WV?$stream_output_adapter@_W@__crt_stdio_output@@@2@@__crt_stdio_output@@AEAA_NXZ 0000000140046ef0 f i libucrt:output.obj
 0001:00045ef8       ?type_case_X@?$output_processor@_WV?$string_output_adapter@_W@__crt_stdio_output@@V?$format_validation_base@_WV?$string_output_adapter@_W@__crt_stdio_output@@@2@@__crt_stdio_output@@AEAA_NXZ 0000000140046ef8 f i libucrt:output.obj
 0001:00045f00       ?type_case_X@?$output_processor@_WV?$string_output_adapter@_W@__crt_stdio_output@@V?$positional_parameter_base@_WV?$string_output_adapter@_W@__crt_stdio_output@@@2@@__crt_stdio_output@@AEAA_NXZ 0000000140046f00 f i libucrt:output.obj
 0001:00045f08       ?type_case_X@?$output_processor@_WV?$string_output_adapter@_W@__crt_stdio_output@@V?$standard_base@_WV?$string_output_adapter@_W@__crt_stdio_output@@@2@@__crt_stdio_output@@AEAA_NXZ 0000000140046f08 f i libucrt:output.obj
 0001:00045f10       ?type_case_Z@?$output_processor@DV?$stream_output_adapter@D@__crt_stdio_output@@V?$format_validation_base@DV?$stream_output_adapter@D@__crt_stdio_output@@@2@@__crt_stdio_output@@AEAA_NXZ 0000000140046f10 f i libucrt:output.obj
 0001:00045fac       ?type_case_Z@?$output_processor@DV?$stream_output_adapter@D@__crt_stdio_output@@V?$positional_parameter_base@DV?$stream_output_adapter@D@__crt_stdio_output@@@2@@__crt_stdio_output@@AEAA_NXZ 0000000140046fac f i libucrt:output.obj
 0001:0004607c       ?type_case_Z@?$output_processor@DV?$stream_output_adapter@D@__crt_stdio_output@@V?$standard_base@DV?$stream_output_adapter@D@__crt_stdio_output@@@2@@__crt_stdio_output@@AEAA_NXZ 000000014004707c f i libucrt:output.obj
 0001:00046118       ?type_case_Z@?$output_processor@DV?$string_output_adapter@D@__crt_stdio_output@@V?$format_validation_base@DV?$string_output_adapter@D@__crt_stdio_output@@@2@@__crt_stdio_output@@AEAA_NXZ 0000000140047118 f i libucrt:output.obj
 0001:000461b4       ?type_case_Z@?$output_processor@DV?$string_output_adapter@D@__crt_stdio_output@@V?$positional_parameter_base@DV?$string_output_adapter@D@__crt_stdio_output@@@2@@__crt_stdio_output@@AEAA_NXZ 00000001400471b4 f i libucrt:output.obj
 0001:00046284       ?type_case_Z@?$output_processor@DV?$string_output_adapter@D@__crt_stdio_output@@V?$standard_base@DV?$string_output_adapter@D@__crt_stdio_output@@@2@@__crt_stdio_output@@AEAA_NXZ 0000000140047284 f i libucrt:output.obj
 0001:00046320       ?type_case_Z@?$output_processor@_WV?$stream_output_adapter@_W@__crt_stdio_output@@V?$format_validation_base@_WV?$stream_output_adapter@_W@__crt_stdio_output@@@2@@__crt_stdio_output@@AEAA_NXZ 0000000140047320 f i libucrt:output.obj
 0001:000463b0       ?type_case_Z@?$output_processor@_WV?$stream_output_adapter@_W@__crt_stdio_output@@V?$positional_parameter_base@_WV?$stream_output_adapter@_W@__crt_stdio_output@@@2@@__crt_stdio_output@@AEAA_NXZ 00000001400473b0 f i libucrt:output.obj
 0001:00046460       ?type_case_Z@?$output_processor@_WV?$stream_output_adapter@_W@__crt_stdio_output@@V?$standard_base@_WV?$stream_output_adapter@_W@__crt_stdio_output@@@2@@__crt_stdio_output@@AEAA_NXZ 0000000140047460 f i libucrt:output.obj
 0001:000464f0       ?type_case_Z@?$output_processor@_WV?$string_output_adapter@_W@__crt_stdio_output@@V?$format_validation_base@_WV?$string_output_adapter@_W@__crt_stdio_output@@@2@@__crt_stdio_output@@AEAA_NXZ 00000001400474f0 f i libucrt:output.obj
 0001:00046580       ?type_case_Z@?$output_processor@_WV?$string_output_adapter@_W@__crt_stdio_output@@V?$positional_parameter_base@_WV?$string_output_adapter@_W@__crt_stdio_output@@@2@@__crt_stdio_output@@AEAA_NXZ 0000000140047580 f i libucrt:output.obj
 0001:00046630       ?type_case_Z@?$output_processor@_WV?$string_output_adapter@_W@__crt_stdio_output@@V?$standard_base@_WV?$string_output_adapter@_W@__crt_stdio_output@@@2@@__crt_stdio_output@@AEAA_NXZ 0000000140047630 f i libucrt:output.obj
 0001:000466c0       ?type_case_a@?$output_processor@DV?$stream_output_adapter@D@__crt_stdio_output@@V?$format_validation_base@DV?$stream_output_adapter@D@__crt_stdio_output@@@2@@__crt_stdio_output@@AEAA_NXZ 00000001400476c0 f i libucrt:output.obj
 0001:000469b0       ?type_case_a@?$output_processor@DV?$stream_output_adapter@D@__crt_stdio_output@@V?$positional_parameter_base@DV?$stream_output_adapter@D@__crt_stdio_output@@@2@@__crt_stdio_output@@AEAA_NXZ 00000001400479b0 f i libucrt:output.obj
 0001:00046cc8       ?type_case_a@?$output_processor@DV?$stream_output_adapter@D@__crt_stdio_output@@V?$standard_base@DV?$stream_output_adapter@D@__crt_stdio_output@@@2@@__crt_stdio_output@@AEAA_NXZ 0000000140047cc8 f i libucrt:output.obj
 0001:00046fb8       ?type_case_a@?$output_processor@DV?$string_output_adapter@D@__crt_stdio_output@@V?$format_validation_base@DV?$string_output_adapter@D@__crt_stdio_output@@@2@@__crt_stdio_output@@AEAA_NXZ 0000000140047fb8 f i libucrt:output.obj
 0001:000472a8       ?type_case_a@?$output_processor@DV?$string_output_adapter@D@__crt_stdio_output@@V?$positional_parameter_base@DV?$string_output_adapter@D@__crt_stdio_output@@@2@@__crt_stdio_output@@AEAA_NXZ 00000001400482a8 f i libucrt:output.obj
 0001:000475c0       ?type_case_a@?$output_processor@DV?$string_output_adapter@D@__crt_stdio_output@@V?$standard_base@DV?$string_output_adapter@D@__crt_stdio_output@@@2@@__crt_stdio_output@@AEAA_NXZ 00000001400485c0 f i libucrt:output.obj
 0001:000478b0       ?type_case_a@?$output_processor@_WV?$stream_output_adapter@_W@__crt_stdio_output@@V?$format_validation_base@_WV?$stream_output_adapter@_W@__crt_stdio_output@@@2@@__crt_stdio_output@@AEAA_NXZ 00000001400488b0 f i libucrt:output.obj
 0001:00047bc8       ?type_case_a@?$output_processor@_WV?$stream_output_adapter@_W@__crt_stdio_output@@V?$positional_parameter_base@_WV?$stream_output_adapter@_W@__crt_stdio_output@@@2@@__crt_stdio_output@@AEAA_NXZ 0000000140048bc8 f i libucrt:output.obj
 0001:00047f0c       ?type_case_a@?$output_processor@_WV?$stream_output_adapter@_W@__crt_stdio_output@@V?$standard_base@_WV?$stream_output_adapter@_W@__crt_stdio_output@@@2@@__crt_stdio_output@@AEAA_NXZ 0000000140048f0c f i libucrt:output.obj
 0001:00048224       ?type_case_a@?$output_processor@_WV?$string_output_adapter@_W@__crt_stdio_output@@V?$format_validation_base@_WV?$string_output_adapter@_W@__crt_stdio_output@@@2@@__crt_stdio_output@@AEAA_NXZ 0000000140049224 f i libucrt:output.obj
 0001:0004853c       ?type_case_a@?$output_processor@_WV?$string_output_adapter@_W@__crt_stdio_output@@V?$positional_parameter_base@_WV?$string_output_adapter@_W@__crt_stdio_output@@@2@@__crt_stdio_output@@AEAA_NXZ 000000014004953c f i libucrt:output.obj
 0001:00048880       ?type_case_a@?$output_processor@_WV?$string_output_adapter@_W@__crt_stdio_output@@V?$standard_base@_WV?$string_output_adapter@_W@__crt_stdio_output@@@2@@__crt_stdio_output@@AEAA_NXZ 0000000140049880 f i libucrt:output.obj
 0001:00048b98       ?type_case_c@?$output_processor@DV?$stream_output_adapter@D@__crt_stdio_output@@V?$format_validation_base@DV?$stream_output_adapter@D@__crt_stdio_output@@@2@@__crt_stdio_output@@AEAA_NXZ 0000000140049b98 f i libucrt:output.obj
 0001:00048ba0       ?type_case_c@?$output_processor@DV?$stream_output_adapter@D@__crt_stdio_output@@V?$positional_parameter_base@DV?$stream_output_adapter@D@__crt_stdio_output@@@2@@__crt_stdio_output@@AEAA_NXZ 0000000140049ba0 f i libucrt:output.obj
 0001:00048ba8       ?type_case_c@?$output_processor@DV?$stream_output_adapter@D@__crt_stdio_output@@V?$standard_base@DV?$stream_output_adapter@D@__crt_stdio_output@@@2@@__crt_stdio_output@@AEAA_NXZ 0000000140049ba8 f i libucrt:output.obj
 0001:00048bb0       ?type_case_c@?$output_processor@DV?$string_output_adapter@D@__crt_stdio_output@@V?$format_validation_base@DV?$string_output_adapter@D@__crt_stdio_output@@@2@@__crt_stdio_output@@AEAA_NXZ 0000000140049bb0 f i libucrt:output.obj
 0001:00048bb8       ?type_case_c@?$output_processor@DV?$string_output_adapter@D@__crt_stdio_output@@V?$positional_parameter_base@DV?$string_output_adapter@D@__crt_stdio_output@@@2@@__crt_stdio_output@@AEAA_NXZ 0000000140049bb8 f i libucrt:output.obj
 0001:00048bc0       ?type_case_c@?$output_processor@DV?$string_output_adapter@D@__crt_stdio_output@@V?$standard_base@DV?$string_output_adapter@D@__crt_stdio_output@@@2@@__crt_stdio_output@@AEAA_NXZ 0000000140049bc0 f i libucrt:output.obj
 0001:00048bc8       ?type_case_c@?$output_processor@_WV?$stream_output_adapter@_W@__crt_stdio_output@@V?$format_validation_base@_WV?$stream_output_adapter@_W@__crt_stdio_output@@@2@@__crt_stdio_output@@AEAA_NXZ 0000000140049bc8 f i libucrt:output.obj
 0001:00048bd0       ?type_case_c@?$output_processor@_WV?$stream_output_adapter@_W@__crt_stdio_output@@V?$positional_parameter_base@_WV?$stream_output_adapter@_W@__crt_stdio_output@@@2@@__crt_stdio_output@@AEAA_NXZ 0000000140049bd0 f i libucrt:output.obj
 0001:00048bd8       ?type_case_c@?$output_processor@_WV?$stream_output_adapter@_W@__crt_stdio_output@@V?$standard_base@_WV?$stream_output_adapter@_W@__crt_stdio_output@@@2@@__crt_stdio_output@@AEAA_NXZ 0000000140049bd8 f i libucrt:output.obj
 0001:00048be0       ?type_case_c@?$output_processor@_WV?$string_output_adapter@_W@__crt_stdio_output@@V?$format_validation_base@_WV?$string_output_adapter@_W@__crt_stdio_output@@@2@@__crt_stdio_output@@AEAA_NXZ 0000000140049be0 f i libucrt:output.obj
 0001:00048be8       ?type_case_c@?$output_processor@_WV?$string_output_adapter@_W@__crt_stdio_output@@V?$positional_parameter_base@_WV?$string_output_adapter@_W@__crt_stdio_output@@@2@@__crt_stdio_output@@AEAA_NXZ 0000000140049be8 f i libucrt:output.obj
 0001:00048bf0       ?type_case_c@?$output_processor@_WV?$string_output_adapter@_W@__crt_stdio_output@@V?$standard_base@_WV?$string_output_adapter@_W@__crt_stdio_output@@@2@@__crt_stdio_output@@AEAA_NXZ 0000000140049bf0 f i libucrt:output.obj
 0001:00048bf8       ?type_case_c_tchar@?$output_processor@DV?$stream_output_adapter@D@__crt_stdio_output@@V?$format_validation_base@DV?$stream_output_adapter@D@__crt_stdio_output@@@2@@__crt_stdio_output@@AEAA_ND@Z 0000000140049bf8 f i libucrt:output.obj
 0001:00048d00       ?type_case_c_tchar@?$output_processor@DV?$stream_output_adapter@D@__crt_stdio_output@@V?$positional_parameter_base@DV?$stream_output_adapter@D@__crt_stdio_output@@@2@@__crt_stdio_output@@AEAA_ND@Z 0000000140049d00 f i libucrt:output.obj
 0001:00048e60       ?type_case_c_tchar@?$output_processor@DV?$stream_output_adapter@D@__crt_stdio_output@@V?$standard_base@DV?$stream_output_adapter@D@__crt_stdio_output@@@2@@__crt_stdio_output@@AEAA_ND@Z 0000000140049e60 f i libucrt:output.obj
 0001:00048f68       ?type_case_c_tchar@?$output_processor@DV?$string_output_adapter@D@__crt_stdio_output@@V?$format_validation_base@DV?$string_output_adapter@D@__crt_stdio_output@@@2@@__crt_stdio_output@@AEAA_ND@Z 0000000140049f68 f i libucrt:output.obj
 0001:00049070       ?type_case_c_tchar@?$output_processor@DV?$string_output_adapter@D@__crt_stdio_output@@V?$positional_parameter_base@DV?$string_output_adapter@D@__crt_stdio_output@@@2@@__crt_stdio_output@@AEAA_ND@Z 000000014004a070 f i libucrt:output.obj
 0001:000491d0       ?type_case_c_tchar@?$output_processor@DV?$string_output_adapter@D@__crt_stdio_output@@V?$standard_base@DV?$string_output_adapter@D@__crt_stdio_output@@@2@@__crt_stdio_output@@AEAA_ND@Z 000000014004a1d0 f i libucrt:output.obj
 0001:000492d8       ?type_case_c_tchar@?$output_processor@_WV?$stream_output_adapter@_W@__crt_stdio_output@@V?$format_validation_base@_WV?$stream_output_adapter@_W@__crt_stdio_output@@@2@@__crt_stdio_output@@AEAA_N_W@Z 000000014004a2d8 f i libucrt:output.obj
 0001:000493d0       ?type_case_c_tchar@?$output_processor@_WV?$stream_output_adapter@_W@__crt_stdio_output@@V?$positional_parameter_base@_WV?$stream_output_adapter@_W@__crt_stdio_output@@@2@@__crt_stdio_output@@AEAA_N_W@Z 000000014004a3d0 f i libucrt:output.obj
 0001:00049504       ?type_case_c_tchar@?$output_processor@_WV?$stream_output_adapter@_W@__crt_stdio_output@@V?$standard_base@_WV?$stream_output_adapter@_W@__crt_stdio_output@@@2@@__crt_stdio_output@@AEAA_N_W@Z 000000014004a504 f i libucrt:output.obj
 0001:000495fc       ?type_case_c_tchar@?$output_processor@_WV?$string_output_adapter@_W@__crt_stdio_output@@V?$format_validation_base@_WV?$string_output_adapter@_W@__crt_stdio_output@@@2@@__crt_stdio_output@@AEAA_N_W@Z 000000014004a5fc f i libucrt:output.obj
 0001:000496f4       ?type_case_c_tchar@?$output_processor@_WV?$string_output_adapter@_W@__crt_stdio_output@@V?$positional_parameter_base@_WV?$string_output_adapter@_W@__crt_stdio_output@@@2@@__crt_stdio_output@@AEAA_N_W@Z 000000014004a6f4 f i libucrt:output.obj
 0001:00049828       ?type_case_c_tchar@?$output_processor@_WV?$string_output_adapter@_W@__crt_stdio_output@@V?$standard_base@_WV?$string_output_adapter@_W@__crt_stdio_output@@@2@@__crt_stdio_output@@AEAA_N_W@Z 000000014004a828 f i libucrt:output.obj
 0001:00049920       ?type_case_d@?$output_processor@DV?$stream_output_adapter@D@__crt_stdio_output@@V?$format_validation_base@DV?$stream_output_adapter@D@__crt_stdio_output@@@2@@__crt_stdio_output@@AEAA_NXZ 000000014004a920 f i libucrt:output.obj
 0001:00049930       ?type_case_d@?$output_processor@DV?$stream_output_adapter@D@__crt_stdio_output@@V?$positional_parameter_base@DV?$stream_output_adapter@D@__crt_stdio_output@@@2@@__crt_stdio_output@@AEAA_NXZ 000000014004a930 f i libucrt:output.obj
 0001:00049940       ?type_case_d@?$output_processor@DV?$stream_output_adapter@D@__crt_stdio_output@@V?$standard_base@DV?$stream_output_adapter@D@__crt_stdio_output@@@2@@__crt_stdio_output@@AEAA_NXZ 000000014004a940 f i libucrt:output.obj
 0001:00049950       ?type_case_d@?$output_processor@DV?$string_output_adapter@D@__crt_stdio_output@@V?$format_validation_base@DV?$string_output_adapter@D@__crt_stdio_output@@@2@@__crt_stdio_output@@AEAA_NXZ 000000014004a950 f i libucrt:output.obj
 0001:00049960       ?type_case_d@?$output_processor@DV?$string_output_adapter@D@__crt_stdio_output@@V?$positional_parameter_base@DV?$string_output_adapter@D@__crt_stdio_output@@@2@@__crt_stdio_output@@AEAA_NXZ 000000014004a960 f i libucrt:output.obj
 0001:00049970       ?type_case_d@?$output_processor@DV?$string_output_adapter@D@__crt_stdio_output@@V?$standard_base@DV?$string_output_adapter@D@__crt_stdio_output@@@2@@__crt_stdio_output@@AEAA_NXZ 000000014004a970 f i libucrt:output.obj
 0001:00049980       ?type_case_d@?$output_processor@_WV?$stream_output_adapter@_W@__crt_stdio_output@@V?$format_validation_base@_WV?$stream_output_adapter@_W@__crt_stdio_output@@@2@@__crt_stdio_output@@AEAA_NXZ 000000014004a980 f i libucrt:output.obj
 0001:00049990       ?type_case_d@?$output_processor@_WV?$stream_output_adapter@_W@__crt_stdio_output@@V?$positional_parameter_base@_WV?$stream_output_adapter@_W@__crt_stdio_output@@@2@@__crt_stdio_output@@AEAA_NXZ 000000014004a990 f i libucrt:output.obj
 0001:000499a0       ?type_case_d@?$output_processor@_WV?$stream_output_adapter@_W@__crt_stdio_output@@V?$standard_base@_WV?$stream_output_adapter@_W@__crt_stdio_output@@@2@@__crt_stdio_output@@AEAA_NXZ 000000014004a9a0 f i libucrt:output.obj
 0001:000499b0       ?type_case_d@?$output_processor@_WV?$string_output_adapter@_W@__crt_stdio_output@@V?$format_validation_base@_WV?$string_output_adapter@_W@__crt_stdio_output@@@2@@__crt_stdio_output@@AEAA_NXZ 000000014004a9b0 f i libucrt:output.obj
 0001:000499c0       ?type_case_d@?$output_processor@_WV?$string_output_adapter@_W@__crt_stdio_output@@V?$positional_parameter_base@_WV?$string_output_adapter@_W@__crt_stdio_output@@@2@@__crt_stdio_output@@AEAA_NXZ 000000014004a9c0 f i libucrt:output.obj
 0001:000499d0       ?type_case_d@?$output_processor@_WV?$string_output_adapter@_W@__crt_stdio_output@@V?$standard_base@_WV?$string_output_adapter@_W@__crt_stdio_output@@@2@@__crt_stdio_output@@AEAA_NXZ 000000014004a9d0 f i libucrt:output.obj
 0001:000499e0       ?type_case_n@?$output_processor@DV?$stream_output_adapter@D@__crt_stdio_output@@V?$format_validation_base@DV?$stream_output_adapter@D@__crt_stdio_output@@@2@@__crt_stdio_output@@AEAA_NXZ 000000014004a9e0 f i libucrt:output.obj
 0001:00049ac4       ?type_case_n@?$output_processor@DV?$stream_output_adapter@D@__crt_stdio_output@@V?$positional_parameter_base@DV?$stream_output_adapter@D@__crt_stdio_output@@@2@@__crt_stdio_output@@AEAA_NXZ 000000014004aac4 f i libucrt:output.obj
 0001:00049be0       ?type_case_n@?$output_processor@DV?$stream_output_adapter@D@__crt_stdio_output@@V?$standard_base@DV?$stream_output_adapter@D@__crt_stdio_output@@@2@@__crt_stdio_output@@AEAA_NXZ 000000014004abe0 f i libucrt:output.obj
 0001:00049cc4       ?type_case_n@?$output_processor@DV?$string_output_adapter@D@__crt_stdio_output@@V?$format_validation_base@DV?$string_output_adapter@D@__crt_stdio_output@@@2@@__crt_stdio_output@@AEAA_NXZ 000000014004acc4 f i libucrt:output.obj
 0001:00049da8       ?type_case_n@?$output_processor@DV?$string_output_adapter@D@__crt_stdio_output@@V?$positional_parameter_base@DV?$string_output_adapter@D@__crt_stdio_output@@@2@@__crt_stdio_output@@AEAA_NXZ 000000014004ada8 f i libucrt:output.obj
 0001:00049ec4       ?type_case_n@?$output_processor@DV?$string_output_adapter@D@__crt_stdio_output@@V?$standard_base@DV?$string_output_adapter@D@__crt_stdio_output@@@2@@__crt_stdio_output@@AEAA_NXZ 000000014004aec4 f i libucrt:output.obj
 0001:00049fa8       ?type_case_n@?$output_processor@_WV?$stream_output_adapter@_W@__crt_stdio_output@@V?$format_validation_base@_WV?$stream_output_adapter@_W@__crt_stdio_output@@@2@@__crt_stdio_output@@AEAA_NXZ 000000014004afa8 f i libucrt:output.obj
 0001:0004a08c       ?type_case_n@?$output_processor@_WV?$stream_output_adapter@_W@__crt_stdio_output@@V?$positional_parameter_base@_WV?$stream_output_adapter@_W@__crt_stdio_output@@@2@@__crt_stdio_output@@AEAA_NXZ 000000014004b08c f i libucrt:output.obj
 0001:0004a1a8       ?type_case_n@?$output_processor@_WV?$stream_output_adapter@_W@__crt_stdio_output@@V?$standard_base@_WV?$stream_output_adapter@_W@__crt_stdio_output@@@2@@__crt_stdio_output@@AEAA_NXZ 000000014004b1a8 f i libucrt:output.obj
 0001:0004a28c       ?type_case_n@?$output_processor@_WV?$string_output_adapter@_W@__crt_stdio_output@@V?$format_validation_base@_WV?$string_output_adapter@_W@__crt_stdio_output@@@2@@__crt_stdio_output@@AEAA_NXZ 000000014004b28c f i libucrt:output.obj
 0001:0004a370       ?type_case_n@?$output_processor@_WV?$string_output_adapter@_W@__crt_stdio_output@@V?$positional_parameter_base@_WV?$string_output_adapter@_W@__crt_stdio_output@@@2@@__crt_stdio_output@@AEAA_NXZ 000000014004b370 f i libucrt:output.obj
 0001:0004a48c       ?type_case_n@?$output_processor@_WV?$string_output_adapter@_W@__crt_stdio_output@@V?$standard_base@_WV?$string_output_adapter@_W@__crt_stdio_output@@@2@@__crt_stdio_output@@AEAA_NXZ 000000014004b48c f i libucrt:output.obj
 0001:0004a570       ?type_case_o@?$output_processor@DV?$stream_output_adapter@D@__crt_stdio_output@@V?$format_validation_base@DV?$stream_output_adapter@D@__crt_stdio_output@@@2@@__crt_stdio_output@@AEAA_NXZ 000000014004b570 f i libucrt:output.obj
 0001:0004a590       ?type_case_o@?$output_processor@DV?$stream_output_adapter@D@__crt_stdio_output@@V?$positional_parameter_base@DV?$stream_output_adapter@D@__crt_stdio_output@@@2@@__crt_stdio_output@@AEAA_NXZ 000000014004b590 f i libucrt:output.obj
 0001:0004a5b0       ?type_case_o@?$output_processor@DV?$stream_output_adapter@D@__crt_stdio_output@@V?$standard_base@DV?$stream_output_adapter@D@__crt_stdio_output@@@2@@__crt_stdio_output@@AEAA_NXZ 000000014004b5b0 f i libucrt:output.obj
 0001:0004a5d0       ?type_case_o@?$output_processor@DV?$string_output_adapter@D@__crt_stdio_output@@V?$format_validation_base@DV?$string_output_adapter@D@__crt_stdio_output@@@2@@__crt_stdio_output@@AEAA_NXZ 000000014004b5d0 f i libucrt:output.obj
 0001:0004a5f0       ?type_case_o@?$output_processor@DV?$string_output_adapter@D@__crt_stdio_output@@V?$positional_parameter_base@DV?$string_output_adapter@D@__crt_stdio_output@@@2@@__crt_stdio_output@@AEAA_NXZ 000000014004b5f0 f i libucrt:output.obj
 0001:0004a610       ?type_case_o@?$output_processor@DV?$string_output_adapter@D@__crt_stdio_output@@V?$standard_base@DV?$string_output_adapter@D@__crt_stdio_output@@@2@@__crt_stdio_output@@AEAA_NXZ 000000014004b610 f i libucrt:output.obj
 0001:0004a630       ?type_case_o@?$output_processor@_WV?$stream_output_adapter@_W@__crt_stdio_output@@V?$format_validation_base@_WV?$stream_output_adapter@_W@__crt_stdio_output@@@2@@__crt_stdio_output@@AEAA_NXZ 000000014004b630 f i libucrt:output.obj
 0001:0004a650       ?type_case_o@?$output_processor@_WV?$stream_output_adapter@_W@__crt_stdio_output@@V?$positional_parameter_base@_WV?$stream_output_adapter@_W@__crt_stdio_output@@@2@@__crt_stdio_output@@AEAA_NXZ 000000014004b650 f i libucrt:output.obj
 0001:0004a670       ?type_case_o@?$output_processor@_WV?$stream_output_adapter@_W@__crt_stdio_output@@V?$standard_base@_WV?$stream_output_adapter@_W@__crt_stdio_output@@@2@@__crt_stdio_output@@AEAA_NXZ 000000014004b670 f i libucrt:output.obj
 0001:0004a690       ?type_case_o@?$output_processor@_WV?$string_output_adapter@_W@__crt_stdio_output@@V?$format_validation_base@_WV?$string_output_adapter@_W@__crt_stdio_output@@@2@@__crt_stdio_output@@AEAA_NXZ 000000014004b690 f i libucrt:output.obj
 0001:0004a6b0       ?type_case_o@?$output_processor@_WV?$string_output_adapter@_W@__crt_stdio_output@@V?$positional_parameter_base@_WV?$string_output_adapter@_W@__crt_stdio_output@@@2@@__crt_stdio_output@@AEAA_NXZ 000000014004b6b0 f i libucrt:output.obj
 0001:0004a6d0       ?type_case_o@?$output_processor@_WV?$string_output_adapter@_W@__crt_stdio_output@@V?$standard_base@_WV?$string_output_adapter@_W@__crt_stdio_output@@@2@@__crt_stdio_output@@AEAA_NXZ 000000014004b6d0 f i libucrt:output.obj
 0001:0004a6f0       ?type_case_p@?$output_processor@DV?$stream_output_adapter@D@__crt_stdio_output@@V?$format_validation_base@DV?$stream_output_adapter@D@__crt_stdio_output@@@2@@__crt_stdio_output@@AEAA_NXZ 000000014004b6f0 f i libucrt:output.obj
 0001:0004a70c       ?type_case_p@?$output_processor@DV?$stream_output_adapter@D@__crt_stdio_output@@V?$positional_parameter_base@DV?$stream_output_adapter@D@__crt_stdio_output@@@2@@__crt_stdio_output@@AEAA_NXZ 000000014004b70c f i libucrt:output.obj
 0001:0004a728       ?type_case_p@?$output_processor@DV?$stream_output_adapter@D@__crt_stdio_output@@V?$standard_base@DV?$stream_output_adapter@D@__crt_stdio_output@@@2@@__crt_stdio_output@@AEAA_NXZ 000000014004b728 f i libucrt:output.obj
 0001:0004a744       ?type_case_p@?$output_processor@DV?$string_output_adapter@D@__crt_stdio_output@@V?$format_validation_base@DV?$string_output_adapter@D@__crt_stdio_output@@@2@@__crt_stdio_output@@AEAA_NXZ 000000014004b744 f i libucrt:output.obj
 0001:0004a760       ?type_case_p@?$output_processor@DV?$string_output_adapter@D@__crt_stdio_output@@V?$positional_parameter_base@DV?$string_output_adapter@D@__crt_stdio_output@@@2@@__crt_stdio_output@@AEAA_NXZ 000000014004b760 f i libucrt:output.obj
 0001:0004a77c       ?type_case_p@?$output_processor@DV?$string_output_adapter@D@__crt_stdio_output@@V?$standard_base@DV?$string_output_adapter@D@__crt_stdio_output@@@2@@__crt_stdio_output@@AEAA_NXZ 000000014004b77c f i libucrt:output.obj
 0001:0004a798       ?type_case_p@?$output_processor@_WV?$stream_output_adapter@_W@__crt_stdio_output@@V?$format_validation_base@_WV?$stream_output_adapter@_W@__crt_stdio_output@@@2@@__crt_stdio_output@@AEAA_NXZ 000000014004b798 f i libucrt:output.obj
 0001:0004a7b4       ?type_case_p@?$output_processor@_WV?$stream_output_adapter@_W@__crt_stdio_output@@V?$positional_parameter_base@_WV?$stream_output_adapter@_W@__crt_stdio_output@@@2@@__crt_stdio_output@@AEAA_NXZ 000000014004b7b4 f i libucrt:output.obj
 0001:0004a7d0       ?type_case_p@?$output_processor@_WV?$stream_output_adapter@_W@__crt_stdio_output@@V?$standard_base@_WV?$stream_output_adapter@_W@__crt_stdio_output@@@2@@__crt_stdio_output@@AEAA_NXZ 000000014004b7d0 f i libucrt:output.obj
 0001:0004a7ec       ?type_case_p@?$output_processor@_WV?$string_output_adapter@_W@__crt_stdio_output@@V?$format_validation_base@_WV?$string_output_adapter@_W@__crt_stdio_output@@@2@@__crt_stdio_output@@AEAA_NXZ 000000014004b7ec f i libucrt:output.obj
 0001:0004a808       ?type_case_p@?$output_processor@_WV?$string_output_adapter@_W@__crt_stdio_output@@V?$positional_parameter_base@_WV?$string_output_adapter@_W@__crt_stdio_output@@@2@@__crt_stdio_output@@AEAA_NXZ 000000014004b808 f i libucrt:output.obj
 0001:0004a824       ?type_case_p@?$output_processor@_WV?$string_output_adapter@_W@__crt_stdio_output@@V?$standard_base@_WV?$string_output_adapter@_W@__crt_stdio_output@@@2@@__crt_stdio_output@@AEAA_NXZ 000000014004b824 f i libucrt:output.obj
 0001:0004a840       ?type_case_s@?$output_processor@DV?$stream_output_adapter@D@__crt_stdio_output@@V?$format_validation_base@DV?$stream_output_adapter@D@__crt_stdio_output@@@2@@__crt_stdio_output@@AEAA_NXZ 000000014004b840 f i libucrt:output.obj
 0001:0004a900       ?type_case_s@?$output_processor@DV?$stream_output_adapter@D@__crt_stdio_output@@V?$positional_parameter_base@DV?$stream_output_adapter@D@__crt_stdio_output@@@2@@__crt_stdio_output@@AEAA_NXZ 000000014004b900 f i libucrt:output.obj
 0001:0004a9ec       ?type_case_s@?$output_processor@DV?$stream_output_adapter@D@__crt_stdio_output@@V?$standard_base@DV?$stream_output_adapter@D@__crt_stdio_output@@@2@@__crt_stdio_output@@AEAA_NXZ 000000014004b9ec f i libucrt:output.obj
 0001:0004aaac       ?type_case_s@?$output_processor@DV?$string_output_adapter@D@__crt_stdio_output@@V?$format_validation_base@DV?$string_output_adapter@D@__crt_stdio_output@@@2@@__crt_stdio_output@@AEAA_NXZ 000000014004baac f i libucrt:output.obj
 0001:0004ab6c       ?type_case_s@?$output_processor@DV?$string_output_adapter@D@__crt_stdio_output@@V?$positional_parameter_base@DV?$string_output_adapter@D@__crt_stdio_output@@@2@@__crt_stdio_output@@AEAA_NXZ 000000014004bb6c f i libucrt:output.obj
 0001:0004ac58       ?type_case_s@?$output_processor@DV?$string_output_adapter@D@__crt_stdio_output@@V?$standard_base@DV?$string_output_adapter@D@__crt_stdio_output@@@2@@__crt_stdio_output@@AEAA_NXZ 000000014004bc58 f i libucrt:output.obj
 0001:0004ad18       ?type_case_s@?$output_processor@_WV?$stream_output_adapter@_W@__crt_stdio_output@@V?$format_validation_base@_WV?$stream_output_adapter@_W@__crt_stdio_output@@@2@@__crt_stdio_output@@AEAA_NXZ 000000014004bd18 f i libucrt:output.obj
 0001:0004add8       ?type_case_s@?$output_processor@_WV?$stream_output_adapter@_W@__crt_stdio_output@@V?$positional_parameter_base@_WV?$stream_output_adapter@_W@__crt_stdio_output@@@2@@__crt_stdio_output@@AEAA_NXZ 000000014004bdd8 f i libucrt:output.obj
 0001:0004aebc       ?type_case_s@?$output_processor@_WV?$stream_output_adapter@_W@__crt_stdio_output@@V?$standard_base@_WV?$stream_output_adapter@_W@__crt_stdio_output@@@2@@__crt_stdio_output@@AEAA_NXZ 000000014004bebc f i libucrt:output.obj
 0001:0004af7c       ?type_case_s@?$output_processor@_WV?$string_output_adapter@_W@__crt_stdio_output@@V?$format_validation_base@_WV?$string_output_adapter@_W@__crt_stdio_output@@@2@@__crt_stdio_output@@AEAA_NXZ 000000014004bf7c f i libucrt:output.obj
 0001:0004b03c       ?type_case_s@?$output_processor@_WV?$string_output_adapter@_W@__crt_stdio_output@@V?$positional_parameter_base@_WV?$string_output_adapter@_W@__crt_stdio_output@@@2@@__crt_stdio_output@@AEAA_NXZ 000000014004c03c f i libucrt:output.obj
 0001:0004b120       ?type_case_s@?$output_processor@_WV?$string_output_adapter@_W@__crt_stdio_output@@V?$standard_base@_WV?$string_output_adapter@_W@__crt_stdio_output@@@2@@__crt_stdio_output@@AEAA_NXZ 000000014004c120 f i libucrt:output.obj
 0001:0004b1e0       ?type_case_s_compute_narrow_string_length@?$output_processor@DV?$stream_output_adapter@D@__crt_stdio_output@@V?$format_validation_base@DV?$stream_output_adapter@D@__crt_stdio_output@@@2@@__crt_stdio_output@@AEAAHHD@Z 000000014004c1e0 f i libucrt:output.obj
 0001:0004b1f0       ?type_case_s_compute_narrow_string_length@?$output_processor@DV?$stream_output_adapter@D@__crt_stdio_output@@V?$positional_parameter_base@DV?$stream_output_adapter@D@__crt_stdio_output@@@2@@__crt_stdio_output@@AEAAHHD@Z 000000014004c1f0 f i libucrt:output.obj
 0001:0004b200       ?type_case_s_compute_narrow_string_length@?$output_processor@DV?$stream_output_adapter@D@__crt_stdio_output@@V?$standard_base@DV?$stream_output_adapter@D@__crt_stdio_output@@@2@@__crt_stdio_output@@AEAAHHD@Z 000000014004c200 f i libucrt:output.obj
 0001:0004b210       ?type_case_s_compute_narrow_string_length@?$output_processor@DV?$string_output_adapter@D@__crt_stdio_output@@V?$format_validation_base@DV?$string_output_adapter@D@__crt_stdio_output@@@2@@__crt_stdio_output@@AEAAHHD@Z 000000014004c210 f i libucrt:output.obj
 0001:0004b220       ?type_case_s_compute_narrow_string_length@?$output_processor@DV?$string_output_adapter@D@__crt_stdio_output@@V?$positional_parameter_base@DV?$string_output_adapter@D@__crt_stdio_output@@@2@@__crt_stdio_output@@AEAAHHD@Z 000000014004c220 f i libucrt:output.obj
 0001:0004b230       ?type_case_s_compute_narrow_string_length@?$output_processor@DV?$string_output_adapter@D@__crt_stdio_output@@V?$standard_base@DV?$string_output_adapter@D@__crt_stdio_output@@@2@@__crt_stdio_output@@AEAAHHD@Z 000000014004c230 f i libucrt:output.obj
 0001:0004b240       ?type_case_s_compute_narrow_string_length@?$output_processor@_WV?$stream_output_adapter@_W@__crt_stdio_output@@V?$format_validation_base@_WV?$stream_output_adapter@_W@__crt_stdio_output@@@2@@__crt_stdio_output@@AEAAHH_W@Z 000000014004c240 f i libucrt:output.obj
 0001:0004b330       ?type_case_s_compute_narrow_string_length@?$output_processor@_WV?$stream_output_adapter@_W@__crt_stdio_output@@V?$positional_parameter_base@_WV?$stream_output_adapter@_W@__crt_stdio_output@@@2@@__crt_stdio_output@@AEAAHH_W@Z 000000014004c330 f i libucrt:output.obj
 0001:0004b420       ?type_case_s_compute_narrow_string_length@?$output_processor@_WV?$stream_output_adapter@_W@__crt_stdio_output@@V?$standard_base@_WV?$stream_output_adapter@_W@__crt_stdio_output@@@2@@__crt_stdio_output@@AEAAHH_W@Z 000000014004c420 f i libucrt:output.obj
 0001:0004b510       ?type_case_s_compute_narrow_string_length@?$output_processor@_WV?$string_output_adapter@_W@__crt_stdio_output@@V?$format_validation_base@_WV?$string_output_adapter@_W@__crt_stdio_output@@@2@@__crt_stdio_output@@AEAAHH_W@Z 000000014004c510 f i libucrt:output.obj
 0001:0004b600       ?type_case_s_compute_narrow_string_length@?$output_processor@_WV?$string_output_adapter@_W@__crt_stdio_output@@V?$positional_parameter_base@_WV?$string_output_adapter@_W@__crt_stdio_output@@@2@@__crt_stdio_output@@AEAAHH_W@Z 000000014004c600 f i libucrt:output.obj
 0001:0004b6f0       ?type_case_s_compute_narrow_string_length@?$output_processor@_WV?$string_output_adapter@_W@__crt_stdio_output@@V?$standard_base@_WV?$string_output_adapter@_W@__crt_stdio_output@@@2@@__crt_stdio_output@@AEAAHH_W@Z 000000014004c6f0 f i libucrt:output.obj
 0001:0004b7e0       ?type_case_u@?$output_processor@DV?$stream_output_adapter@D@__crt_stdio_output@@V?$format_validation_base@DV?$stream_output_adapter@D@__crt_stdio_output@@@2@@__crt_stdio_output@@AEAA_NXZ 000000014004c7e0 f i libucrt:output.obj
 0001:0004b7e8       ?type_case_u@?$output_processor@DV?$stream_output_adapter@D@__crt_stdio_output@@V?$positional_parameter_base@DV?$stream_output_adapter@D@__crt_stdio_output@@@2@@__crt_stdio_output@@AEAA_NXZ 000000014004c7e8 f i libucrt:output.obj
 0001:0004b7f0       ?type_case_u@?$output_processor@DV?$stream_output_adapter@D@__crt_stdio_output@@V?$standard_base@DV?$stream_output_adapter@D@__crt_stdio_output@@@2@@__crt_stdio_output@@AEAA_NXZ 000000014004c7f0 f i libucrt:output.obj
 0001:0004b7f8       ?type_case_u@?$output_processor@DV?$string_output_adapter@D@__crt_stdio_output@@V?$format_validation_base@DV?$string_output_adapter@D@__crt_stdio_output@@@2@@__crt_stdio_output@@AEAA_NXZ 000000014004c7f8 f i libucrt:output.obj
 0001:0004b800       ?type_case_u@?$output_processor@DV?$string_output_adapter@D@__crt_stdio_output@@V?$positional_parameter_base@DV?$string_output_adapter@D@__crt_stdio_output@@@2@@__crt_stdio_output@@AEAA_NXZ 000000014004c800 f i libucrt:output.obj
 0001:0004b808       ?type_case_u@?$output_processor@DV?$string_output_adapter@D@__crt_stdio_output@@V?$standard_base@DV?$string_output_adapter@D@__crt_stdio_output@@@2@@__crt_stdio_output@@AEAA_NXZ 000000014004c808 f i libucrt:output.obj
 0001:0004b810       ?type_case_u@?$output_processor@_WV?$stream_output_adapter@_W@__crt_stdio_output@@V?$format_validation_base@_WV?$stream_output_adapter@_W@__crt_stdio_output@@@2@@__crt_stdio_output@@AEAA_NXZ 000000014004c810 f i libucrt:output.obj
 0001:0004b818       ?type_case_u@?$output_processor@_WV?$stream_output_adapter@_W@__crt_stdio_output@@V?$positional_parameter_base@_WV?$stream_output_adapter@_W@__crt_stdio_output@@@2@@__crt_stdio_output@@AEAA_NXZ 000000014004c818 f i libucrt:output.obj
 0001:0004b820       ?type_case_u@?$output_processor@_WV?$stream_output_adapter@_W@__crt_stdio_output@@V?$standard_base@_WV?$stream_output_adapter@_W@__crt_stdio_output@@@2@@__crt_stdio_output@@AEAA_NXZ 000000014004c820 f i libucrt:output.obj
 0001:0004b828       ?type_case_u@?$output_processor@_WV?$string_output_adapter@_W@__crt_stdio_output@@V?$format_validation_base@_WV?$string_output_adapter@_W@__crt_stdio_output@@@2@@__crt_stdio_output@@AEAA_NXZ 000000014004c828 f i libucrt:output.obj
 0001:0004b830       ?type_case_u@?$output_processor@_WV?$string_output_adapter@_W@__crt_stdio_output@@V?$positional_parameter_base@_WV?$string_output_adapter@_W@__crt_stdio_output@@@2@@__crt_stdio_output@@AEAA_NXZ 000000014004c830 f i libucrt:output.obj
 0001:0004b838       ?type_case_u@?$output_processor@_WV?$string_output_adapter@_W@__crt_stdio_output@@V?$standard_base@_WV?$string_output_adapter@_W@__crt_stdio_output@@@2@@__crt_stdio_output@@AEAA_NXZ 000000014004c838 f i libucrt:output.obj
 0001:0004b840       ?type_case_x@?$output_processor@DV?$stream_output_adapter@D@__crt_stdio_output@@V?$format_validation_base@DV?$stream_output_adapter@D@__crt_stdio_output@@@2@@__crt_stdio_output@@AEAA_NXZ 000000014004c840 f i libucrt:output.obj
 0001:0004b848       ?type_case_x@?$output_processor@DV?$stream_output_adapter@D@__crt_stdio_output@@V?$positional_parameter_base@DV?$stream_output_adapter@D@__crt_stdio_output@@@2@@__crt_stdio_output@@AEAA_NXZ 000000014004c848 f i libucrt:output.obj
 0001:0004b850       ?type_case_x@?$output_processor@DV?$stream_output_adapter@D@__crt_stdio_output@@V?$standard_base@DV?$stream_output_adapter@D@__crt_stdio_output@@@2@@__crt_stdio_output@@AEAA_NXZ 000000014004c850 f i libucrt:output.obj
 0001:0004b858       ?type_case_x@?$output_processor@DV?$string_output_adapter@D@__crt_stdio_output@@V?$format_validation_base@DV?$string_output_adapter@D@__crt_stdio_output@@@2@@__crt_stdio_output@@AEAA_NXZ 000000014004c858 f i libucrt:output.obj
 0001:0004b860       ?type_case_x@?$output_processor@DV?$string_output_adapter@D@__crt_stdio_output@@V?$positional_parameter_base@DV?$string_output_adapter@D@__crt_stdio_output@@@2@@__crt_stdio_output@@AEAA_NXZ 000000014004c860 f i libucrt:output.obj
 0001:0004b868       ?type_case_x@?$output_processor@DV?$string_output_adapter@D@__crt_stdio_output@@V?$standard_base@DV?$string_output_adapter@D@__crt_stdio_output@@@2@@__crt_stdio_output@@AEAA_NXZ 000000014004c868 f i libucrt:output.obj
 0001:0004b870       ?type_case_x@?$output_processor@_WV?$stream_output_adapter@_W@__crt_stdio_output@@V?$format_validation_base@_WV?$stream_output_adapter@_W@__crt_stdio_output@@@2@@__crt_stdio_output@@AEAA_NXZ 000000014004c870 f i libucrt:output.obj
 0001:0004b878       ?type_case_x@?$output_processor@_WV?$stream_output_adapter@_W@__crt_stdio_output@@V?$positional_parameter_base@_WV?$stream_output_adapter@_W@__crt_stdio_output@@@2@@__crt_stdio_output@@AEAA_NXZ 000000014004c878 f i libucrt:output.obj
 0001:0004b880       ?type_case_x@?$output_processor@_WV?$stream_output_adapter@_W@__crt_stdio_output@@V?$standard_base@_WV?$stream_output_adapter@_W@__crt_stdio_output@@@2@@__crt_stdio_output@@AEAA_NXZ 000000014004c880 f i libucrt:output.obj
 0001:0004b888       ?type_case_x@?$output_processor@_WV?$string_output_adapter@_W@__crt_stdio_output@@V?$format_validation_base@_WV?$string_output_adapter@_W@__crt_stdio_output@@@2@@__crt_stdio_output@@AEAA_NXZ 000000014004c888 f i libucrt:output.obj
 0001:0004b890       ?type_case_x@?$output_processor@_WV?$string_output_adapter@_W@__crt_stdio_output@@V?$positional_parameter_base@_WV?$string_output_adapter@_W@__crt_stdio_output@@@2@@__crt_stdio_output@@AEAA_NXZ 000000014004c890 f i libucrt:output.obj
 0001:0004b898       ?type_case_x@?$output_processor@_WV?$string_output_adapter@_W@__crt_stdio_output@@V?$standard_base@_WV?$string_output_adapter@_W@__crt_stdio_output@@@2@@__crt_stdio_output@@AEAA_NXZ 000000014004c898 f i libucrt:output.obj
 0001:0004b8a0       ?unget@?$c_string_character_source@D@__crt_strtox@@QEAAXD@Z 000000014004c8a0 f i libucrt:output.obj
 0001:0004b8d4       ?unget@?$c_string_character_source@_W@__crt_strtox@@QEAAX_W@Z 000000014004c8d4 f i libucrt:output.obj
 0001:0004b90c       ?unset_flag@?$output_processor@DV?$stream_output_adapter@D@__crt_stdio_output@@V?$format_validation_base@DV?$stream_output_adapter@D@__crt_stdio_output@@@2@@__crt_stdio_output@@AEAAXI@Z 000000014004c90c f i libucrt:output.obj
 0001:0004b914       ?unset_flag@?$output_processor@DV?$stream_output_adapter@D@__crt_stdio_output@@V?$positional_parameter_base@DV?$stream_output_adapter@D@__crt_stdio_output@@@2@@__crt_stdio_output@@AEAAXI@Z 000000014004c914 f i libucrt:output.obj
 0001:0004b91c       ?unset_flag@?$output_processor@DV?$stream_output_adapter@D@__crt_stdio_output@@V?$standard_base@DV?$stream_output_adapter@D@__crt_stdio_output@@@2@@__crt_stdio_output@@AEAAXI@Z 000000014004c91c f i libucrt:output.obj
 0001:0004b924       ?unset_flag@?$output_processor@DV?$string_output_adapter@D@__crt_stdio_output@@V?$format_validation_base@DV?$string_output_adapter@D@__crt_stdio_output@@@2@@__crt_stdio_output@@AEAAXI@Z 000000014004c924 f i libucrt:output.obj
 0001:0004b92c       ?unset_flag@?$output_processor@DV?$string_output_adapter@D@__crt_stdio_output@@V?$positional_parameter_base@DV?$string_output_adapter@D@__crt_stdio_output@@@2@@__crt_stdio_output@@AEAAXI@Z 000000014004c92c f i libucrt:output.obj
 0001:0004b934       ?unset_flag@?$output_processor@DV?$string_output_adapter@D@__crt_stdio_output@@V?$standard_base@DV?$string_output_adapter@D@__crt_stdio_output@@@2@@__crt_stdio_output@@AEAAXI@Z 000000014004c934 f i libucrt:output.obj
 0001:0004b93c       ?unset_flag@?$output_processor@_WV?$stream_output_adapter@_W@__crt_stdio_output@@V?$format_validation_base@_WV?$stream_output_adapter@_W@__crt_stdio_output@@@2@@__crt_stdio_output@@AEAAXI@Z 000000014004c93c f i libucrt:output.obj
 0001:0004b944       ?unset_flag@?$output_processor@_WV?$stream_output_adapter@_W@__crt_stdio_output@@V?$positional_parameter_base@_WV?$stream_output_adapter@_W@__crt_stdio_output@@@2@@__crt_stdio_output@@AEAAXI@Z 000000014004c944 f i libucrt:output.obj
 0001:0004b94c       ?unset_flag@?$output_processor@_WV?$stream_output_adapter@_W@__crt_stdio_output@@V?$standard_base@_WV?$stream_output_adapter@_W@__crt_stdio_output@@@2@@__crt_stdio_output@@AEAAXI@Z 000000014004c94c f i libucrt:output.obj
 0001:0004b954       ?unset_flag@?$output_processor@_WV?$string_output_adapter@_W@__crt_stdio_output@@V?$format_validation_base@_WV?$string_output_adapter@_W@__crt_stdio_output@@@2@@__crt_stdio_output@@AEAAXI@Z 000000014004c954 f i libucrt:output.obj
 0001:0004b95c       ?unset_flag@?$output_processor@_WV?$string_output_adapter@_W@__crt_stdio_output@@V?$positional_parameter_base@_WV?$string_output_adapter@_W@__crt_stdio_output@@@2@@__crt_stdio_output@@AEAAXI@Z 000000014004c95c f i libucrt:output.obj
 0001:0004b964       ?unset_flag@?$output_processor@_WV?$string_output_adapter@_W@__crt_stdio_output@@V?$standard_base@_WV?$string_output_adapter@_W@__crt_stdio_output@@@2@@__crt_stdio_output@@AEAAXI@Z 000000014004c964 f i libucrt:output.obj
 0001:0004b96c       ?update_field_width@?$positional_parameter_base@DV?$stream_output_adapter@D@__crt_stdio_output@@@__crt_stdio_output@@IEAA_NXZ 000000014004c96c f i libucrt:output.obj
 0001:0004bb34       ?update_field_width@?$positional_parameter_base@DV?$string_output_adapter@D@__crt_stdio_output@@@__crt_stdio_output@@IEAA_NXZ 000000014004cb34 f i libucrt:output.obj
 0001:0004bcfc       ?update_field_width@?$positional_parameter_base@_WV?$stream_output_adapter@_W@__crt_stdio_output@@@__crt_stdio_output@@IEAA_NXZ 000000014004ccfc f i libucrt:output.obj
 0001:0004bec8       ?update_field_width@?$positional_parameter_base@_WV?$string_output_adapter@_W@__crt_stdio_output@@@__crt_stdio_output@@IEAA_NXZ 000000014004cec8 f i libucrt:output.obj
 0001:0004c094       ?update_field_width@?$standard_base@DV?$stream_output_adapter@D@__crt_stdio_output@@@__crt_stdio_output@@IEAA_NXZ 000000014004d094 f i libucrt:output.obj
 0001:0004c0b0       ?update_field_width@?$standard_base@DV?$string_output_adapter@D@__crt_stdio_output@@@__crt_stdio_output@@IEAA_NXZ 000000014004d0b0 f i libucrt:output.obj
 0001:0004c0cc       ?update_field_width@?$standard_base@_WV?$stream_output_adapter@_W@__crt_stdio_output@@@__crt_stdio_output@@IEAA_NXZ 000000014004d0cc f i libucrt:output.obj
 0001:0004c0e8       ?update_field_width@?$standard_base@_WV?$string_output_adapter@_W@__crt_stdio_output@@@__crt_stdio_output@@IEAA_NXZ 000000014004d0e8 f i libucrt:output.obj
 0001:0004c110       ?update_locale@__crt_cached_ptd_host@@AEAAXXZ 000000014004d110 f i libucrt:output.obj
 0001:0004c120       ?update_locale_slow@__crt_cached_ptd_host@@AEAAXXZ 000000014004d120 f i libucrt:output.obj
 0001:0004c1b4       ?update_precision@?$positional_parameter_base@DV?$stream_output_adapter@D@__crt_stdio_output@@@__crt_stdio_output@@IEAA_NXZ 000000014004d1b4 f i libucrt:output.obj
 0001:0004c37c       ?update_precision@?$positional_parameter_base@DV?$string_output_adapter@D@__crt_stdio_output@@@__crt_stdio_output@@IEAA_NXZ 000000014004d37c f i libucrt:output.obj
 0001:0004c544       ?update_precision@?$positional_parameter_base@_WV?$stream_output_adapter@_W@__crt_stdio_output@@@__crt_stdio_output@@IEAA_NXZ 000000014004d544 f i libucrt:output.obj
 0001:0004c710       ?update_precision@?$positional_parameter_base@_WV?$string_output_adapter@_W@__crt_stdio_output@@@__crt_stdio_output@@IEAA_NXZ 000000014004d710 f i libucrt:output.obj
 0001:0004c8dc       ?update_precision@?$standard_base@DV?$stream_output_adapter@D@__crt_stdio_output@@@__crt_stdio_output@@IEAA_NXZ 000000014004d8dc f i libucrt:output.obj
 0001:0004c8f8       ?update_precision@?$standard_base@DV?$string_output_adapter@D@__crt_stdio_output@@@__crt_stdio_output@@IEAA_NXZ 000000014004d8f8 f i libucrt:output.obj
 0001:0004c914       ?update_precision@?$standard_base@_WV?$stream_output_adapter@_W@__crt_stdio_output@@@__crt_stdio_output@@IEAA_NXZ 000000014004d914 f i libucrt:output.obj
 0001:0004c930       ?update_precision@?$standard_base@_WV?$string_output_adapter@_W@__crt_stdio_output@@@__crt_stdio_output@@IEAA_NXZ 000000014004d930 f i libucrt:output.obj
 0001:0004c94c       ?valid@__crt_stdio_stream@@QEBA_NXZ 000000014004d94c f i libucrt:output.obj
 0001:0004c958       ?validate@?$c_string_character_source@D@__crt_strtox@@QEBA_NXZ 000000014004d958 f i libucrt:output.obj
 0001:0004c988       ?validate@?$c_string_character_source@_W@__crt_strtox@@QEBA_NXZ 000000014004d988 f i libucrt:output.obj
 0001:0004c9b8       ?validate@?$stream_output_adapter@D@__crt_stdio_output@@QEBA_NAEAV__crt_cached_ptd_host@@@Z 000000014004d9b8 f i libucrt:output.obj
 0001:0004ca08       ?validate@?$stream_output_adapter@_W@__crt_stdio_output@@QEBA_NAEAV__crt_cached_ptd_host@@@Z 000000014004da08 f i libucrt:output.obj
 0001:0004ca50       ?validate@?$string_output_adapter@D@__crt_stdio_output@@QEBA_NAEAV__crt_cached_ptd_host@@@Z 000000014004da50 f i libucrt:output.obj
 0001:0004ca98       ?validate@?$string_output_adapter@_W@__crt_stdio_output@@QEBA_NAEAV__crt_cached_ptd_host@@@Z 000000014004da98 f i libucrt:output.obj
 0001:0004cae0       ?validate_and_store_parameter_data@?$positional_parameter_base@DV?$stream_output_adapter@D@__crt_stdio_output@@@__crt_stdio_output@@AEAA_NAEAUparameter_data@12@W4parameter_type@12@DW4length_modifier@2@@Z 000000014004dae0 f i libucrt:output.obj
 0001:0004cb5c       ?validate_and_store_parameter_data@?$positional_parameter_base@DV?$string_output_adapter@D@__crt_stdio_output@@@__crt_stdio_output@@AEAA_NAEAUparameter_data@12@W4parameter_type@12@DW4length_modifier@2@@Z 000000014004db5c f i libucrt:output.obj
 0001:0004cbd8       ?validate_and_store_parameter_data@?$positional_parameter_base@_WV?$stream_output_adapter@_W@__crt_stdio_output@@@__crt_stdio_output@@AEAA_NAEAUparameter_data@12@W4parameter_type@12@_WW4length_modifier@2@@Z 000000014004dbd8 f i libucrt:output.obj
 0001:0004cc54       ?validate_and_store_parameter_data@?$positional_parameter_base@_WV?$string_output_adapter@_W@__crt_stdio_output@@@__crt_stdio_output@@AEAA_NAEAUparameter_data@12@W4parameter_type@12@_WW4length_modifier@2@@Z 000000014004dc54 f i libucrt:output.obj
 0001:0004ccd0       ?validate_and_update_state_at_beginning_of_format_character@?$positional_parameter_base@DV?$stream_output_adapter@D@__crt_stdio_output@@@__crt_stdio_output@@IEAA_NXZ 000000014004dcd0 f i libucrt:output.obj
 0001:0004ce64       ?validate_and_update_state_at_beginning_of_format_character@?$positional_parameter_base@DV?$string_output_adapter@D@__crt_stdio_output@@@__crt_stdio_output@@IEAA_NXZ 000000014004de64 f i libucrt:output.obj
 0001:0004cff8       ?validate_and_update_state_at_beginning_of_format_character@?$positional_parameter_base@_WV?$stream_output_adapter@_W@__crt_stdio_output@@@__crt_stdio_output@@IEAA_NXZ 000000014004dff8 f i libucrt:output.obj
 0001:0004d19c       ?validate_and_update_state_at_beginning_of_format_character@?$positional_parameter_base@_WV?$string_output_adapter@_W@__crt_stdio_output@@@__crt_stdio_output@@IEAA_NXZ 000000014004e19c f i libucrt:output.obj
 0001:0004d340       ?validate_and_update_state_at_beginning_of_format_character@?$standard_base@DV?$stream_output_adapter@D@__crt_stdio_output@@@__crt_stdio_output@@IEAA_NXZ 000000014004e340 f i libucrt:output.obj
 0001:0004d344       ?validate_and_update_state_at_beginning_of_format_character@?$standard_base@DV?$string_output_adapter@D@__crt_stdio_output@@@__crt_stdio_output@@IEAA_NXZ 000000014004e344 f i libucrt:output.obj
 0001:0004d348       ?validate_and_update_state_at_beginning_of_format_character@?$standard_base@_WV?$stream_output_adapter@_W@__crt_stdio_output@@@__crt_stdio_output@@IEAA_NXZ 000000014004e348 f i libucrt:output.obj
 0001:0004d34c       ?validate_and_update_state_at_beginning_of_format_character@?$standard_base@_WV?$string_output_adapter@_W@__crt_stdio_output@@@__crt_stdio_output@@IEAA_NXZ 000000014004e34c f i libucrt:output.obj
 0001:0004d350       ?validate_and_update_state_at_end_of_format_string@?$format_validation_base@DV?$stream_output_adapter@D@__crt_stdio_output@@@__crt_stdio_output@@IEAA_NXZ 000000014004e350 f i libucrt:output.obj
 0001:0004d3a8       ?validate_and_update_state_at_end_of_format_string@?$format_validation_base@DV?$string_output_adapter@D@__crt_stdio_output@@@__crt_stdio_output@@IEAA_NXZ 000000014004e3a8 f i libucrt:output.obj
 0001:0004d400       ?validate_and_update_state_at_end_of_format_string@?$format_validation_base@_WV?$stream_output_adapter@_W@__crt_stdio_output@@@__crt_stdio_output@@IEAA_NXZ 000000014004e400 f i libucrt:output.obj
 0001:0004d458       ?validate_and_update_state_at_end_of_format_string@?$format_validation_base@_WV?$string_output_adapter@_W@__crt_stdio_output@@@__crt_stdio_output@@IEAA_NXZ 000000014004e458 f i libucrt:output.obj
 0001:0004d4b0       ?validate_and_update_state_at_end_of_format_string@?$positional_parameter_base@DV?$stream_output_adapter@D@__crt_stdio_output@@@__crt_stdio_output@@IEAA_NXZ 000000014004e4b0 f i libucrt:output.obj
 0001:0004d594       ?validate_and_update_state_at_end_of_format_string@?$positional_parameter_base@DV?$string_output_adapter@D@__crt_stdio_output@@@__crt_stdio_output@@IEAA_NXZ 000000014004e594 f i libucrt:output.obj
 0001:0004d678       ?validate_and_update_state_at_end_of_format_string@?$positional_parameter_base@_WV?$stream_output_adapter@_W@__crt_stdio_output@@@__crt_stdio_output@@IEAA_NXZ 000000014004e678 f i libucrt:output.obj
 0001:0004d75c       ?validate_and_update_state_at_end_of_format_string@?$positional_parameter_base@_WV?$string_output_adapter@_W@__crt_stdio_output@@@__crt_stdio_output@@IEAA_NXZ 000000014004e75c f i libucrt:output.obj
 0001:0004d840       ?validate_and_update_state_at_end_of_format_string@?$standard_base@DV?$stream_output_adapter@D@__crt_stdio_output@@@__crt_stdio_output@@IEBA_NXZ 000000014004e840 f i libucrt:output.obj
 0001:0004d844       ?validate_and_update_state_at_end_of_format_string@?$standard_base@DV?$string_output_adapter@D@__crt_stdio_output@@@__crt_stdio_output@@IEBA_NXZ 000000014004e844 f i libucrt:output.obj
 0001:0004d848       ?validate_and_update_state_at_end_of_format_string@?$standard_base@_WV?$stream_output_adapter@_W@__crt_stdio_output@@@__crt_stdio_output@@IEBA_NXZ 000000014004e848 f i libucrt:output.obj
 0001:0004d84c       ?validate_and_update_state_at_end_of_format_string@?$standard_base@_WV?$string_output_adapter@_W@__crt_stdio_output@@@__crt_stdio_output@@IEBA_NXZ 000000014004e84c f i libucrt:output.obj
 0001:0004d850       ?validate_state_for_type_case_a@?$positional_parameter_base@DV?$stream_output_adapter@D@__crt_stdio_output@@@__crt_stdio_output@@IEAA_NXZ 000000014004e850 f i libucrt:output.obj
 0001:0004d96c       ?validate_state_for_type_case_a@?$positional_parameter_base@DV?$string_output_adapter@D@__crt_stdio_output@@@__crt_stdio_output@@IEAA_NXZ 000000014004e96c f i libucrt:output.obj
 0001:0004da88       ?validate_state_for_type_case_a@?$positional_parameter_base@_WV?$stream_output_adapter@_W@__crt_stdio_output@@@__crt_stdio_output@@IEAA_NXZ 000000014004ea88 f i libucrt:output.obj
 0001:0004dba8       ?validate_state_for_type_case_a@?$positional_parameter_base@_WV?$string_output_adapter@_W@__crt_stdio_output@@@__crt_stdio_output@@IEAA_NXZ 000000014004eba8 f i libucrt:output.obj
 0001:0004dcc8       ?validate_state_for_type_case_a@?$standard_base@DV?$stream_output_adapter@D@__crt_stdio_output@@@__crt_stdio_output@@IEBA_NXZ 000000014004ecc8 f i libucrt:output.obj
 0001:0004dccc       ?validate_state_for_type_case_a@?$standard_base@DV?$string_output_adapter@D@__crt_stdio_output@@@__crt_stdio_output@@IEBA_NXZ 000000014004eccc f i libucrt:output.obj
 0001:0004dcd0       ?validate_state_for_type_case_a@?$standard_base@_WV?$stream_output_adapter@_W@__crt_stdio_output@@@__crt_stdio_output@@IEBA_NXZ 000000014004ecd0 f i libucrt:output.obj
 0001:0004dcd4       ?validate_state_for_type_case_a@?$standard_base@_WV?$string_output_adapter@_W@__crt_stdio_output@@@__crt_stdio_output@@IEBA_NXZ 000000014004ecd4 f i libucrt:output.obj
 0001:0004dcd8       ?validate_stream_is_ansi_if_required@?$__acrt_stdio_char_traits@D@@SA_NQEAU_iobuf@@@Z 000000014004ecd8 f i libucrt:output.obj
 0001:0004dd9c       ?validate_stream_is_ansi_if_required@?$__acrt_stdio_char_traits@_W@@SA_NQEAU_iobuf@@@Z 000000014004ed9c f i libucrt:output.obj
 0001:0004dda0       ?wide_character_to_digit@__crt_strtox@@YAH_W@Z 000000014004eda0 f i libucrt:output.obj
 0001:0004dfa8       ?wide_null_string@?$output_processor@DV?$stream_output_adapter@D@__crt_stdio_output@@V?$format_validation_base@DV?$stream_output_adapter@D@__crt_stdio_output@@@2@@__crt_stdio_output@@CAPEA_WXZ 000000014004efa8 f i libucrt:output.obj
 0001:0004dfb4       ?wide_null_string@?$output_processor@DV?$stream_output_adapter@D@__crt_stdio_output@@V?$positional_parameter_base@DV?$stream_output_adapter@D@__crt_stdio_output@@@2@@__crt_stdio_output@@CAPEA_WXZ 000000014004efb4 f i libucrt:output.obj
 0001:0004dfc0       ?wide_null_string@?$output_processor@DV?$stream_output_adapter@D@__crt_stdio_output@@V?$standard_base@DV?$stream_output_adapter@D@__crt_stdio_output@@@2@@__crt_stdio_output@@CAPEA_WXZ 000000014004efc0 f i libucrt:output.obj
 0001:0004dfcc       ?wide_null_string@?$output_processor@DV?$string_output_adapter@D@__crt_stdio_output@@V?$format_validation_base@DV?$string_output_adapter@D@__crt_stdio_output@@@2@@__crt_stdio_output@@CAPEA_WXZ 000000014004efcc f i libucrt:output.obj
 0001:0004dfd8       ?wide_null_string@?$output_processor@DV?$string_output_adapter@D@__crt_stdio_output@@V?$positional_parameter_base@DV?$string_output_adapter@D@__crt_stdio_output@@@2@@__crt_stdio_output@@CAPEA_WXZ 000000014004efd8 f i libucrt:output.obj
 0001:0004dfe4       ?wide_null_string@?$output_processor@DV?$string_output_adapter@D@__crt_stdio_output@@V?$standard_base@DV?$string_output_adapter@D@__crt_stdio_output@@@2@@__crt_stdio_output@@CAPEA_WXZ 000000014004efe4 f i libucrt:output.obj
 0001:0004dff0       ?wide_null_string@?$output_processor@_WV?$stream_output_adapter@_W@__crt_stdio_output@@V?$format_validation_base@_WV?$stream_output_adapter@_W@__crt_stdio_output@@@2@@__crt_stdio_output@@CAPEA_WXZ 000000014004eff0 f i libucrt:output.obj
 0001:0004dffc       ?wide_null_string@?$output_processor@_WV?$stream_output_adapter@_W@__crt_stdio_output@@V?$positional_parameter_base@_WV?$stream_output_adapter@_W@__crt_stdio_output@@@2@@__crt_stdio_output@@CAPEA_WXZ 000000014004effc f i libucrt:output.obj
 0001:0004e008       ?wide_null_string@?$output_processor@_WV?$stream_output_adapter@_W@__crt_stdio_output@@V?$standard_base@_WV?$stream_output_adapter@_W@__crt_stdio_output@@@2@@__crt_stdio_output@@CAPEA_WXZ 000000014004f008 f i libucrt:output.obj
 0001:0004e014       ?wide_null_string@?$output_processor@_WV?$string_output_adapter@_W@__crt_stdio_output@@V?$format_validation_base@_WV?$string_output_adapter@_W@__crt_stdio_output@@@2@@__crt_stdio_output@@CAPEA_WXZ 000000014004f014 f i libucrt:output.obj
 0001:0004e020       ?wide_null_string@?$output_processor@_WV?$string_output_adapter@_W@__crt_stdio_output@@V?$positional_parameter_base@_WV?$string_output_adapter@_W@__crt_stdio_output@@@2@@__crt_stdio_output@@CAPEA_WXZ 000000014004f020 f i libucrt:output.obj
 0001:0004e02c       ?wide_null_string@?$output_processor@_WV?$string_output_adapter@_W@__crt_stdio_output@@V?$standard_base@_WV?$string_output_adapter@_W@__crt_stdio_output@@@2@@__crt_stdio_output@@CAPEA_WXZ 000000014004f02c f i libucrt:output.obj
 0001:0004e038       ?write_character@?$output_adapter_common@DV?$stream_output_adapter@D@__crt_stdio_output@@@__crt_stdio_output@@QEBAXDQEAHAEAV__crt_cached_ptd_host@@@Z 000000014004f038 f i libucrt:output.obj
 0001:0004e098       ?write_character@?$output_adapter_common@_WV?$stream_output_adapter@_W@__crt_stdio_output@@@__crt_stdio_output@@QEBAX_WQEAHAEAV__crt_cached_ptd_host@@@Z 000000014004f098 f i libucrt:output.obj
 0001:0004e0fc       ?write_character@?$string_output_adapter@D@__crt_stdio_output@@QEBA_NDQEAHAEAV__crt_cached_ptd_host@@@Z 000000014004f0fc f i libucrt:output.obj
 0001:0004e154       ?write_character@?$string_output_adapter@_W@__crt_stdio_output@@QEBA_N_WQEAHAEAV__crt_cached_ptd_host@@@Z 000000014004f154 f i libucrt:output.obj
 0001:0004e1b0       ?write_character_without_count_update@?$stream_output_adapter@D@__crt_stdio_output@@QEBA_NDAEAV__crt_cached_ptd_host@@@Z 000000014004f1b0 f i libucrt:output.obj
 0001:0004e200       ?write_character_without_count_update@?$stream_output_adapter@_W@__crt_stdio_output@@QEBA_N_WAEAV__crt_cached_ptd_host@@@Z 000000014004f200 f i libucrt:output.obj
 0001:0004e254       ?write_stored_string_tchar@?$output_processor@DV?$stream_output_adapter@D@__crt_stdio_output@@V?$format_validation_base@DV?$stream_output_adapter@D@__crt_stdio_output@@@2@@__crt_stdio_output@@AEAA_ND@Z 000000014004f254 f i libucrt:output.obj
 0001:0004e4bc       ?write_stored_string_tchar@?$output_processor@DV?$stream_output_adapter@D@__crt_stdio_output@@V?$positional_parameter_base@DV?$stream_output_adapter@D@__crt_stdio_output@@@2@@__crt_stdio_output@@AEAA_ND@Z 000000014004f4bc f i libucrt:output.obj
 0001:0004e724       ?write_stored_string_tchar@?$output_processor@DV?$stream_output_adapter@D@__crt_stdio_output@@V?$standard_base@DV?$stream_output_adapter@D@__crt_stdio_output@@@2@@__crt_stdio_output@@AEAA_ND@Z 000000014004f724 f i libucrt:output.obj
 0001:0004e98c       ?write_stored_string_tchar@?$output_processor@DV?$string_output_adapter@D@__crt_stdio_output@@V?$format_validation_base@DV?$string_output_adapter@D@__crt_stdio_output@@@2@@__crt_stdio_output@@AEAA_ND@Z 000000014004f98c f i libucrt:output.obj
 0001:0004eb94       ?write_stored_string_tchar@?$output_processor@DV?$string_output_adapter@D@__crt_stdio_output@@V?$positional_parameter_base@DV?$string_output_adapter@D@__crt_stdio_output@@@2@@__crt_stdio_output@@AEAA_ND@Z 000000014004fb94 f i libucrt:output.obj
 0001:0004ed9c       ?write_stored_string_tchar@?$output_processor@DV?$string_output_adapter@D@__crt_stdio_output@@V?$standard_base@DV?$string_output_adapter@D@__crt_stdio_output@@@2@@__crt_stdio_output@@AEAA_ND@Z 000000014004fd9c f i libucrt:output.obj
 0001:0004efa4       ?write_stored_string_tchar@?$output_processor@_WV?$stream_output_adapter@_W@__crt_stdio_output@@V?$format_validation_base@_WV?$stream_output_adapter@_W@__crt_stdio_output@@@2@@__crt_stdio_output@@AEAA_N_W@Z 000000014004ffa4 f i libucrt:output.obj
 0001:0004f2d4       ?write_stored_string_tchar@?$output_processor@_WV?$stream_output_adapter@_W@__crt_stdio_output@@V?$positional_parameter_base@_WV?$stream_output_adapter@_W@__crt_stdio_output@@@2@@__crt_stdio_output@@AEAA_N_W@Z 00000001400502d4 f i libucrt:output.obj
 0001:0004f604       ?write_stored_string_tchar@?$output_processor@_WV?$stream_output_adapter@_W@__crt_stdio_output@@V?$standard_base@_WV?$stream_output_adapter@_W@__crt_stdio_output@@@2@@__crt_stdio_output@@AEAA_N_W@Z 0000000140050604 f i libucrt:output.obj
 0001:0004f934       ?write_stored_string_tchar@?$output_processor@_WV?$string_output_adapter@_W@__crt_stdio_output@@V?$format_validation_base@_WV?$string_output_adapter@_W@__crt_stdio_output@@@2@@__crt_stdio_output@@AEAA_N_W@Z 0000000140050934 f i libucrt:output.obj
 0001:0004fbf4       ?write_stored_string_tchar@?$output_processor@_WV?$string_output_adapter@_W@__crt_stdio_output@@V?$positional_parameter_base@_WV?$string_output_adapter@_W@__crt_stdio_output@@@2@@__crt_stdio_output@@AEAA_N_W@Z 0000000140050bf4 f i libucrt:output.obj
 0001:0004feb4       ?write_stored_string_tchar@?$output_processor@_WV?$string_output_adapter@_W@__crt_stdio_output@@V?$standard_base@_WV?$string_output_adapter@_W@__crt_stdio_output@@@2@@__crt_stdio_output@@AEAA_N_W@Z 0000000140050eb4 f i libucrt:output.obj
 0001:00050174       ?write_string@?$stream_output_adapter@D@__crt_stdio_output@@QEBAXQEBDHQEAHAEAV__crt_cached_ptd_host@@@Z 0000000140051174 f i libucrt:output.obj
 0001:000501a4       ?write_string@?$stream_output_adapter@_W@__crt_stdio_output@@QEBAXQEB_WHQEAHAEAV__crt_cached_ptd_host@@@Z 00000001400511a4 f i libucrt:output.obj
 0001:000501d4       ?write_string@?$string_output_adapter@D@__crt_stdio_output@@QEBAXQEBDHQEAHAEAV__crt_cached_ptd_host@@@Z 00000001400511d4 f i libucrt:output.obj
 0001:000502a0       ?write_string@?$string_output_adapter@_W@__crt_stdio_output@@QEBAXQEB_WHQEAHAEAV__crt_cached_ptd_host@@@Z 00000001400512a0 f i libucrt:output.obj
 0001:00050370       ?write_string_impl@?$output_adapter_common@DV?$stream_output_adapter@D@__crt_stdio_output@@@__crt_stdio_output@@IEBAXQEBDHQEAHAEAV__crt_cached_ptd_host@@@Z 0000000140051370 f i libucrt:output.obj
 0001:00050474       ?write_string_impl@?$output_adapter_common@_WV?$stream_output_adapter@_W@__crt_stdio_output@@@__crt_stdio_output@@IEBAXQEB_WHQEAHAEAV__crt_cached_ptd_host@@@Z 0000000140051474 f i libucrt:output.obj
 0001:00050590       __acrt_isleadbyte_l_noupdate 0000000140051590 f i libucrt:output.obj
 0001:000505bc       __ascii_iswalpha           00000001400515bc f i libucrt:output.obj
 0001:000505dc       __ascii_toupper            00000001400515dc f i libucrt:output.obj
 0001:000505f0       __ascii_towupper           00000001400515f0 f i libucrt:output.obj
 0001:00050600       __stdio_common_vfprintf    0000000140051600 f   libucrt:output.obj
 0001:00050770       __stdio_common_vfprintf_p  0000000140051770 f   libucrt:output.obj
 0001:000508e0       __stdio_common_vfprintf_s  00000001400518e0 f   libucrt:output.obj
 0001:00050a50       __stdio_common_vfwprintf   0000000140051a50 f   libucrt:output.obj
 0001:00050bc0       __stdio_common_vfwprintf_p 0000000140051bc0 f   libucrt:output.obj
 0001:00050d30       __stdio_common_vfwprintf_s 0000000140051d30 f   libucrt:output.obj
 0001:00050ea0       __stdio_common_vsnprintf_s 0000000140051ea0 f   libucrt:output.obj
 0001:000510d4       __stdio_common_vsnwprintf_s 00000001400520d4 f   libucrt:output.obj
 0001:00051308       __stdio_common_vsprintf    0000000140052308 f   libucrt:output.obj
 0001:000515f0       __stdio_common_vsprintf_p  00000001400525f0 f   libucrt:output.obj
 0001:000516d4       __stdio_common_vsprintf_s  00000001400526d4 f   libucrt:output.obj
 0001:0005182c       __stdio_common_vswprintf   000000014005282c f   libucrt:output.obj
 0001:00051b1c       __stdio_common_vswprintf_p 0000000140052b1c f   libucrt:output.obj
 0001:00051c00       __stdio_common_vswprintf_s 0000000140052c00 f   libucrt:output.obj
 0001:00051d58       _ctype_fast_check_internal 0000000140052d58 f i libucrt:output.obj
 0001:00051d70       _isdigit_fast_internal     0000000140052d70 f i libucrt:output.obj
 0001:00051d8c       _tolower_fast_internal     0000000140052d8c f i libucrt:output.obj
 0001:00051da4       ??$is_overflow_condition@_K@__crt_strtox@@YA_NI_K@Z 0000000140052da4 f i libucrt:atox.obj
 0001:00051de8       ??$make_c_string_character_source@D$$T@__crt_strtox@@YA?AV?$c_string_character_source@D@0@QEBD$$T@Z 0000000140052de8 f i libucrt:atox.obj
 0001:00051e00       ??$make_c_string_character_source@_W$$T@__crt_strtox@@YA?AV?$c_string_character_source@_W@0@QEB_W$$T@Z 0000000140052e00 f i libucrt:atox.obj
 0001:00051e18       ??$parse_integer@KV?$c_string_character_source@D@__crt_strtox@@$00@__crt_strtox@@YAKAEAV__crt_cached_ptd_host@@V?$c_string_character_source@D@0@H_N@Z 0000000140052e18 f i libucrt:atox.obj
 0001:000521a8       ??$parse_integer@KV?$c_string_character_source@_W@__crt_strtox@@$00@__crt_strtox@@YAKAEAV__crt_cached_ptd_host@@V?$c_string_character_source@_W@0@H_N@Z 00000001400531a8 f i libucrt:atox.obj
 0001:00052b28       ??$parse_integer@_KV?$c_string_character_source@D@__crt_strtox@@$00@__crt_strtox@@YA_KAEAV__crt_cached_ptd_host@@V?$c_string_character_source@D@0@H_N@Z 0000000140053b28 f i libucrt:atox.obj
 0001:00052ebc       ??$parse_integer@_KV?$c_string_character_source@_W@__crt_strtox@@$00@__crt_strtox@@YA_KAEAV__crt_cached_ptd_host@@V?$c_string_character_source@_W@0@H_N@Z 0000000140053ebc f i libucrt:atox.obj
 0001:00053820       ??$parse_integer_from_string@JD$$T@__crt_strtox@@YAJQEBD$$THQEAU__crt_locale_pointers@@@Z 0000000140054820 f i libucrt:atox.obj
 0001:0005390c       ??$parse_integer_from_string@J_W$$T@__crt_strtox@@YAJQEB_W$$THQEAU__crt_locale_pointers@@@Z 000000014005490c f i libucrt:atox.obj
 0001:000539f8       ??$parse_integer_from_string@_JD$$T@__crt_strtox@@YA_JQEBD$$THQEAU__crt_locale_pointers@@@Z 00000001400549f8 f i libucrt:atox.obj
 0001:00053ae8       ??$parse_integer_from_string@_J_W$$T@__crt_strtox@@YA_JQEB_W$$THQEAU__crt_locale_pointers@@@Z 0000000140054ae8 f i libucrt:atox.obj
 0001:00053bd8       ?is_space@__crt_strtox@@YA_NDQEAU__crt_locale_pointers@@@Z 0000000140054bd8 f i libucrt:atox.obj
 0001:00053c00       ?is_space@__crt_strtox@@YA_N_WPEAU__crt_locale_pointers@@@Z 0000000140054c00 f i libucrt:atox.obj
 0001:00053c20       ?maximum_signed_value@__crt_strtox@@YA_J_K@Z 0000000140054c20 f i libucrt:atox.obj
 0001:00053c30       ?minimum_signed_value@__crt_strtox@@YA_J_K@Z 0000000140054c30 f i libucrt:atox.obj
 0001:00053c40       __acrt_get_locale_data_prefix 0000000140054c40 f i libucrt:atox.obj
 0001:00053c44       _atoi64                    0000000140054c44 f   libucrt:atox.obj
 0001:00053d24       _atoi64_l                  0000000140054d24 f   libucrt:atox.obj
 0001:00053e10       _atoi_l                    0000000140054e10 f   libucrt:atox.obj
 0001:00053ef8       _atol_l                    0000000140054ef8 f   libucrt:atox.obj
 0001:00053fe0       _atoll_l                   0000000140054fe0 f   libucrt:atox.obj
 0001:000540cc       _chvalidchk_l              00000001400550cc f i libucrt:atox.obj
 0001:00054148       _ischartype_l              0000000140055148 f i libucrt:atox.obj
 0001:000541dc       _wtoi                      00000001400551dc f   libucrt:atox.obj
 0001:000542b8       _wtoi64                    00000001400552b8 f   libucrt:atox.obj
 0001:00054398       _wtoi64_l                  0000000140055398 f   libucrt:atox.obj
 0001:00054484       _wtoi_l                    0000000140055484 f   libucrt:atox.obj
 0001:0005456c       _wtol                      000000014005556c f   libucrt:atox.obj
 0001:00054648       _wtol_l                    0000000140055648 f   libucrt:atox.obj
 0001:00054730       _wtoll                     0000000140055730 f   libucrt:atox.obj
 0001:00054810       _wtoll_l                   0000000140055810 f   libucrt:atox.obj
 0001:000548fc       atoi                       00000001400558fc f   libucrt:atox.obj
 0001:000549d8       atol                       00000001400559d8 f   libucrt:atox.obj
 0001:00054ab4       atoll                      0000000140055ab4 f   libucrt:atox.obj
 0001:00054ba0       wcsncmp                    0000000140055ba0 f   libucrt:wcsncmp.obj
 0001:00054be4       ??0_LocaleUpdate@@QEAA@QEAU__crt_locale_pointers@@@Z 0000000140055be4 f i libucrt:isctype.obj
 0001:00054ca8       ??1_LocaleUpdate@@QEAA@XZ  0000000140055ca8 f i libucrt:isctype.obj
 0001:00054cc0       ?GetLocaleT@_LocaleUpdate@@QEAAPEAU__crt_locale_pointers@@XZ 0000000140055cc0 f i libucrt:isctype.obj
 0001:00054cc8       _isctype                   0000000140055cc8 f   libucrt:isctype.obj
 0001:00054d04       _isctype_l                 0000000140055d04 f   libucrt:isctype.obj
 0001:00054e50       _isleadbyte_fast_internal  0000000140055e50 f i libucrt:isctype.obj
 0001:00054e70       ??$?RU__acrt_ptd@@@__crt_internal_free_policy@@QEBAXQEBU__acrt_ptd@@@Z 0000000140055e70 f i libucrt:per_thread_data.obj
 0001:000550a8       ??$internal_get_ptd_head@P6APEAXK@Z@@YAPEAU__acrt_ptd@@P6APEAXK@Z@Z 00000001400560a8 f i libucrt:per_thread_data.obj
 0001:000550fc       ??$try_get_ptd_head@P6APEAXK@Z@@YAPEAU__acrt_ptd@@P6APEAXK@Z@Z 00000001400560fc f i libucrt:per_thread_data.obj
 0001:000551b8       ??0?$__crt_unique_heap_ptr@U__acrt_ptd@@U__crt_internal_free_policy@@@@QEAA@QEAU__acrt_ptd@@@Z 00000001400561b8 f i libucrt:per_thread_data.obj
 0001:000551c0       ??1?$__crt_unique_heap_ptr@U__acrt_ptd@@U__crt_internal_free_policy@@@@QEAA@XZ 00000001400561c0 f i libucrt:per_thread_data.obj
 0001:000551e4       ??B?$__crt_unique_heap_ptr@U__acrt_ptd@@U__crt_internal_free_policy@@@@QEBA_NXZ 00000001400561e4 f i libucrt:per_thread_data.obj
 0001:000554b4       ?dangerous_get_state_array@?$dual_state_global@PEAU__crt_locale_data@@@__crt_state_management@@QEAAPEAPEAU__crt_locale_data@@XZ 00000001400564b4 f i libucrt:per_thread_data.obj
 0001:00055748       ?detach@?$__crt_unique_heap_ptr@U__acrt_ptd@@U__crt_internal_free_policy@@@@QEAAPEAU__acrt_ptd@@XZ 0000000140056748 f i libucrt:per_thread_data.obj
 0001:00055754       ?get@?$__crt_unique_heap_ptr@U__acrt_ptd@@U__crt_internal_free_policy@@@@QEBAPEAU__acrt_ptd@@XZ 0000000140056754 f i libucrt:per_thread_data.obj
 0001:00055758       ?get_current_state_index2@__crt_state_management@@YA_KXZ 0000000140056758 f i libucrt:per_thread_data.obj
 0001:0005575c       ?internal_get_ptd_head_slow@@YAPEAU__acrt_ptd@@XZ 000000014005675c f   libucrt:per_thread_data.obj
 0001:00055970       ?is_valid@?$__crt_unique_heap_ptr@U__acrt_ptd@@U__crt_internal_free_policy@@@@QEBA_NXZ 0000000140056970 f i libucrt:per_thread_data.obj
 0001:0005597c       ?release@?$__crt_unique_heap_ptr@U__acrt_ptd@@U__crt_internal_free_policy@@@@QEAAXXZ 000000014005697c f i libucrt:per_thread_data.obj
 0001:00055a20       __acrt_freeptd             0000000140056a20 f   libucrt:per_thread_data.obj
 0001:00055a84       __acrt_getptd              0000000140056a84 f   libucrt:per_thread_data.obj
 0001:00055aa4       __acrt_getptd_head         0000000140056aa4 f   libucrt:per_thread_data.obj
 0001:00055af8       __acrt_getptd_noexit       0000000140056af8 f   libucrt:per_thread_data.obj
 0001:00055bac       __acrt_getptd_noexit_explicit 0000000140056bac f   libucrt:per_thread_data.obj
 0001:00055c20       __acrt_initialize_ptd      0000000140056c20 f   libucrt:per_thread_data.obj
 0001:00055c78       __acrt_uninitialize_ptd    0000000140056c78 f   libucrt:per_thread_data.obj
 0001:00055ca4       __threadhandle             0000000140056ca4 f   libucrt:per_thread_data.obj
 0001:00055cac       __threadid                 0000000140056cac f   libucrt:per_thread_data.obj
 0001:00055cb4       ?value@?$dual_state_global@PEAU__crt_multibyte_data@@@__crt_state_management@@QEAAAEAPEAU__crt_multibyte_data@@XZ 0000000140056cb4 f i libucrt:locale_update.obj
 0001:00055cb8       ?value_explicit@?$dual_state_global@PEAU__crt_locale_data@@@__crt_state_management@@QEAAAEAPEAU__crt_locale_data@@_K@Z 0000000140056cb8 f i libucrt:locale_update.obj
 0001:00055cc0       ?value_explicit@?$dual_state_global@PEAU__crt_multibyte_data@@@__crt_state_management@@QEAAAEAPEAU__crt_multibyte_data@@_K@Z 0000000140056cc0 f i libucrt:locale_update.obj
 0001:00055cc8       __acrt_should_sync_with_global_locale 0000000140056cc8 f i libucrt:locale_update.obj
 0001:00055cdc       __acrt_update_locale_info  0000000140056cdc f   libucrt:locale_update.obj
 0001:00055d1c       __acrt_update_locale_info_explicit 0000000140056d1c f   libucrt:locale_update.obj
 0001:00055d60       __acrt_update_multibyte_info 0000000140056d60 f   libucrt:locale_update.obj
 0001:00055da0       __acrt_update_multibyte_info_explicit 0000000140056da0 f   libucrt:locale_update.obj
 0001:00055de4       __p___mb_cur_max           0000000140056de4 f   libucrt:nlsdata.obj
 0001:00055e20       ??$__crt_fast_decode_pointer@P6AXPEB_W00I_K@Z@@YAP6AXPEB_W00I_K@ZQ6AX000I1@Z@Z 0000000140056e20 f i libucrt:invalid_parameter.obj
 0001:00055e3c       ??$__crt_fast_encode_pointer@P6AXPEB_W00I_K@Z@@YAP6AXPEB_W00I_K@ZQ6AX000I1@Z@Z 0000000140056e3c f i libucrt:invalid_parameter.obj
 0001:00055e64       ??$initialize_from_array@$$BY00Q6AXPEB_W00I_K@Z@?$dual_state_global@P6AXPEB_W00I_K@Z@__crt_state_management@@QEAAXAEAY00Q6AXPEB_W00I_K@Z@Z 0000000140056e64 f i libucrt:invalid_parameter.obj
 0001:00055f0c       ?check_synchronize_global_state_index@__crt_cached_ptd_host@@AEAA_KXZ 0000000140056f0c f i libucrt:invalid_parameter.obj
 0001:00055f50       ?dangerous_get_state_array@?$dual_state_global@P6AXPEB_W00I_K@Z@__crt_state_management@@QEAAPEAP6AXPEB_W00I_K@ZXZ 0000000140056f50 f i libucrt:invalid_parameter.obj
 0001:00055f54       ?get_current_global_state_index@__crt_cached_ptd_host@@QEAA_KXZ 0000000140056f54 f i libucrt:invalid_parameter.obj
 0001:00055fa4       ?get_raw_ptd_noexit@__crt_cached_ptd_host@@QEAAPEAU__acrt_ptd@@XZ 0000000140056fa4 f i libucrt:invalid_parameter.obj
 0001:00056028       ?try_synchronize_per_thread_data@__crt_cached_ptd_host@@AEAAPEAU__acrt_ptd@@XZ 0000000140057028 f i libucrt:invalid_parameter.obj
 0001:000560a4       ?value@?$dual_state_global@P6AXPEB_W00I_K@Z@__crt_state_management@@QEAAAEAP6AXPEB_W00I_K@ZAEAV__crt_cached_ptd_host@@@Z 00000001400570a4 f i libucrt:invalid_parameter.obj
 0001:00056104       ?value@?$dual_state_global@P6AXPEB_W00I_K@Z@__crt_state_management@@QEAAAEAP6AXPEB_W00I_K@ZXZ 0000000140057104 f i libucrt:invalid_parameter.obj
 0001:00056108       __acrt_call_reportfault    0000000140057108 f   libucrt:invalid_parameter.obj
 0001:000562d0       __acrt_initialize_invalid_parameter_handler 00000001400572d0 f   libucrt:invalid_parameter.obj
 0001:000562dc       _get_invalid_parameter_handler 00000001400572dc f   libucrt:invalid_parameter.obj
 0001:000562fc       _get_thread_local_invalid_parameter_handler 00000001400572fc f   libucrt:invalid_parameter.obj
 0001:0005631c       _invalid_parameter         000000014005731c f   libucrt:invalid_parameter.obj
 0001:000563e0       _invalid_parameter_internal 00000001400573e0 f   libucrt:invalid_parameter.obj
 0001:000564c4       _invalid_parameter_noinfo  00000001400574c4 f   libucrt:invalid_parameter.obj
 0001:000564ec       _invalid_parameter_noinfo_noreturn 00000001400574ec f   libucrt:invalid_parameter.obj
 0001:00056528       _invoke_watson             0000000140057528 f   libucrt:invalid_parameter.obj
 0001:00056580       _set_invalid_parameter_handler 0000000140057580 f   libucrt:invalid_parameter.obj
 0001:000565c4       _set_thread_local_invalid_parameter_handler 00000001400575c4 f   libucrt:invalid_parameter.obj
 0001:000565f4       ??$?RPEAU__crt_stdio_stream_data@@@__crt_internal_free_policy@@QEBAXQEBQEAU__crt_stdio_stream_data@@@Z 00000001400575f4 f i libucrt:_file.obj
 0001:00056600       ??0?$__crt_unique_heap_ptr@PEAU__crt_stdio_stream_data@@U__crt_internal_free_policy@@@@QEAA@QEAPEAU__crt_stdio_stream_data@@@Z 0000000140057600 f i libucrt:_file.obj
 0001:00056608       ??1?$__crt_unique_heap_ptr@PEAU__crt_stdio_stream_data@@U__crt_internal_free_policy@@@@QEAA@XZ 0000000140057608 f i libucrt:_file.obj
 0001:0005662c       ?detach@?$__crt_unique_heap_ptr@PEAU__crt_stdio_stream_data@@U__crt_internal_free_policy@@@@QEAAPEAPEAU__crt_stdio_stream_data@@XZ 000000014005762c f i libucrt:_file.obj
 0001:00056638       ?release@?$__crt_unique_heap_ptr@PEAU__crt_stdio_stream_data@@U__crt_internal_free_policy@@@@QEAAXXZ 0000000140057638 f i libucrt:_file.obj
 0001:0005665c       __acrt_initialize_stdio    000000014005765c f   libucrt:_file.obj
 0001:000567c4       __acrt_iob_func            00000001400577c4 f   libucrt:_file.obj
 0001:000567dc       __acrt_uninitialize_stdio  00000001400577dc f   libucrt:_file.obj
 0001:00056850       _get_stream_buffer_pointers 0000000140057850 f   libucrt:_file.obj
 0001:000568a8       _lock_file                 00000001400578a8 f   libucrt:_file.obj
 0001:000568b8       _unlock_file               00000001400578b8 f   libucrt:_file.obj
 0001:000568c8       ?lowio_handle@__crt_stdio_stream@@QEBAHXZ 00000001400578c8 f i libucrt:fileno.obj
 0001:000568d4       _fileno                    00000001400578d4 f   libucrt:fileno.obj
 0001:00056d74       ?has_any_buffer@__crt_stdio_stream@@QEBA_NXZ 0000000140057d74 f i libucrt:_flsbuf.obj
 0001:00056d8c       ?has_any_of@__crt_stdio_stream@@QEBA_NJ@Z 0000000140057d8c f i libucrt:_flsbuf.obj
 0001:00056d9c       ?has_big_buffer@__crt_stdio_stream@@QEBA_NXZ 0000000140057d9c f i libucrt:_flsbuf.obj
 0001:00056db0       ?set_flags@__crt_stdio_stream@@QEBA_NJ@Z 0000000140057db0 f i libucrt:_flsbuf.obj
 0001:00056e84       ?unset_flags@__crt_stdio_stream@@QEBA_NJ@Z 0000000140057e84 f i libucrt:_flsbuf.obj
 0001:00056eb4       __acrt_stdio_flush_and_write_narrow_nolock 0000000140057eb4 f   libucrt:_flsbuf.obj
 0001:00056fb4       __acrt_stdio_flush_and_write_wide_nolock 0000000140057fb4 f   libucrt:_flsbuf.obj
 0001:00057360       __acrt_initialize_lowio    0000000140058360 f   libucrt:ioinit.obj
 0001:000573ac       __acrt_uninitialize_lowio  00000001400583ac f   libucrt:ioinit.obj
 0001:00057400       _set_error_mode            0000000140058400 f   libucrt:set_error_mode.obj
 0001:00057520       wcscat_s                   0000000140058520 f   libucrt:wcscat_s.obj
 0001:00057690       wcscpy_s                   0000000140058690 f   libucrt:wcscpy_s.obj
 0001:000578d0       wcsncpy_s                  00000001400588d0 f   libucrt:wcsncpy_s.obj
 0001:00057c00       ??$message_box@$$TAEBQEBDAEBQEBDK@?$__crt_char_traits@D@@SAH$$QEA$$TAEBQEBD1$$QEAK@Z 0000000140058c00 f i libucrt:crtmbox.obj
 0001:00057c18       ??$message_box@$$TAEBQEB_WAEBQEB_WK@?$__crt_char_traits@_W@@SAH$$QEA$$TAEBQEB_W1$$QEAK@Z 0000000140058c18 f i libucrt:crtmbox.obj
 0001:00057c30       ??$message_box@PEAUHWND__@@AEBQEBDAEBQEBDAEBI@?$__crt_char_traits@D@@SAH$$QEAPEAUHWND__@@AEBQEBD1AEBI@Z 0000000140058c30 f i libucrt:crtmbox.obj
 0001:00057c48       ??$message_box@PEAUHWND__@@AEBQEB_WAEBQEB_WAEBI@?$__crt_char_traits@_W@@SAH$$QEAPEAUHWND__@@AEBQEB_W1AEBI@Z 0000000140058c48 f i libucrt:crtmbox.obj
 0001:00057c60       ??$output_debug_string@AEBQEBD@?$__crt_char_traits@D@@SAXAEBQEBD@Z 0000000140058c60 f i libucrt:crtmbox.obj
 0001:00057c6c       ??$output_debug_string@AEBQEB_W@?$__crt_char_traits@_W@@SAXAEBQEB_W@Z 0000000140058c6c f i libucrt:crtmbox.obj
 0001:00057c78       __acrt_show_narrow_message_box 0000000140058c78 f   libucrt:crtmbox.obj
 0001:00057d44       __acrt_show_wide_message_box 0000000140058d44 f   libucrt:crtmbox.obj
 0001:00057ec0       ?get_doserrno@__crt_cached_ptd_host@@QEAA@XZ 0000000140058ec0 f i libucrt:errno.obj
 0001:00057ec8       ?set@?$cached@K@__crt_cached_ptd_host@@QEAAKK@Z 0000000140058ec8 f i libucrt:errno.obj
 0001:00057ed4       __acrt_errno_from_os_error 0000000140058ed4 f   libucrt:errno.obj
 0001:00057fd8       __acrt_errno_map_os_error  0000000140058fd8 f   libucrt:errno.obj
 0001:00058008       __acrt_errno_map_os_error_ptd 0000000140059008 f   libucrt:errno.obj
 0001:00058034       __doserrno                 0000000140059034 f   libucrt:errno.obj
 0001:00058060       _errno                     0000000140059060 f   libucrt:errno.obj
 0001:0005808c       _get_doserrno              000000014005908c f   libucrt:errno.obj
 0001:000580c0       _get_errno                 00000001400590c0 f   libucrt:errno.obj
 0001:000580f4       _set_doserrno              00000001400590f4 f   libucrt:errno.obj
 0001:00058128       _set_errno                 0000000140059128 f   libucrt:errno.obj
 0001:00058160       _calloc_base               0000000140059160 f   libucrt:calloc_base.obj
 0001:00058200       _free_base                 0000000140059200 f   libucrt:free_base.obj
 0001:000582a0       ??$__acrt_convert_wcs_mbs_cp@D_WV<lambda_7c9dea7b4ca7285d2cdb541a38da6275>@@U__crt_win32_buffer_internal_dynamic_resizing@@@@YAHQEBDAEAV?$__crt_win32_buffer@_WU__crt_win32_buffer_internal_dynamic_resizing@@@@AEBV<lambda_7c9dea7b4ca7285d2cdb541a38da6275>@@I@Z 00000001400592a0 f i libucrt:argv_wildcards.obj
 0001:000584a4       ??$__acrt_convert_wcs_mbs_cp@_WDV<lambda_d8593a27d1aa8c02be35c86a17d324c4>@@U__crt_win32_buffer_internal_dynamic_resizing@@@@YAHQEB_WAEAV?$__crt_win32_buffer@DU__crt_win32_buffer_internal_dynamic_resizing@@@@AEBV<lambda_d8593a27d1aa8c02be35c86a17d324c4>@@I@Z 00000001400594a4 f i libucrt:argv_wildcards.obj
 0001:000586bc       ??$__acrt_mbs_to_wcs_cp@U__crt_win32_buffer_internal_dynamic_resizing@@@@YAHQEBDAEAV?$__crt_win32_buffer@_WU__crt_win32_buffer_internal_dynamic_resizing@@@@I@Z 00000001400596bc f i libucrt:argv_wildcards.obj
 0001:000586cc       ??$__acrt_wcs_to_mbs_cp@U__crt_win32_buffer_internal_dynamic_resizing@@@@YAHQEB_WAEAV?$__crt_win32_buffer@DU__crt_win32_buffer_internal_dynamic_resizing@@@@I@Z 00000001400596cc f i libucrt:argv_wildcards.obj
 0001:000598b4       ??$tcslen@AEBQEBD@?$__crt_char_traits@D@@SA_KAEBQEBD@Z 000000014005a8b4 f i libucrt:argv_wildcards.obj
 0001:000598cc       ??$tcslen@AEBQEB_W@?$__crt_char_traits@_W@@SA_KAEBQEB_W@Z 000000014005a8cc f i libucrt:argv_wildcards.obj
 0001:000598e4       ??$tcsncpy_s@AEAPEAD_KAEAPEADAEB_K@?$__crt_char_traits@D@@SAHAEAPEAD$$QEA_K0AEB_K@Z 000000014005a8e4 f i libucrt:argv_wildcards.obj
 0001:000598fc       ??$tcsncpy_s@AEAPEA_W_KAEAPEA_WAEB_K@?$__crt_char_traits@_W@@SAHAEAPEA_W$$QEA_K0AEB_K@Z 000000014005a8fc f i libucrt:argv_wildcards.obj
 0001:00059914       ??$tcsncpy_s@PEADAEB_KAEBQEBDAEB_K@?$__crt_char_traits@D@@SAH$$QEAPEADAEB_KAEBQEBD1@Z 000000014005a914 f i libucrt:argv_wildcards.obj
 0001:0005992c       ??$tcsncpy_s@PEAD_KAEBQEBDAEB_K@?$__crt_char_traits@D@@SAH$$QEAPEAD$$QEA_KAEBQEBDAEB_K@Z 000000014005a92c f i libucrt:argv_wildcards.obj
 0001:00059944       ??$tcsncpy_s@PEA_WAEB_KAEBQEB_WAEB_K@?$__crt_char_traits@_W@@SAH$$QEAPEA_WAEB_KAEBQEB_W1@Z 000000014005a944 f i libucrt:argv_wildcards.obj
 0001:0005995c       ??$tcsncpy_s@PEA_W_KAEBQEB_WAEB_K@?$__crt_char_traits@_W@@SAH$$QEAPEA_W$$QEA_KAEBQEB_WAEB_K@Z 000000014005a95c f i libucrt:argv_wildcards.obj
 0001:00059974       ??$tcspbrk@AEAPEADAEAY02$$CBD@?$__crt_char_traits@D@@SAPEADAEAPEADAEAY02$$CBD@Z 000000014005a974 f i libucrt:argv_wildcards.obj
 0001:00059980       ??$tcspbrk@AEAPEA_WAEAY02$$CB_W@?$__crt_char_traits@_W@@SAPEA_WAEAPEA_WAEAY02$$CB_W@Z 000000014005a980 f i libucrt:argv_wildcards.obj
 0001:0005998c       ??0?$__crt_unique_handle_t@U__crt_findfile_traits@@@@QEAA@QEAX@Z 000000014005a98c f i libucrt:argv_wildcards.obj
 0001:00059994       ??0?$__crt_win32_buffer@DU__crt_win32_buffer_internal_dynamic_resizing@@@@QEAA@XZ 000000014005a994 f i libucrt:argv_wildcards.obj
 0001:000599b8       ??0?$__crt_win32_buffer@_WU__crt_win32_buffer_internal_dynamic_resizing@@@@QEAA@XZ 000000014005a9b8 f i libucrt:argv_wildcards.obj
 0001:00059a0c       ??1?$__crt_unique_handle_t@U__crt_findfile_traits@@@@QEAA@XZ 000000014005aa0c f i libucrt:argv_wildcards.obj
 0001:00059a38       ??1?$__crt_win32_buffer@DU__crt_win32_buffer_internal_dynamic_resizing@@@@QEAA@XZ 000000014005aa38 f i libucrt:argv_wildcards.obj
 0001:00059a64       ??1?$__crt_win32_buffer@_WU__crt_win32_buffer_internal_dynamic_resizing@@@@QEAA@XZ 000000014005aa64 f i libucrt:argv_wildcards.obj
 0001:00059b38       ??R<lambda_7c9dea7b4ca7285d2cdb541a38da6275>@@QEBA@IQEBDQEA_W_K@Z 000000014005ab38 f i libucrt:argv_wildcards.obj
 0001:00059be8       ??R<lambda_d8593a27d1aa8c02be35c86a17d324c4>@@QEBA@IQEB_WQEAD_K@Z 000000014005abe8 f i libucrt:argv_wildcards.obj
 0001:00059c24       ?__acrt_get_utf8_acp_compatibility_codepage@@YAIXZ 000000014005ac24 f i libucrt:argv_wildcards.obj
 0001:00059c80       ?_deallocate@?$__crt_win32_buffer@DU__crt_win32_buffer_internal_dynamic_resizing@@@@AEAAXXZ 000000014005ac80 f i libucrt:argv_wildcards.obj
 0001:00059cac       ?_deallocate@?$__crt_win32_buffer@_WU__crt_win32_buffer_internal_dynamic_resizing@@@@AEAAXXZ 000000014005acac f i libucrt:argv_wildcards.obj
 0001:00059cd8       ?allocate@?$__crt_win32_buffer@DU__crt_win32_buffer_internal_dynamic_resizing@@@@QEAAH_K@Z 000000014005acd8 f i libucrt:argv_wildcards.obj
 0001:00059d54       ?allocate@?$__crt_win32_buffer@_WU__crt_win32_buffer_internal_dynamic_resizing@@@@QEAAH_K@Z 000000014005ad54 f i libucrt:argv_wildcards.obj
 0001:00059dd0       ?allocate@__crt_win32_buffer_internal_dynamic_resizing@@SAHQEAPEAX_KAEBV__crt_win32_buffer_empty_debug_info@@@Z 000000014005add0 f i libucrt:argv_wildcards.obj
 0001:0005a030       ?capacity@?$__crt_win32_buffer@DU__crt_win32_buffer_internal_dynamic_resizing@@@@QEBA_KXZ 000000014005b030 f i libucrt:argv_wildcards.obj
 0001:0005a038       ?capacity@?$__crt_win32_buffer@_WU__crt_win32_buffer_internal_dynamic_resizing@@@@QEBA_KXZ 000000014005b038 f i libucrt:argv_wildcards.obj
 0001:0005a040       ?close@?$__crt_unique_handle_t@U__crt_findfile_traits@@@@QEAAXXZ 000000014005b040 f i libucrt:argv_wildcards.obj
 0001:0005a06c       ?close@__crt_findfile_traits@@SA_NPEAX@Z 000000014005b06c f i libucrt:argv_wildcards.obj
 0001:0005a088       ?data@?$__crt_win32_buffer@DU__crt_win32_buffer_internal_dynamic_resizing@@@@QEAAPEADXZ 000000014005b088 f i libucrt:argv_wildcards.obj
 0001:0005a090       ?data@?$__crt_win32_buffer@_WU__crt_win32_buffer_internal_dynamic_resizing@@@@QEAAPEA_WXZ 000000014005b090 f i libucrt:argv_wildcards.obj
 0001:0005a098       ?deallocate@__crt_win32_buffer_internal_dynamic_resizing@@SAXQEAXAEBV__crt_win32_buffer_empty_debug_info@@@Z 000000014005b098 f i libucrt:argv_wildcards.obj
 0001:0005a0a0       ?debug_info@?$__crt_win32_buffer@DU__crt_win32_buffer_internal_dynamic_resizing@@@@QEBAAEBV__crt_win32_buffer_empty_debug_info@@XZ 000000014005b0a0 f i libucrt:argv_wildcards.obj
 0001:0005a0a4       ?debug_info@?$__crt_win32_buffer@_WU__crt_win32_buffer_internal_dynamic_resizing@@@@QEBAAEBV__crt_win32_buffer_empty_debug_info@@XZ 000000014005b0a4 f i libucrt:argv_wildcards.obj
 0001:0005a2a8       ?get@?$__crt_unique_handle_t@U__crt_findfile_traits@@@@QEBAPEAXXZ 000000014005b2a8 f i libucrt:argv_wildcards.obj
 0001:0005a37c       ?get_invalid_value@__crt_findfile_traits@@SAPEAXXZ 000000014005b37c f i libucrt:argv_wildcards.obj
 0001:0005a464       ?set_to_nullptr@?$__crt_win32_buffer@DU__crt_win32_buffer_internal_dynamic_resizing@@@@QEAAXXZ 000000014005b464 f i libucrt:argv_wildcards.obj
 0001:0005a4ac       ?set_to_nullptr@?$__crt_win32_buffer@_WU__crt_win32_buffer_internal_dynamic_resizing@@@@QEAAXXZ 000000014005b4ac f i libucrt:argv_wildcards.obj
 0001:0005a4f4       ?size@?$__crt_win32_buffer@DU__crt_win32_buffer_internal_dynamic_resizing@@@@QEAAX_K@Z 000000014005b4f4 f i libucrt:argv_wildcards.obj
 0001:0005a4fc       ?size@?$__crt_win32_buffer@_WU__crt_win32_buffer_internal_dynamic_resizing@@@@QEAAX_K@Z 000000014005b4fc f i libucrt:argv_wildcards.obj
 0001:0005a524       ?strpbrk@@YAPEADQEADQEBD@Z 000000014005b524 f i libucrt:argv_wildcards.obj
 0001:0005a52c       ?wcspbrk@@YAPEA_WPEA_WPEB_W@Z 000000014005b52c f i libucrt:argv_wildcards.obj
 0001:0005a534       __acrt_expand_narrow_argv_wildcards 000000014005b534 f   libucrt:argv_wildcards.obj
 0001:0005a53c       __acrt_expand_wide_argv_wildcards 000000014005b53c f   libucrt:argv_wildcards.obj
 0001:0005a544       ??$__acrt_convert_wcs_mbs_cp@_WDV<lambda_f788ae46380686e8b737efdd8c720d07>@@U__crt_win32_buffer_no_resizing@@@@YAHQEB_WAEAV?$__crt_win32_buffer@DU__crt_win32_buffer_no_resizing@@@@AEBV<lambda_f788ae46380686e8b737efdd8c720d07>@@I@Z 000000014005b544 f i libucrt:getmodulefilenamea.obj
 0001:0005a6a4       ??$__acrt_wcs_to_mbs_cp@U__crt_win32_buffer_no_resizing@@@@YAHQEB_WAEAV?$__crt_win32_buffer@DU__crt_win32_buffer_no_resizing@@@@I@Z 000000014005b6a4 f i libucrt:getmodulefilenamea.obj
 0001:0005a6b4       ??0?$__crt_win32_buffer@DU__crt_win32_buffer_no_resizing@@@@QEAA@QEAD_K@Z 000000014005b6b4 f i libucrt:getmodulefilenamea.obj
 0001:0005a6d8       ??1?$__crt_win32_buffer@DU__crt_win32_buffer_no_resizing@@@@QEAA@XZ 000000014005b6d8 f i libucrt:getmodulefilenamea.obj
 0001:0005a6e8       ??R<lambda_f788ae46380686e8b737efdd8c720d07>@@QEBA@IQEB_WQEAD_K@Z 000000014005b6e8 f i libucrt:getmodulefilenamea.obj
 0001:0005a724       ?_deallocate@?$__crt_win32_buffer@DU__crt_win32_buffer_no_resizing@@@@AEAAXXZ 000000014005b724 f i libucrt:getmodulefilenamea.obj
 0001:0005a734       ?allocate@?$__crt_win32_buffer@DU__crt_win32_buffer_no_resizing@@@@QEAAH_K@Z 000000014005b734 f i libucrt:getmodulefilenamea.obj
 0001:0005a770       ?allocate@__crt_win32_buffer_no_resizing@@SAHQEAPEAX_KAEBV__crt_win32_buffer_empty_debug_info@@@Z 000000014005b770 f i libucrt:getmodulefilenamea.obj
 0001:0005a78c       ?capacity@?$__crt_win32_buffer@DU__crt_win32_buffer_no_resizing@@@@QEBA_KXZ 000000014005b78c f i libucrt:getmodulefilenamea.obj
 0001:0005a794       ?data@?$__crt_win32_buffer@DU__crt_win32_buffer_no_resizing@@@@QEAAPEADXZ 000000014005b794 f i libucrt:getmodulefilenamea.obj
 0001:0005a79c       ?deallocate@__crt_win32_buffer_no_resizing@@SAXQEAXAEBV__crt_win32_buffer_empty_debug_info@@@Z 000000014005b79c f i libucrt:getmodulefilenamea.obj
 0001:0005a7a0       ?debug_info@?$__crt_win32_buffer@DU__crt_win32_buffer_no_resizing@@@@QEBAAEBV__crt_win32_buffer_empty_debug_info@@XZ 000000014005b7a0 f i libucrt:getmodulefilenamea.obj
 0001:0005a7a4       ?set_to_nullptr@?$__crt_win32_buffer@DU__crt_win32_buffer_no_resizing@@@@QEAAXXZ 000000014005b7a4 f i libucrt:getmodulefilenamea.obj
 0001:0005a7c0       ?size@?$__crt_win32_buffer@DU__crt_win32_buffer_no_resizing@@@@QEAAX_K@Z 000000014005b7c0 f i libucrt:getmodulefilenamea.obj
 0001:0005a7c8       ?size@?$__crt_win32_buffer@DU__crt_win32_buffer_no_resizing@@@@QEBA_KXZ 000000014005b7c8 f i libucrt:getmodulefilenamea.obj
 0001:0005a7d0       __acrt_GetModuleFileNameA  000000014005b7d0 f   libucrt:getmodulefilenamea.obj
 0001:0005abb0       ??$initialize_from_array@$$BY10BAA@E@?$dual_state_global@PEAE@__crt_state_management@@QEAAXAEAY10BAA@E@Z 000000014005bbb0 f i libucrt:mbctype.obj
 0001:0005abb4       ??$initialize_from_array@$$BY10BAB@E@?$dual_state_global@PEAE@__crt_state_management@@QEAAXAEAY10BAB@E@Z 000000014005bbb4 f i libucrt:mbctype.obj
 0001:0005ae40       ?dangerous_get_state_array@?$dual_state_global@PEAE@__crt_state_management@@QEAAPEAPEAEXZ 000000014005be40 f i libucrt:mbctype.obj
 0001:0005ae44       ?dangerous_get_state_array@?$dual_state_global@PEAU__crt_multibyte_data@@@__crt_state_management@@QEAAPEAPEAU__crt_multibyte_data@@XZ 000000014005be44 f i libucrt:mbctype.obj
 0001:0005aee4       ?initialize@?$dual_state_global@PEAU__crt_multibyte_data@@@__crt_state_management@@QEAAXQEAU__crt_multibyte_data@@@Z 000000014005bee4 f i libucrt:mbctype.obj
 0001:0005b61c       ?value@?$dual_state_global@PEAE@__crt_state_management@@QEAAAEAPEAEXZ 000000014005c61c f i libucrt:mbctype.obj
 0001:0005b620       __acrt_initialize_multibyte 000000014005c620 f   libucrt:mbctype.obj
 0001:0005b698       __acrt_update_thread_multibyte_data 000000014005c698 f   libucrt:mbctype.obj
 0001:0005b6bc       __p__mbcasemap             000000014005c6bc f   libucrt:mbctype.obj
 0001:0005b6c8       __p__mbctype               000000014005c6c8 f   libucrt:mbctype.obj
 0001:0005b6d4       _getmbcp                   000000014005c6d4 f   libucrt:mbctype.obj
 0001:0005b71c       _setmbcp                   000000014005c71c f   libucrt:mbctype.obj
 0001:0005b74c       _setmbcp_nolock            000000014005c74c f   libucrt:mbctype.obj
 0001:0005bc00       _ismbbalnum                000000014005cc00 f   libucrt:ismbbyte.obj
 0001:0005bc1c       _ismbbalnum_l              000000014005cc1c f   libucrt:ismbbyte.obj
 0001:0005bc3c       _ismbbalpha                000000014005cc3c f   libucrt:ismbbyte.obj
 0001:0005bc58       _ismbbalpha_l              000000014005cc58 f   libucrt:ismbbyte.obj
 0001:0005bc78       _ismbbblank                000000014005cc78 f   libucrt:ismbbyte.obj
 0001:0005bc9c       _ismbbblank_l              000000014005cc9c f   libucrt:ismbbyte.obj
 0001:0005bcc4       _ismbbgraph                000000014005ccc4 f   libucrt:ismbbyte.obj
 0001:0005bce0       _ismbbgraph_l              000000014005cce0 f   libucrt:ismbbyte.obj
 0001:0005bd00       _ismbbkalnum               000000014005cd00 f   libucrt:ismbbyte.obj
 0001:0005bd18       _ismbbkalnum_l             000000014005cd18 f   libucrt:ismbbyte.obj
 0001:0005bd34       _ismbbkana                 000000014005cd34 f   libucrt:ismbbyte.obj
 0001:0005bd3c       _ismbbkana_l               000000014005cd3c f   libucrt:ismbbyte.obj
 0001:0005bdbc       _ismbbkprint               000000014005cdbc f   libucrt:ismbbyte.obj
 0001:0005bdd4       _ismbbkprint_l             000000014005cdd4 f   libucrt:ismbbyte.obj
 0001:0005bdf0       _ismbbkpunct               000000014005cdf0 f   libucrt:ismbbyte.obj
 0001:0005be08       _ismbbkpunct_l             000000014005ce08 f   libucrt:ismbbyte.obj
 0001:0005be24       _ismbblead                 000000014005ce24 f   libucrt:ismbbyte.obj
 0001:0005be3c       _ismbblead_l               000000014005ce3c f   libucrt:ismbbyte.obj
 0001:0005be58       _ismbbprint                000000014005ce58 f   libucrt:ismbbyte.obj
 0001:0005be74       _ismbbprint_l              000000014005ce74 f   libucrt:ismbbyte.obj
 0001:0005be94       _ismbbpunct                000000014005ce94 f   libucrt:ismbbyte.obj
 0001:0005beac       _ismbbpunct_l              000000014005ceac f   libucrt:ismbbyte.obj
 0001:0005bec8       _ismbbtrail                000000014005cec8 f   libucrt:ismbbyte.obj
 0001:0005bee0       _ismbbtrail_l              000000014005cee0 f   libucrt:ismbbyte.obj
 0001:0005bfac       __acrt_MultiByteToWideChar 000000014005cfac f   libucrt:multibytetowidechar.obj
 0001:0005c108       __acrt_WideCharToMultiByte 000000014005d108 f   libucrt:widechartomultibyte.obj
 0001:0005c2e4       __dcrt_get_narrow_environment_from_os 000000014005d2e4 f   libucrt:get_environment_from_os.obj
 0001:0005c438       __dcrt_get_wide_environment_from_os 000000014005d438 f   libucrt:get_environment_from_os.obj
 0001:0005d174       ??$get_or_create_environment_nolock@$$V@?$__crt_char_traits@D@@SAPEAPEADXZ 000000014005e174 f i libucrt:setenv.obj
 0001:0005d17c       ??$get_or_create_environment_nolock@$$V@?$__crt_char_traits@_W@@SAPEAPEA_WXZ 000000014005e17c f i libucrt:setenv.obj
 0001:0005d184       ??$set_environment_variable@AEBQEADQEAD@?$__crt_char_traits@D@@SAHAEBQEAD$$QEBQEAD@Z 000000014005e184 f i libucrt:setenv.obj
 0001:0005d194       ??$set_environment_variable@AEBQEA_WQEA_W@?$__crt_char_traits@_W@@SAHAEBQEA_W$$QEBQEA_W@Z 000000014005e194 f i libucrt:setenv.obj
 0001:0005d1a4       ??$tcschr@AEBQEADD@?$__crt_char_traits@D@@SAPEADAEBQEAD$$QEAD@Z 000000014005e1a4 f i libucrt:setenv.obj
 0001:0005d1b4       ??$tcschr@AEBQEA_WD@?$__crt_char_traits@_W@@SAPEA_WAEBQEA_W$$QEAD@Z 000000014005e1b4 f i libucrt:setenv.obj
 0001:0005d1c4       ??$tcscpy_s@AEAPEADAEB_KAEAPEAD@?$__crt_char_traits@D@@SAHAEAPEADAEB_K0@Z 000000014005e1c4 f i libucrt:setenv.obj
 0001:0005d1d8       ??$tcscpy_s@AEAPEA_WAEB_KAEAPEA_W@?$__crt_char_traits@_W@@SAHAEAPEA_WAEB_K0@Z 000000014005e1d8 f i libucrt:setenv.obj
 0001:0005d1ec       ??$tcscpy_s@AEBQEADAEB_KAEBQEAD@?$__crt_char_traits@D@@SAHAEBQEADAEB_K0@Z 000000014005e1ec f i libucrt:setenv.obj
 0001:0005d200       ??$tcscpy_s@AEBQEA_WAEB_KAEBQEA_W@?$__crt_char_traits@_W@@SAHAEBQEA_WAEB_K0@Z 000000014005e200 f i libucrt:setenv.obj
 0001:0005d214       ??$tcslen@AEBQEAD@?$__crt_char_traits@D@@SA_KAEBQEAD@Z 000000014005e214 f i libucrt:setenv.obj
 0001:0005d22c       ??$tcslen@AEBQEA_W@?$__crt_char_traits@_W@@SA_KAEBQEA_W@Z 000000014005e22c f i libucrt:setenv.obj
 0001:0005d244       ??$tcsnicoll@AEBQEBDAEAPEADAEB_K@?$__crt_char_traits@D@@SAHAEBQEBDAEAPEADAEB_K@Z 000000014005e244 f i libucrt:setenv.obj
 0001:0005d258       ??$tcsnicoll@AEBQEB_WAEAPEA_WAEB_K@?$__crt_char_traits@_W@@SAHAEBQEB_WAEAPEA_WAEB_K@Z 000000014005e258 f i libucrt:setenv.obj
 0001:0005d2b4       ?strchr@@YAPEADQEADH@Z     000000014005e2b4 f i libucrt:setenv.obj
 0001:0005d2bc       ?wcschr@@YAPEA_WPEA_W_W@Z  000000014005e2bc f i libucrt:setenv.obj
 0001:0005d2c4       __dcrt_set_variable_in_narrow_environment_nolock 000000014005e2c4 f   libucrt:setenv.obj
 0001:0005d2cc       __dcrt_set_variable_in_wide_environment_nolock 000000014005e2cc f   libucrt:setenv.obj
 0001:0005d2d4       __acrt_initialize_locks    000000014005e2d4 f   libucrt:locks.obj
 0001:0005d330       __acrt_lock                000000014005e330 f   libucrt:locks.obj
 0001:0005d350       __acrt_uninitialize_locks  000000014005e350 f   libucrt:locks.obj
 0001:0005d394       __acrt_unlock              000000014005e394 f   libucrt:locks.obj
 0001:0005d3b4       _lock_locales              000000014005e3b4 f   libucrt:locks.obj
 0001:0005d3d8       _unlock_locales            000000014005e3d8 f   libucrt:locks.obj
 0001:0005d3ec       __acrt_app_verifier_enabled 000000014005e3ec f   libucrt:peb_access.obj
 0001:0005d40c       __acrt_is_secure_process   000000014005e40c f   libucrt:peb_access.obj
 0001:0005d614       __acrt_get_begin_thread_init_policy 000000014005e614 f   libucrt:win_policies.obj
 0001:0005d664       __acrt_get_developer_information_policy 000000014005e664 f   libucrt:win_policies.obj
 0001:0005d6b8       __acrt_get_process_end_policy 000000014005e6b8 f   libucrt:win_policies.obj
 0001:0005d6f4       __acrt_get_windowing_model_policy 000000014005e6f4 f   libucrt:win_policies.obj
 0001:0005d774       ??$?RU__crt_lowio_handle_data@@@__crt_internal_free_policy@@QEBAXQEBU__crt_lowio_handle_data@@@Z 000000014005e774 f i libucrt:osfinfo.obj
 0001:0005d780       ??0?$__crt_unique_heap_ptr@U__crt_lowio_handle_data@@U__crt_internal_free_policy@@@@QEAA@QEAU__crt_lowio_handle_data@@@Z 000000014005e780 f i libucrt:osfinfo.obj
 0001:0005d788       ??1?$__crt_unique_heap_ptr@U__crt_lowio_handle_data@@U__crt_internal_free_policy@@@@QEAA@XZ 000000014005e788 f i libucrt:osfinfo.obj
 0001:0005d7ac       ??B?$__crt_unique_heap_ptr@U__crt_lowio_handle_data@@U__crt_internal_free_policy@@@@QEBA_NXZ 000000014005e7ac f i libucrt:osfinfo.obj
 0001:0005d7b8       ?detach@?$__crt_unique_heap_ptr@U__crt_lowio_handle_data@@U__crt_internal_free_policy@@@@QEAAPEAU__crt_lowio_handle_data@@XZ 000000014005e7b8 f i libucrt:osfinfo.obj
 0001:0005d7c4       ?get@?$__crt_unique_heap_ptr@U__crt_lowio_handle_data@@U__crt_internal_free_policy@@@@QEBAPEAU__crt_lowio_handle_data@@XZ 000000014005e7c4 f i libucrt:osfinfo.obj
 0001:0005d7c8       ?is_valid@?$__crt_unique_heap_ptr@U__crt_lowio_handle_data@@U__crt_internal_free_policy@@@@QEBA_NXZ 000000014005e7c8 f i libucrt:osfinfo.obj
 0001:0005d7d4       ?release@?$__crt_unique_heap_ptr@U__crt_lowio_handle_data@@U__crt_internal_free_policy@@@@QEAAXXZ 000000014005e7d4 f i libucrt:osfinfo.obj
 0001:0005d7f8       __acrt_lowio_create_handle_array 000000014005e7f8 f   libucrt:osfinfo.obj
 0001:0005d8c8       __acrt_lowio_destroy_handle_array 000000014005e8c8 f   libucrt:osfinfo.obj
 0001:0005d92c       __acrt_lowio_ensure_fh_exists 000000014005e92c f   libucrt:osfinfo.obj
 0001:0005da00       __acrt_lowio_lock_fh       000000014005ea00 f   libucrt:osfinfo.obj
 0001:0005da30       __acrt_lowio_set_os_handle 000000014005ea30 f   libucrt:osfinfo.obj
 0001:0005db20       __acrt_lowio_unlock_fh     000000014005eb20 f   libucrt:osfinfo.obj
 0001:0005db50       _alloc_osfhnd              000000014005eb50 f   libucrt:osfinfo.obj
 0001:0005dce0       _free_osfhnd               000000014005ece0 f   libucrt:osfinfo.obj
 0001:0005ddc8       _get_osfhandle             000000014005edc8 f   libucrt:osfinfo.obj
 0001:0005de5c       _open_osfhandle            000000014005ee5c f   libucrt:osfinfo.obj
 0001:0005df9c       ?dangerous_get_state_array@?$dual_state_global@H@__crt_state_management@@QEAAPEAHXZ 000000014005ef9c f i libucrt:txtmode.obj
 0001:0005dfa0       __acrt_initialize_fmode    000000014005efa0 f   libucrt:txtmode.obj
 0001:0005dfbc       __p__fmode                 000000014005efbc f   libucrt:txtmode.obj
 0001:0005dfc8       ??$?RG@__crt_internal_free_policy@@QEBAXQEBG@Z 000000014005efc8 f i libucrt:initctype.obj
 0001:0005dfd4       ??$?RJ@__crt_internal_free_policy@@QEBAXQEBJ@Z 000000014005efd4 f i libucrt:initctype.obj
 0001:0005dfe0       ??0?$__crt_unique_heap_ptr@GU__crt_internal_free_policy@@@@QEAA@QEAG@Z 000000014005efe0 f i libucrt:initctype.obj
 0001:0005dfe8       ??0?$__crt_unique_heap_ptr@JU__crt_internal_free_policy@@@@QEAA@QEAJ@Z 000000014005efe8 f i libucrt:initctype.obj
 0001:0005dff0       ??1?$__crt_unique_heap_ptr@GU__crt_internal_free_policy@@@@QEAA@XZ 000000014005eff0 f i libucrt:initctype.obj
 0001:0005e014       ??1?$__crt_unique_heap_ptr@JU__crt_internal_free_policy@@@@QEAA@XZ 000000014005f014 f i libucrt:initctype.obj
 0001:0005e038       ?detach@?$__crt_unique_heap_ptr@GU__crt_internal_free_policy@@@@QEAAPEAGXZ 000000014005f038 f i libucrt:initctype.obj
 0001:0005e044       ?detach@?$__crt_unique_heap_ptr@JU__crt_internal_free_policy@@@@QEAAPEAJXZ 000000014005f044 f i libucrt:initctype.obj
 0001:0005e050       ?release@?$__crt_unique_heap_ptr@GU__crt_internal_free_policy@@@@QEAAXXZ 000000014005f050 f i libucrt:initctype.obj
 0001:0005e074       ?release@?$__crt_unique_heap_ptr@JU__crt_internal_free_policy@@@@QEAAXXZ 000000014005f074 f i libucrt:initctype.obj
 0001:0005e098       ___lc_codepage_func        000000014005f098 f   libucrt:initctype.obj
 0001:0005e0d4       ___lc_collate_cp_func      000000014005f0d4 f   libucrt:initctype.obj
 0001:0005e110       ___lc_locale_name_func     000000014005f110 f   libucrt:initctype.obj
 0001:0005e150       ___mb_cur_max_func         000000014005f150 f   libucrt:initctype.obj
 0001:0005e18c       ___mb_cur_max_l_func       000000014005f18c f   libucrt:initctype.obj
 0001:0005e1a0       __acrt_locale_initialize_ctype 000000014005f1a0 f   libucrt:initctype.obj
 0001:0005e978       ??$?RUlconv@@@__crt_internal_free_policy@@QEBAXQEBUlconv@@@Z 000000014005f978 f i libucrt:initmon.obj
 0001:0005e984       ??0?$__crt_unique_heap_ptr@Ulconv@@U__crt_internal_free_policy@@@@QEAA@QEAUlconv@@@Z 000000014005f984 f i libucrt:initmon.obj
 0001:0005e98c       ??1?$__crt_unique_heap_ptr@Ulconv@@U__crt_internal_free_policy@@@@QEAA@XZ 000000014005f98c f i libucrt:initmon.obj
 0001:0005e9b0       ?detach@?$__crt_unique_heap_ptr@Ulconv@@U__crt_internal_free_policy@@@@QEAAPEAUlconv@@XZ 000000014005f9b0 f i libucrt:initmon.obj
 0001:0005e9bc       ?release@?$__crt_unique_heap_ptr@Ulconv@@U__crt_internal_free_policy@@@@QEAAXXZ 000000014005f9bc f i libucrt:initmon.obj
 0001:0005e9e0       __acrt_locale_free_monetary 000000014005f9e0 f   libucrt:initmon.obj
 0001:0005eb2c       __acrt_locale_initialize_monetary 000000014005fb2c f   libucrt:initmon.obj
 0001:0005f1d0       __acrt_locale_free_numeric 00000001400601d0 f   libucrt:initnum.obj
 0001:0005f258       __acrt_locale_initialize_numeric 0000000140060258 f   libucrt:initnum.obj
 0001:0005f638       ??$?RU__crt_lc_time_data@@@__crt_internal_free_policy@@QEBAXQEBU__crt_lc_time_data@@@Z 0000000140060638 f i libucrt:inittime.obj
 0001:0005f68c       ??0?$__crt_unique_heap_ptr@U__crt_lc_time_data@@U__crt_internal_free_policy@@@@QEAA@QEAU__crt_lc_time_data@@@Z 000000014006068c f i libucrt:inittime.obj
 0001:0005f694       ??1?$__crt_unique_heap_ptr@U__crt_lc_time_data@@U__crt_internal_free_policy@@@@QEAA@XZ 0000000140060694 f i libucrt:inittime.obj
 0001:0005f6b8       ??B?$__crt_unique_heap_ptr@U__crt_lc_time_data@@U__crt_internal_free_policy@@@@QEBA_NXZ 00000001400606b8 f i libucrt:inittime.obj
 0001:0005f6c4       ?detach@?$__crt_unique_heap_ptr@U__crt_lc_time_data@@U__crt_internal_free_policy@@@@QEAAPEAU__crt_lc_time_data@@XZ 00000001400606c4 f i libucrt:inittime.obj
 0001:0005f710       ?get@?$__crt_unique_heap_ptr@U__crt_lc_time_data@@U__crt_internal_free_policy@@@@QEBAPEAU__crt_lc_time_data@@XZ 0000000140060710 f i libucrt:inittime.obj
 0001:0005fbc0       ?is_valid@?$__crt_unique_heap_ptr@U__crt_lc_time_data@@U__crt_internal_free_policy@@@@QEBA_NXZ 0000000140060bc0 f i libucrt:inittime.obj
 0001:0005fbcc       ?release@?$__crt_unique_heap_ptr@U__crt_lc_time_data@@U__crt_internal_free_policy@@@@QEAAXXZ 0000000140060bcc f i libucrt:inittime.obj
 0001:0005fbf0       __acrt_locale_free_time    0000000140060bf0 f   libucrt:inittime.obj
 0001:0005fd3c       __acrt_locale_initialize_time 0000000140060d3c f   libucrt:inittime.obj
 0001:0005fe00       __pctype_func              0000000140060e00 f   libucrt:ctype.obj
 0001:0005fe3c       __pwctype_func             0000000140060e3c f   libucrt:ctype.obj
 0001:0005fe50       _malloc_base               0000000140060e50 f   libucrt:malloc_base.obj
 0001:00060050       wcsncat_s                  0000000140061050 f   libucrt:wcsncat_s.obj
 0001:000601e0       wcscspn                    00000001400611e0 f   libucrt:wcscspn.obj
 0001:00060eb0       ??1?$__crt_simd_cleanup_guard@$00@@QEAA@XZ 0000000140061eb0 f i libucrt:strnlen.obj
 0001:00060ec0       ??1?$__crt_simd_cleanup_guard@$0A@@@QEAA@XZ 0000000140061ec0 f i libucrt:strnlen.obj
 0001:00060ed0       ?compare_equals@?$__crt_simd_traits@$00E@@SA?AT__m256i@@T2@0@Z 0000000140061ed0 f i libucrt:strnlen.obj
 0001:00060ee0       ?compare_equals@?$__crt_simd_traits@$00G@@SA?AT__m256i@@T2@0@Z 0000000140061ee0 f i libucrt:strnlen.obj
 0001:00060ef0       ?compare_equals@?$__crt_simd_traits@$0A@E@@SA?AT__m128i@@T2@0@Z 0000000140061ef0 f i libucrt:strnlen.obj
 0001:00060f00       ?compare_equals@?$__crt_simd_traits@$0A@G@@SA?AT__m128i@@T2@0@Z 0000000140061f00 f i libucrt:strnlen.obj
 0001:00060f10       ?compute_byte_mask@?$__crt_simd_pack_traits@$00@@SAHT__m256i@@@Z 0000000140061f10 f i libucrt:strnlen.obj
 0001:00060f20       ?compute_byte_mask@?$__crt_simd_pack_traits@$0A@@@SAHT__m128i@@@Z 0000000140061f20 f i libucrt:strnlen.obj
 0001:00060f30       ?get_zero_pack@?$__crt_simd_pack_traits@$00@@SA?AT__m256i@@XZ 0000000140061f30 f i libucrt:strnlen.obj
 0001:00060f40       ?get_zero_pack@?$__crt_simd_pack_traits@$0A@@@SA?AT__m128i@@XZ 0000000140061f40 f i libucrt:strnlen.obj
 0001:00060f50       strnlen                    0000000140061f50 f   libucrt:strnlen.obj
 0001:00061140       wcslen                     0000000140062140 f   libucrt:strnlen.obj
 0001:000612e0       wcsnlen                    00000001400622e0 f   libucrt:strnlen.obj
 0001:00061570       wcspbrk                    0000000140062570 f   libucrt:wcspbrk.obj
 0001:000615e0       ??0?$__crt_scoped_stack_ptr@_W@@QEAA@U?$__crt_scoped_stack_ptr_tag@_W@@@Z 00000001400625e0 f i libucrt:getstringtypea.obj
 0001:000615e8       ??0?$__crt_scoped_stack_ptr_tag@_W@@QEAA@QEA_W@Z 00000001400625e8 f i libucrt:getstringtypea.obj
 0001:000615f0       ??1?$__crt_scoped_stack_ptr@_W@@QEAA@XZ 00000001400625f0 f i libucrt:getstringtypea.obj
 0001:0006161c       ?get@?$__crt_scoped_stack_ptr@_W@@QEBAPEA_WXZ 000000014006261c f i libucrt:getstringtypea.obj
 0001:00061620       _MallocaComputeSize        0000000140062620 f i libucrt:getstringtypea.obj
 0001:00061634       _MarkAllocaS               0000000140062634 f i libucrt:getstringtypea.obj
 0001:00061648       __acrt_GetStringTypeA      0000000140062648 f   libucrt:getstringtypea.obj
 0001:0006183c       _freea_crt                 000000014006283c f i libucrt:getstringtypea.obj
 0001:00061864       __acrt_add_locale_ref      0000000140062864 f   libucrt:locale_refcounting.obj
 0001:00061914       __acrt_free_locale         0000000140062914 f   libucrt:locale_refcounting.obj
 0001:00061ae8       __acrt_locale_add_lc_time_reference 0000000140062ae8 f   libucrt:locale_refcounting.obj
 0001:00061b18       __acrt_locale_free_lc_time_if_unreferenced 0000000140062b18 f   libucrt:locale_refcounting.obj
 0001:00061b5c       __acrt_locale_release_lc_time_reference 0000000140062b5c f   libucrt:locale_refcounting.obj
 0001:00061b8c       __acrt_release_locale_ref  0000000140062b8c f   libucrt:locale_refcounting.obj
 0001:00061c60       __acrt_update_thread_locale_data 0000000140062c60 f   libucrt:locale_refcounting.obj
 0001:00061cec       _updatetlocinfoEx_nolock   0000000140062cec f   libucrt:locale_refcounting.obj
 0001:000627e0       __acrt_get_qualified_locale 00000001400637e0 f   libucrt:get_qualified_locale.obj
 0001:000635d0       __acrt_get_qualified_locale_downlevel 00000001400645d0 f   libucrt:getqloc_downlevel.obj
 0001:00063a3c       ?ReadPointerNoFence@@YAPEAXPEDSEAX@Z 0000000140064a3c f i libucrt:winapi_thunks.obj
 0001:00064a84       GetCurrentThreadEffectiveToken 0000000140065a84 f i libucrt:winapi_thunks.obj
 0001:00064a90       __acrt_AppPolicyGetProcessTerminationMethodInternal 0000000140065a90 f   libucrt:winapi_thunks.obj
 0001:00064b04       __acrt_AppPolicyGetShowDeveloperDiagnosticInternal 0000000140065b04 f   libucrt:winapi_thunks.obj
 0001:00064b78       __acrt_AppPolicyGetThreadInitializationTypeInternal 0000000140065b78 f   libucrt:winapi_thunks.obj
 0001:00064bec       __acrt_AppPolicyGetWindowingModelInternal 0000000140065bec f   libucrt:winapi_thunks.obj
 0001:00064c60       __acrt_AreFileApisANSI     0000000140065c60 f   libucrt:winapi_thunks.obj
 0001:00064cbc       __acrt_CompareStringEx     0000000140065cbc f   libucrt:winapi_thunks.obj
 0001:00064db0       __acrt_EnumSystemLocalesEx 0000000140065db0 f   libucrt:winapi_thunks.obj
 0001:00064e80       __acrt_FlsAlloc            0000000140065e80 f   libucrt:winapi_thunks.obj
 0001:00064e88       __acrt_FlsFree             0000000140065e88 f   libucrt:winapi_thunks.obj
 0001:00064e90       __acrt_FlsGetValue         0000000140065e90 f   libucrt:winapi_thunks.obj
 0001:00064e98       __acrt_FlsGetValue2        0000000140065e98 f   libucrt:winapi_thunks.obj
 0001:00064ea4       __acrt_FlsSetValue         0000000140065ea4 f   libucrt:winapi_thunks.obj
 0001:00064eac       __acrt_GetDateFormatEx     0000000140065eac f   libucrt:winapi_thunks.obj
 0001:00064fa4       __acrt_GetEnabledXStateFeatures 0000000140065fa4 f   libucrt:winapi_thunks.obj
 0001:00064ffc       __acrt_GetFileInformationByName 0000000140065ffc f   libucrt:winapi_thunks.obj
 0001:00065098       __acrt_GetLocaleInfoEx     0000000140066098 f   libucrt:winapi_thunks.obj
 0001:00065154       __acrt_GetSystemTimePreciseAsFileTime 0000000140066154 f   libucrt:winapi_thunks.obj
 0001:000651c4       __acrt_GetTempPath2W       00000001400661c4 f   libucrt:winapi_thunks.obj
 0001:00065244       __acrt_GetTimeFormatEx     0000000140066244 f   libucrt:winapi_thunks.obj
 0001:0006532c       __acrt_GetUserDefaultLocaleName 000000014006632c f   libucrt:winapi_thunks.obj
 0001:000653b8       __acrt_GetXStateFeaturesMask 00000001400663b8 f   libucrt:winapi_thunks.obj
 0001:00065430       __acrt_InitializeCriticalSectionEx 0000000140066430 f   libucrt:winapi_thunks.obj
 0001:00065438       __acrt_IsThreadAFiber      0000000140066438 f   libucrt:winapi_thunks.obj
 0001:00065440       __acrt_IsValidLocaleName   0000000140066440 f   libucrt:winapi_thunks.obj
 0001:000654c0       __acrt_LCIDToLocaleName    00000001400664c0 f   libucrt:winapi_thunks.obj
 0001:00065568       __acrt_LCMapStringEx       0000000140066568 f   libucrt:winapi_thunks.obj
 0001:00065698       __acrt_LocaleNameToLCID    0000000140066698 f   libucrt:winapi_thunks.obj
 0001:00065714       __acrt_LocateXStateFeature 0000000140066714 f   libucrt:winapi_thunks.obj
 0001:0006579c       __acrt_MessageBoxA         000000014006679c f   libucrt:winapi_thunks.obj
 0001:0006583c       __acrt_MessageBoxW         000000014006683c f   libucrt:winapi_thunks.obj
 0001:000658dc       __acrt_RoInitialize        00000001400668dc f   libucrt:winapi_thunks.obj
 0001:00065940       __acrt_RoUninitialize      0000000140066940 f   libucrt:winapi_thunks.obj
 0001:00065994       __acrt_RtlGenRandom        0000000140066994 f   libucrt:winapi_thunks.obj
 0001:00065a08       __acrt_SetThreadStackGuarantee 0000000140066a08 f   libucrt:winapi_thunks.obj
 0001:00065a70       __acrt_can_show_message_box 0000000140066a70 f   libucrt:winapi_thunks.obj
 0001:00065b18       __acrt_can_use_vista_locale_apis 0000000140066b18 f   libucrt:winapi_thunks.obj
 0001:00065b34       __acrt_can_use_xstate_apis 0000000140066b34 f   libucrt:winapi_thunks.obj
 0001:00065b88       __acrt_eagerly_load_locale_apis 0000000140066b88 f   libucrt:winapi_thunks.obj
 0001:00065d98       __acrt_get_parent_window   0000000140066d98 f   libucrt:winapi_thunks.obj
 0001:00065e54       __acrt_initialize_winapi_thunks 0000000140066e54 f   libucrt:winapi_thunks.obj
 0001:00065e90       __acrt_is_interactive      0000000140066e90 f   libucrt:winapi_thunks.obj
 0001:00065fb4       __acrt_tls2_supported      0000000140066fb4 f   libucrt:winapi_thunks.obj
 0001:00066008       __acrt_uninitialize_winapi_thunks 0000000140067008 f   libucrt:winapi_thunks.obj
 0001:0006605c       localeconv                 000000014006705c f   libucrt:localeconv.obj
 0001:000660a0       _recalloc_base             00000001400670a0 f   libucrt:recalloc.obj
 0001:00066140       _recalloc                  0000000140067140 f   libucrt:recalloc.obj
 0001:00066170       _get_heap_handle           0000000140067170 f   libucrt:heap_handle.obj
 0001:00066180       __acrt_initialize_heap     0000000140067180 f   libucrt:heap_handle.obj
 0001:000661b0       __acrt_uninitialize_heap   00000001400671b0 f   libucrt:heap_handle.obj
 0001:000661d0       __acrt_getheap             00000001400671d0 f   libucrt:heap_handle.obj
 0001:000661f4       __acrt_execute_initializers 00000001400671f4 f   libucrt:shared_initialization.obj
 0001:00066294       __acrt_execute_uninitializers 0000000140067294 f   libucrt:shared_initialization.obj
 0001:000662e0       _callnewh                  00000001400672e0 f   libucrt:new_handler.obj
 0001:00066320       __acrt_initialize_new_handler 0000000140067320 f   libucrt:new_handler.obj
 0001:00066330       _query_new_handler         0000000140067330 f   libucrt:new_handler.obj
 0001:00066370       _set_new_handler           0000000140067370 f   libucrt:new_handler.obj
 0001:000663d0       ?_set_new_handler@@YAP6AH_K@ZH@Z 00000001400673d0 f   libucrt:new_handler.obj
 0001:0006641c       ??$?B$$A6AH_K@Z@__crt_fast_encoded_nullptr_t@@QEBAP6AH_K@ZXZ 000000014006741c f i libucrt:new_handler.obj
 0001:00066428       ??$__crt_fast_decode_pointer@P6AH_K@Z@@YAP6AH_K@ZQ6AH0@Z@Z 0000000140067428 f i libucrt:new_handler.obj
 0001:00066444       ??$__crt_fast_encode_pointer@P6AH_K@Z@@YAP6AH_K@ZQ6AH0@Z@Z 0000000140067444 f i libucrt:new_handler.obj
 0001:0006646c       ?initialize@?$dual_state_global@P6AH_K@Z@__crt_state_management@@QEAAXQ6AH_K@Z@Z 000000014006746c f i libucrt:new_handler.obj
 0001:0006647c       ?value@?$dual_state_global@P6AH_K@Z@__crt_state_management@@QEAAAEAP6AH_K@ZXZ 000000014006747c f i libucrt:new_handler.obj
 0001:00066480       ??$?B$$A6AXH@Z@__crt_fast_encoded_nullptr_t@@QEBAP6AXH@ZXZ 0000000140067480 f i libucrt:signal.obj
 0001:00066518       ??$__crt_fast_decode_pointer@P6AXH@Z@@YAP6AXH@ZQ6AXH@Z@Z 0000000140067518 f i libucrt:signal.obj
 0001:00066534       ??$__crt_fast_encode_pointer@P6AXH@Z@@YAP6AXH@ZQ6AXH@Z@Z 0000000140067534 f i libucrt:signal.obj
 0001:000666a8       ?initialize@?$dual_state_global@P6AXH@Z@__crt_state_management@@QEAAXQ6AXH@Z@Z 00000001400676a8 f i libucrt:signal.obj
 0001:00066754       ?value@?$dual_state_global@P6AXH@Z@__crt_state_management@@QEAAAEAP6AXH@ZXZ 0000000140067754 f i libucrt:signal.obj
 0001:00066758       __acrt_get_sigabrt_handler 0000000140067758 f   libucrt:signal.obj
 0001:00066794       __acrt_initialize_signal_handlers 0000000140067794 f   libucrt:signal.obj
 0001:000667b8       __fpecode                  00000001400677b8 f   libucrt:signal.obj
 0001:000667d0       __pxcptinfoptrs            00000001400677d0 f   libucrt:signal.obj
 0001:000667e8       raise                      00000001400677e8 f   libucrt:signal.obj
 0001:00066adc       signal                     0000000140067adc f   libucrt:signal.obj
 0001:0006705c       ??0__crt_stdio_stream@@QEAA@QEAU__crt_stdio_stream_data@@@Z 000000014006805c f i libucrt:fflush.obj
 0001:00067228       ?__acrt_stdio_reset_buffer@@YAXV__crt_stdio_stream@@@Z 0000000140068228 f i libucrt:fflush.obj
 0001:00067350       ?has_all_of@__crt_stdio_stream@@QEBA_NJ@Z 0000000140068350 f i libucrt:fflush.obj
 0001:000673a8       __acrt_stdio_flush_nolock  00000001400683a8 f   libucrt:fflush.obj
 0001:00067458       _fflush_nolock             0000000140068458 f   libucrt:fflush.obj
 0001:00067560       _flushall                  0000000140068560 f   libucrt:fflush.obj
 0001:00067568       fflush                     0000000140068568 f   libucrt:fflush.obj
 0001:000675e8       ?has_temporary_buffer@__crt_stdio_stream@@QEBA_NXZ 00000001400685e8 f i libucrt:_sftbuf.obj
 0001:000675f8       __acrt_should_use_temporary_buffer 00000001400685f8 f   libucrt:_sftbuf.obj
 0001:00067654       __acrt_stdio_begin_temporary_buffering_nolock 0000000140068654 f   libucrt:_sftbuf.obj
 0001:0006774c       __acrt_stdio_end_temporary_buffering_nolock 000000014006874c f   libucrt:_sftbuf.obj
 0001:00067798       ?__acrt_fp_classify@@YA?AW4__acrt_fp_class@@AEBN@Z 0000000140068798 f i libucrt:cvt.obj
 0001:0006780c       ?__acrt_fp_is_negative@@YA_NAEBN@Z 000000014006880c f i libucrt:cvt.obj
 0001:00068784       ?strrchr@@YAPEADQEADH@Z    0000000140069784 f i libucrt:cvt.obj
 0001:0006878c       __acrt_fp_format           000000014006978c f   libucrt:cvt.obj
 0001:00068b2c       ?value_or@?$cached@H@__crt_cached_ptd_host@@QEBAHH@Z 0000000140069b2c f i libucrt:wctomb.obj
 0001:00068b3c       _wctomb_internal           0000000140069b3c f   libucrt:wctomb.obj
 0001:00068d58       _wctomb_l                  0000000140069d58 f   libucrt:wctomb.obj
 0001:00068e80       _wctomb_s_l                0000000140069e80 f   libucrt:wctomb.obj
 0001:00068f58       wctomb                     0000000140069f58 f   libucrt:wctomb.obj
 0001:00069050       wctomb_s                   000000014006a050 f   libucrt:wctomb.obj
 0001:00069118       _mbtowc_internal           000000014006a118 f   libucrt:mbtowc.obj
 0001:000692f0       _mbtowc_l                  000000014006a2f0 f   libucrt:mbtowc.obj
 0001:000693bc       mbtowc                     000000014006a3bc f   libucrt:mbtowc.obj
 0001:0006947c       ?__mblen_utf8@__crt_mbstring@@YAHPEBD@Z 000000014006a47c f   libucrt:mbrtoc32.obj
 0001:000694c4       ?__mbrtoc32_utf8@__crt_mbstring@@YA_KPEA_UPEBD_KPEAU_Mbstatet@@AEAV__crt_cached_ptd_host@@@Z 000000014006a4c4 f   libucrt:mbrtoc32.obj
 0001:000696f0       mbrtoc32                   000000014006a6f0 f   libucrt:mbrtoc32.obj
 0001:000697bc       ?__c16rtomb_utf8@__crt_mbstring@@YA_KPEAD_SPEAU_Mbstatet@@AEAV__crt_cached_ptd_host@@@Z 000000014006a7bc f   libucrt:c16rtomb.obj
 0001:000698f0       c16rtomb                   000000014006a8f0 f   libucrt:c16rtomb.obj
 0001:000699e0       ?__mbrtowc_utf8@__crt_mbstring@@YA_KPEA_WPEBD_KPEAU_Mbstatet@@AEAV__crt_cached_ptd_host@@@Z 000000014006a9e0 f   libucrt:mbrtowc.obj
 0001:00069a38       ?__mbsrtowcs_utf8@__crt_mbstring@@YA_KPEA_WPEAPEBD_KPEAU_Mbstatet@@AEAV__crt_cached_ptd_host@@@Z 000000014006aa38 f   libucrt:mbrtowc.obj
 0001:0006a248       btowc                      000000014006b248 f   libucrt:mbrtowc.obj
 0001:0006a358       mbrlen                     000000014006b358 f   libucrt:mbrtowc.obj
 0001:0006a450       mbrtowc                    000000014006b450 f   libucrt:mbrtowc.obj
 0001:0006a570       mbsrtowcs                  000000014006b570 f   libucrt:mbrtowc.obj
 0001:0006a63c       mbsrtowcs_s                000000014006b63c f   libucrt:mbrtowc.obj
 0001:0006a7f4       _get_printf_count_output   000000014006b7f4 f   libucrt:printf_count_output.obj
 0001:0006a814       _set_printf_count_output   000000014006b814 f   libucrt:printf_count_output.obj
 0001:0006a908       _fputwc_nolock             000000014006b908 f   libucrt:fputwc.obj
 0001:0006a9c8       _fputwc_nolock_internal    000000014006b9c8 f   libucrt:fputwc.obj
 0001:0006abc0       _fputwchar                 000000014006bbc0 f   libucrt:fputwc.obj
 0001:0006abec       _putwc_nolock              000000014006bbec f   libucrt:fputwc.obj
 0001:0006abf4       fputwc                     000000014006bbf4 f   libucrt:fputwc.obj
 0001:0006acb4       putwc                      000000014006bcb4 f   libucrt:fputwc.obj
 0001:0006acbc       putwchar                   000000014006bcbc f   libucrt:fputwc.obj
 0001:0006acc4       _iswctype_l                000000014006bcc4 f   libucrt:iswctype.obj
 0001:0006accc       iswctype                   000000014006bccc f   libucrt:iswctype.obj
 0001:0006ad54       ?is_in_use@__crt_stdio_stream@@QEBA_NXZ 000000014006bd54 f i libucrt:closeall.obj
 0001:0006ad64       _fcloseall                 000000014006bd64 f   libucrt:closeall.obj
 0001:0006ae44       ?has_crt_buffer@__crt_stdio_stream@@QEBA_NXZ 000000014006be44 f i libucrt:_freebuf.obj
 0001:0006ae54       __acrt_stdio_free_buffer_nolock 000000014006be54 f   libucrt:_freebuf.obj
 0001:0006b448       _lseek                     000000014006c448 f   libucrt:lseek.obj
 0001:0006b508       _lseek_internal            000000014006c508 f   libucrt:lseek.obj
 0001:0006b510       _lseek_nolock              000000014006c510 f   libucrt:lseek.obj
 0001:0006b5d0       _lseek_nolock_internal     000000014006c5d0 f   libucrt:lseek.obj
 0001:0006b5d8       _lseeki64                  000000014006c5d8 f   libucrt:lseek.obj
 0001:0006b698       _lseeki64_internal         000000014006c698 f   libucrt:lseek.obj
 0001:0006b6a0       _lseeki64_nolock           000000014006c6a0 f   libucrt:lseek.obj
 0001:0006b760       _lseeki64_nolock_internal  000000014006c760 f   libucrt:lseek.obj
 0001:0006c3b4       _utf8_no_of_trailbytes     000000014006d3b4 f i libucrt:write.obj
 0001:0006c3c8       _write                     000000014006d3c8 f   libucrt:write.obj
 0001:0006c488       _write_internal            000000014006d488 f   libucrt:write.obj
 0001:0006c5ec       _write_nolock              000000014006d5ec f   libucrt:write.obj
 0001:0006c9e8       __acrt_stdio_allocate_buffer_nolock 000000014006d9e8 f   libucrt:_getbuf.obj
 0001:0006ca70       __acrt_OutputDebugStringA  000000014006da70 f   libucrt:outputdebugstringa.obj
 0001:0006cc70       qsort                      000000014006dc70 f   libucrt:qsort.obj
 0001:0006d250       strncpy_s                  000000014006e250 f   libucrt:strncpy_s.obj
 0001:0006d4b0       strpbrk                    000000014006e4b0 f   libucrt:strpbrk.obj
 0001:0006d958       _mbsdec                    000000014006e958 f   libucrt:mbsdec.obj
 0001:0006d964       _mbsdec_l                  000000014006e964 f   libucrt:mbsdec.obj
 0001:0006da20       ??B?$__crt_scoped_stack_ptr@_W@@QEBA_NXZ 000000014006ea20 f i libucrt:lcmapstringa.obj
 0001:0006de2c       __acrt_LCMapStringA        000000014006ee2c f   libucrt:lcmapstringa.obj
 0001:0006df10       _wcsnicoll                 000000014006ef10 f   libucrt:wcsnicol.obj
 0001:0006e110       _wcsnicoll_l               000000014006f110 f   libucrt:wcsnicol.obj
 0001:0006e2f0       _strnicoll                 000000014006f2f0 f   libucrt:strnicol.obj
 0001:0006e500       _strnicoll_l               000000014006f500 f   libucrt:strnicol.obj
 0001:0006e6e4       __acrt_SetEnvironmentVariableA 000000014006f6e4 f   libucrt:setenvironmentvariablea.obj
 0001:0006eac8       __acrt_GetLocaleInfoA      000000014006fac8 f   libucrt:getlocaleinfoa.obj
 0001:0006f31c       _i64toa                    000000014007031c f   libucrt:xtoa.obj
 0001:0006f35c       _i64toa_s                  000000014007035c f   libucrt:xtoa.obj
 0001:0006f388       _i64tow                    0000000140070388 f   libucrt:xtoa.obj
 0001:0006f3c8       _i64tow_s                  00000001400703c8 f   libucrt:xtoa.obj
 0001:0006f3f4       _itoa                      00000001400703f4 f   libucrt:xtoa.obj
 0001:0006f430       _itoa_s                    0000000140070430 f   libucrt:xtoa.obj
 0001:0006f458       _itow                      0000000140070458 f   libucrt:xtoa.obj
 0001:0006f494       _itow_s                    0000000140070494 f   libucrt:xtoa.obj
 0001:0006f4bc       _ltoa                      00000001400704bc f   libucrt:xtoa.obj
 0001:0006f4f8       _ltoa_s                    00000001400704f8 f   libucrt:xtoa.obj
 0001:0006f520       _ltow                      0000000140070520 f   libucrt:xtoa.obj
 0001:0006f55c       _ltow_s                    000000014007055c f   libucrt:xtoa.obj
 0001:0006f584       _ui64toa                   0000000140070584 f   libucrt:xtoa.obj
 0001:0006f5b0       _ui64toa_s                 00000001400705b0 f   libucrt:xtoa.obj
 0001:0006f5c8       _ui64tow                   00000001400705c8 f   libucrt:xtoa.obj
 0001:0006f5f4       _ui64tow_s                 00000001400705f4 f   libucrt:xtoa.obj
 0001:0006f60c       _ultoa                     000000014007060c f   libucrt:xtoa.obj
 0001:0006f638       _ultoa_s                   0000000140070638 f   libucrt:xtoa.obj
 0001:0006f650       _ultow                     0000000140070650 f   libucrt:xtoa.obj
 0001:0006f67c       _ultow_s                   000000014007067c f   libucrt:xtoa.obj
 0001:0006f6e0       __ascii_wcsicmp            00000001400706e0 f   libucrt:wcsicmp.obj
 0001:0006f750       _towlower_fast_internal    0000000140070750 f i libucrt:wcsicmp.obj
 0001:0006f780       _towlower_internal         0000000140070780 f i libucrt:wcsicmp.obj
 0001:0006f7d0       _wcsicmp                   00000001400707d0 f   libucrt:wcsicmp.obj
 0001:0006f800       _wcsicmp_l                 0000000140070800 f   libucrt:wcsicmp.obj
 0001:0006fa80       __ascii_wcsnicmp           0000000140070a80 f   libucrt:wcsnicmp.obj
 0001:0006fb00       _wcsnicmp                  0000000140070b00 f   libucrt:wcsnicmp.obj
 0001:0006fb30       _wcsnicmp_l                0000000140070b30 f   libucrt:wcsnicmp.obj
 0001:0006fd90       wcscmp                     0000000140070d90 f   libucrt:wcscmpc.obj
 0001:0006fedc       __acrt_DownlevelLCIDToLocaleName 0000000140070edc f   libucrt:lcidtoname_downlevel.obj
 0001:0006fffc       __acrt_DownlevelLocaleNameToLCID 0000000140070ffc f   libucrt:lcidtoname_downlevel.obj
 0001:000700d0       _msize_base                00000001400710d0 f   libucrt:msize.obj
 0001:00070110       _msize                     0000000140071110 f   libucrt:msize.obj
 0001:00070130       _realloc_base              0000000140071130 f   libucrt:realloc_base.obj
 0001:0007035c       _commit                    000000014007135c f   libucrt:commit.obj
 0001:00070414       _isatty                    0000000140071414 f   libucrt:isatty.obj
 0001:000705ac       __acrt_fp_strflt_to_string 00000001400715ac f   libucrt:_fptostr.obj
 0001:00071cc0       ??0big_integer@__crt_strtox@@QEAA@AEBU01@@Z 0000000140072cc0 f i libucrt:cfout.obj
 0001:00071d00       ??0big_integer@__crt_strtox@@QEAA@XZ 0000000140072d00 f i libucrt:cfout.obj
 0001:00071de0       ??4big_integer@__crt_strtox@@QEAAAEAU01@AEBU01@@Z 0000000140072de0 f i libucrt:cfout.obj
 0001:00071e20       ??8__crt_strtox@@YA_NAEBUbig_integer@0@0@Z 0000000140072e20 f i libucrt:cfout.obj
 0001:00071e60       ??9__crt_strtox@@YA_NAEBUbig_integer@0@0@Z 0000000140072e60 f i libucrt:cfout.obj
 0001:00071eb0       ?add_carry@__crt_strtox@@YAIAEAIII@Z 0000000140072eb0 f i libucrt:cfout.obj
 0001:00071ed0       ?add_multiply_carry@__crt_strtox@@YAIAEAIIII@Z 0000000140072ed0 f i libucrt:cfout.obj
 0001:00071f00       ?bit_scan_reverse@__crt_strtox@@YAII@Z 0000000140072f00 f i libucrt:cfout.obj
 0001:00071f20       ?count_sequential_high_zeroes@__crt_strtox@@YAII@Z 0000000140072f20 f i libucrt:cfout.obj
 0001:00071f50       ?divide@__crt_strtox@@YA_KAEAUbig_integer@1@AEBU21@@Z 0000000140072f50 f i libucrt:cfout.obj
 0001:00072500       ?is_zero@__crt_strtox@@YA_NAEBUbig_integer@1@@Z 0000000140073500 f i libucrt:cfout.obj
 0001:00072510       ?make_big_integer@__crt_strtox@@YA?AUbig_integer@1@_K@Z 0000000140073510 f i libucrt:cfout.obj
 0001:00072530       ?make_big_integer_power_of_two@__crt_strtox@@YA?AUbig_integer@1@I@Z 0000000140073530 f i libucrt:cfout.obj
 0001:000725b0       ?multiply@__crt_strtox@@YA_NAEAUbig_integer@1@AEBU21@@Z 00000001400735b0 f i libucrt:cfout.obj
 0001:00072a50       ?multiply@__crt_strtox@@YA_NAEAUbig_integer@1@I@Z 0000000140073a50 f i libucrt:cfout.obj
 0001:00072b80       ?multiply_64_32@__crt_strtox@@YA_K_KI@Z 0000000140073b80 f i libucrt:cfout.obj
 0001:00072b90       ?multiply_by_power_of_ten@__crt_strtox@@YA_NAEAUbig_integer@1@I@Z 0000000140073b90 f i libucrt:cfout.obj
 0001:000731c0       ?multiply_core@__crt_strtox@@YAIQEAIII@Z 00000001400741c0 f i libucrt:cfout.obj
 0001:00073220       ?shift_left@__crt_strtox@@YA_NAEAUbig_integer@1@I@Z 0000000140074220 f i libucrt:cfout.obj
 0001:000733fc       __acrt_fltout              00000001400743fc f   libucrt:cfout.obj
 0001:00074bd0       __fpe_flt_rounds           0000000140075bd0 f   libucrt:fegetround.obj
 0001:00074c40       fegetround                 0000000140075c40 f   libucrt:fegetround.obj
 0001:00074c5c       ?__c32rtomb_utf8@__crt_mbstring@@YA_KPEAD_UPEAU_Mbstatet@@AEAV__crt_cached_ptd_host@@@Z 0000000140075c5c f   libucrt:c32rtomb.obj
 0001:00074d28       c32rtomb                   0000000140075d28 f   libucrt:c32rtomb.obj
 0001:00074de8       ?reset_and_return@__crt_mbstring@@YA_K_KPEAU_Mbstatet@@@Z 0000000140075de8 f   libucrt:common_utf8.obj
 0001:00074df4       ?return_illegal_sequence@__crt_mbstring@@YA_KPEAU_Mbstatet@@AEAV__crt_cached_ptd_host@@@Z 0000000140075df4 f   libucrt:common_utf8.obj
 0001:00074e10       __acrt_GetStringTypeW      0000000140075e10 f   libucrt:getstringtypew.obj
 0001:00074f80       _fclose_nolock             0000000140075f80 f   libucrt:fclose.obj
 0001:00075040       fclose                     0000000140076040 f   libucrt:fclose.obj
 0001:000751c0       _putwch                    00000001400761c0 f   libucrt:putwch.obj
 0001:0007520c       _putwch_nolock             000000014007620c f   libucrt:putwch.obj
 0001:0007525c       _putwch_nolock_internal    000000014007625c f   libucrt:putwch.obj
 0001:00075c1c       _read                      0000000140076c1c f   libucrt:read.obj
 0001:00075d84       _read_nolock               0000000140076d84 f   libucrt:read.obj
 0001:000766dc       _mbstowcs_l                00000001400776dc f   libucrt:mbstowcs.obj
 0001:000767ac       _mbstowcs_s_l              00000001400777ac f   libucrt:mbstowcs.obj
 0001:00076890       mbstowcs                   0000000140077890 f   libucrt:mbstowcs.obj
 0001:00076950       mbstowcs_s                 0000000140077950 f   libucrt:mbstowcs.obj
 0001:00076a24       _guard_check_icall         0000000140077a24 f i libucrt:checkcfg.obj
 0001:00076a40       __strncnt                  0000000140077a40 f   libucrt:strncnt.obj
 0001:00076a5c       __acrt_CompareStringW      0000000140077a5c f   libucrt:comparestringw.obj
 0001:00076b90       __ascii_strnicmp           0000000140077b90 f   libucrt:strnicmp.obj
 0001:00076c10       _strnicmp                  0000000140077c10 f   libucrt:strnicmp.obj
 0001:00076cc0       _strnicmp_l                0000000140077cc0 f   libucrt:strnicmp.obj
 0001:000772e4       __acrt_CompareStringA      00000001400782e4 f   libucrt:comparestringa.obj
 0001:00077390       _towlower_l                0000000140078390 f   libucrt:towlower.obj
 0001:000774c8       towlower                   00000001400784c8 f   libucrt:towlower.obj
 0001:000774d0       _controlfp_s               00000001400784d0 f   libucrt:contrlfp.obj
 0001:00077560       fegetenv                   0000000140078560 f   libucrt:fegetenv.obj
 0001:00077590       fesetenv                   0000000140078590 f   libucrt:fesetenv.obj
 0001:00077610       feholdexcept               0000000140078610 f   libucrt:feholdexcept.obj
 0001:00077680       ceil                       0000000140078680 f   libucrt:ceil.obj
 0001:00077780       log10                      0000000140078780 f   libucrt:log10.obj
 0001:00077ea0       ??$__acrt_fenv_shift_bits@W4__acrt_fenv_abstract_control@@@@YA?AW4__acrt_fenv_abstract_control@@W40@0I@Z 0000000140078ea0 f i libucrt:_fenvutils.obj
 0001:00077eb0       ??$__acrt_fenv_shift_bits@W4__acrt_fenv_abstract_status@@@@YA?AW4__acrt_fenv_abstract_status@@W40@0I@Z 0000000140078eb0 f i libucrt:_fenvutils.obj
 0001:00077ec0       ??$__acrt_fenv_translate_bit@W4__acrt_fenv_abstract_control@@W4__acrt_fenv_machine_sse_control@@@@YA?AW4__acrt_fenv_abstract_control@@W4__acrt_fenv_machine_sse_control@@0W40@1@Z 0000000140078ec0 f i libucrt:_fenvutils.obj
 0001:00077ed0       ??$__acrt_fenv_translate_bit@W4__acrt_fenv_abstract_status@@W4__acrt_fenv_machine_sse_status@@@@YA?AW4__acrt_fenv_abstract_status@@W4__acrt_fenv_machine_sse_status@@0W40@1@Z 0000000140078ed0 f i libucrt:_fenvutils.obj
 0001:00077ee0       ??$__acrt_fenv_translate_bit@W4__acrt_fenv_machine_sse_control@@W4__acrt_fenv_abstract_control@@@@YA?AW4__acrt_fenv_machine_sse_control@@W4__acrt_fenv_abstract_control@@0W40@1@Z 0000000140078ee0 f i libucrt:_fenvutils.obj
 0001:00077ef0       ??$__acrt_fenv_translate_bit@W4__acrt_fenv_machine_sse_status@@W4__acrt_fenv_abstract_status@@@@YA?AW4__acrt_fenv_machine_sse_status@@W4__acrt_fenv_abstract_status@@0W40@1@Z 0000000140078ef0 f i libucrt:_fenvutils.obj
 0001:00077f00       ??$__acrt_fenv_unshift_bits@W4__acrt_fenv_abstract_control@@@@YA?AW4__acrt_fenv_abstract_control@@W40@0I@Z 0000000140078f00 f i libucrt:_fenvutils.obj
 0001:00077f10       ??$__acrt_fenv_unshift_bits@W4__acrt_fenv_abstract_status@@@@YA?AW4__acrt_fenv_abstract_status@@W40@0I@Z 0000000140078f10 f i libucrt:_fenvutils.obj
 0001:00078190       ??I@YA?AW4__acrt_fenv_abstract_control@@W40@0@Z 0000000140079190 f i libucrt:_fenvutils.obj
 0001:000781a0       ??I@YA?AW4__acrt_fenv_abstract_status@@W40@0@Z 00000001400791a0 f i libucrt:_fenvutils.obj
 0001:000781b0       ??I@YA?AW4__acrt_fenv_machine_sse_control@@W40@0@Z 00000001400791b0 f i libucrt:_fenvutils.obj
 0001:000781c0       ??I@YA?AW4__acrt_fenv_machine_sse_status@@W40@0@Z 00000001400791c0 f i libucrt:_fenvutils.obj
 0001:000781d0       ??U@YA?AW4__acrt_fenv_abstract_control@@W40@0@Z 00000001400791d0 f i libucrt:_fenvutils.obj
 0001:000781e0       ??U@YA?AW4__acrt_fenv_abstract_status@@W40@0@Z 00000001400791e0 f i libucrt:_fenvutils.obj
 0001:000781f0       ??U@YA?AW4__acrt_fenv_machine_sse_control@@W40@0@Z 00000001400791f0 f i libucrt:_fenvutils.obj
 0001:00078200       ??_5@YAAEAW4__acrt_fenv_abstract_control@@AEAW40@W40@@Z 0000000140079200 f i libucrt:_fenvutils.obj
 0001:00078210       ??_5@YAAEAW4__acrt_fenv_abstract_status@@AEAW40@W40@@Z 0000000140079210 f i libucrt:_fenvutils.obj
 0001:00078220       ??_5@YAAEAW4__acrt_fenv_machine_sse_control@@AEAW40@W40@@Z 0000000140079220 f i libucrt:_fenvutils.obj
 0001:00078230       ??_5@YAAEAW4__acrt_fenv_machine_sse_status@@AEAW40@W40@@Z 0000000140079230 f i libucrt:_fenvutils.obj
 0001:00078240       ?__acrt_fenv_shift_abstract_sse_control@@YA?AW4__acrt_fenv_abstract_control@@W41@@Z 0000000140079240 f i libucrt:_fenvutils.obj
 0001:00078260       ?__acrt_fenv_shift_abstract_sse_status@@YA?AW4__acrt_fenv_abstract_status@@W41@@Z 0000000140079260 f i libucrt:_fenvutils.obj
 0001:00078270       ?__acrt_fenv_unshift_abstract_sse_control@@YA?AW4__acrt_fenv_abstract_control@@W41@@Z 0000000140079270 f i libucrt:_fenvutils.obj
 0001:00078290       ?__acrt_fenv_unshift_abstract_sse_status@@YA?AW4__acrt_fenv_abstract_status@@W41@@Z 0000000140079290 f i libucrt:_fenvutils.obj
 0001:00078640       __acrt_fenv_expand_round_control 0000000140079640 f   libucrt:_fenvutils.obj
 0001:00078660       __acrt_fenv_get_common_round_control 0000000140079660 f   libucrt:_fenvutils.obj
 0001:00078670       __acrt_fenv_get_control    0000000140079670 f   libucrt:_fenvutils.obj
 0001:00078780       __acrt_fenv_get_fp_status_word_from_exception_mask 0000000140079780 f   libucrt:_fenvutils.obj
 0001:00078790       __acrt_fenv_get_status     0000000140079790 f   libucrt:_fenvutils.obj
 0001:00078800       __acrt_fenv_set_control    0000000140079800 f   libucrt:_fenvutils.obj
 0001:00078980       __acrt_fenv_set_status     0000000140079980 f   libucrt:_fenvutils.obj
 0001:00078c04       _close                     0000000140079c04 f   libucrt:close.obj
 0001:00078cc4       _close_internal            0000000140079cc4 f   libucrt:close.obj
 0001:00078db8       _close_nolock              0000000140079db8 f   libucrt:close.obj
 0001:00078e78       _close_nolock_internal     0000000140079e78 f   libucrt:close.obj
 0001:00078f78       ??$?RU__crt_stdio_stream_data@@@__crt_internal_free_policy@@QEBAXQEBU__crt_stdio_stream_data@@@Z 0000000140079f78 f i libucrt:stream.obj
 0001:00078f84       ??0?$__crt_unique_heap_ptr@U__crt_stdio_stream_data@@U__crt_internal_free_policy@@@@QEAA@QEAU__crt_stdio_stream_data@@@Z 0000000140079f84 f i libucrt:stream.obj
 0001:00078f8c       ??0__crt_stdio_stream@@QEAA@XZ 0000000140079f8c f i libucrt:stream.obj
 0001:00078f98       ??1?$__crt_unique_heap_ptr@U__crt_stdio_stream_data@@U__crt_internal_free_policy@@@@QEAA@XZ 0000000140079f98 f i libucrt:stream.obj
 0001:00078fbc       ?__acrt_stdio_allocate_stream@@YA?AV__crt_stdio_stream@@XZ 0000000140079fbc f   libucrt:stream.obj
 0001:00079028       ?__acrt_stdio_free_stream@@YAXV__crt_stdio_stream@@@Z 000000014007a028 f   libucrt:stream.obj
 0001:0007904c       ?deallocate@__crt_stdio_stream@@QEAAXXZ 000000014007a04c f i libucrt:stream.obj
 0001:00079058       ?detach@?$__crt_unique_heap_ptr@U__crt_stdio_stream_data@@U__crt_internal_free_policy@@@@QEAAPEAU__crt_stdio_stream_data@@XZ 000000014007a058 f i libucrt:stream.obj
 0001:00079188       ?lock@__crt_stdio_stream@@QEBAXXZ 000000014007a188 f i libucrt:stream.obj
 0001:00079194       ?release@?$__crt_unique_heap_ptr@U__crt_stdio_stream_data@@U__crt_internal_free_policy@@@@QEAAXXZ 000000014007a194 f i libucrt:stream.obj
 0001:000791b8       ?try_allocate@__crt_stdio_stream@@QEAA_NXZ 000000014007a1b8 f i libucrt:stream.obj
 0001:000791e0       ?unlock@__crt_stdio_stream@@QEBAXXZ 000000014007a1e0 f i libucrt:stream.obj
 0001:00079358       __dcrt_lowio_ensure_console_output_initialized 000000014007a358 f   libucrt:initcon.obj
 0001:000793c0       __dcrt_terminate_console_output 000000014007a3c0 f   libucrt:initcon.obj
 0001:000793e4       __dcrt_write_console       000000014007a3e4 f   libucrt:initcon.obj
 0001:000794d4       __acrt_LCMapStringW        000000014007a4d4 f   libucrt:lcmapstringw.obj
 0001:000796e0       _clearfp                   000000014007a6e0 f   libucrt:ieee.obj
 0001:00079760       _control87                 000000014007a760 f   libucrt:ieee.obj
 0001:00079770       _controlfp                 000000014007a770 f   libucrt:ieee.obj
 0001:00079780       _fpreset                   000000014007a780 f   libucrt:ieee.obj
 0001:00079880       _set_controlfp             000000014007a880 f   libucrt:ieee.obj
 0001:000798c0       _statusfp                  000000014007a8c0 f   libucrt:ieee.obj
 0001:00079e40       _handle_error              000000014007ae40 f   libucrt:libm_error.obj
 0001:00079fc0       _handle_errorf             000000014007afc0 f   libucrt:libm_error.obj
 0001:0007a150       _handle_nan                000000014007b150 f   libucrt:libm_error.obj
 0001:0007a170       _handle_nanf               000000014007b170 f   libucrt:libm_error.obj
 0001:0007a180       round_sse41                000000014007b180 f   libucrt:floorceil_sse41.obj
 0001:0007a1b0       roundf_sse41               000000014007b1b0 f   libucrt:floorceil_sse41.obj
 0001:0007a1e0       floor_sse41                000000014007b1e0 f   libucrt:floorceil_sse41.obj
 0001:0007a1f0       floorf_sse41               000000014007b1f0 f   libucrt:floorceil_sse41.obj
 0001:0007a200       ceil_sse41                 000000014007b200 f   libucrt:floorceil_sse41.obj
 0001:0007a210       ceilf_sse41                000000014007b210 f   libucrt:floorceil_sse41.obj
 0001:0007a220       trunc_sse41                000000014007b220 f   libucrt:floorceil_sse41.obj
 0001:0007a230       truncl_sse41               000000014007b230 f   libucrt:floorceil_sse41.obj
 0001:0007a240       truncf_sse41               000000014007b240 f   libucrt:floorceil_sse41.obj
 0001:0007a250       nearbyint_sse41            000000014007b250 f   libucrt:floorceil_sse41.obj
 0001:0007a260       nearbyintl_sse41           000000014007b260 f   libucrt:floorceil_sse41.obj
 0001:0007a270       nearbyintf_sse41           000000014007b270 f   libucrt:floorceil_sse41.obj
 0001:0007a280       rint_sse41                 000000014007b280 f   libucrt:floorceil_sse41.obj
 0001:0007a290       rintl_sse41                000000014007b290 f   libucrt:floorceil_sse41.obj
 0001:0007a2a0       rintf_sse41                000000014007b2a0 f   libucrt:floorceil_sse41.obj
 0001:0007a2b0       __acrt_initialize_fma3     000000014007b2b0 f   libucrt:fma3_available.obj
 0001:0007a390       _get_FMA3_enable           000000014007b390 f   libucrt:fma3_available.obj
 0001:0007a3a0       _set_FMA3_enable           000000014007b3a0 f   libucrt:fma3_available.obj
 0001:0007a3e0       _log10_special             000000014007b3e0 f   libucrt:log_special.obj
 0001:0007a410       _log10f_special            000000014007b410 f   libucrt:log_special.obj
 0001:0007a440       _log_special               000000014007b440 f   libucrt:log_special.obj
 0001:0007a530       _logf_special              000000014007b530 f   libucrt:log_special.obj
 0001:0007a630       _clrfp                     000000014007b630 f   libucrt:fpctrl.obj
 0001:0007a660       _ctrlfp                    000000014007b660 f   libucrt:fpctrl.obj
 0001:0007a700       _get_fpcsr                 000000014007b700 f   libucrt:fpctrl.obj
 0001:0007a710       _get_fpsr                  000000014007b710 f i libucrt:fpctrl.obj
 0001:0007a720       _set_fpcsr                 000000014007b720 f   libucrt:fpctrl.obj
 0001:0007a730       _set_fpsr                  000000014007b730 f i libucrt:fpctrl.obj
 0001:0007a740       _set_statfp                000000014007b740 f   libucrt:fpctrl.obj
 0001:0007a770       _statfp                    000000014007b770 f   libucrt:fpctrl.obj
 0001:0007a850       ?should_round_up@__crt_strtox@@YA_N_N000@Z 000000014007b850 f i libucrt:fpexcept.obj
 0001:0007a8f0       _errcode                   000000014007b8f0 f   libucrt:fpexcept.obj
 0001:0007a940       _except1                   000000014007b940 f   libucrt:fpexcept.obj
 0001:0007ab20       _except2                   000000014007bb20 f   libucrt:fpexcept.obj
 0001:0007ad30       _fperrraise                000000014007bd30 f   libucrt:fpexcept.obj
 0001:0007ae70       _handle_exc                000000014007be70 f   libucrt:fpexcept.obj
 0001:0007b2c0       _handle_qnan2              000000014007c2c0 f   libucrt:fpexcept.obj
 0001:0007b2d0       _raise_exc                 000000014007c2d0 f   libucrt:fpexcept.obj
 0001:0007b310       _raise_exc_ex              000000014007c310 f   libucrt:fpexcept.obj
 0001:0007b6e0       _raise_excf                000000014007c6e0 f   libucrt:fpexcept.obj
 0001:0007b720       _set_errno_from_matherr    000000014007c720 f   libucrt:fpexcept.obj
 0001:0007b760       _umatherr                  000000014007c760 f   libucrt:fpexcept.obj
 0001:0007b910       ??_4@YAAEAW4__acrt_fenv_abstract_status@@AEAW40@W40@@Z 000000014007c910 f i libucrt:fegetexceptflag.obj
 0001:0007b920       fegetexceptflag            000000014007c920 f   libucrt:fegetexceptflag.obj
 0001:0007b980       ??S@YA?AW4__acrt_fenv_abstract_status@@W40@@Z 000000014007c980 f i libucrt:fesetexceptflag.obj
 0001:0007b990       fesetexceptflag            000000014007c990 f   libucrt:fesetexceptflag.obj
 0001:0007ba30       _decomp                    000000014007ca30 f i libucrt:frexp.obj
 0001:0007bb70       _set_exp                   000000014007cb70 f i libucrt:frexp.obj
 0001:0007bbb0       _sptype                    000000014007cbb0 f i libucrt:frexp.obj
 0001:0007bc50       frexp                      000000014007cc50 f   libucrt:frexp.obj
 0001:0007bea0       fetestexcept               000000014007cea0 f   libucrt:fetestexcept.obj
 0001:0007bed0       _FindPESection             000000014007ced0 f   LIBCMT:pesect.obj
 0001:0007bf30       _IsNonwritableInCurrentImage 000000014007cf30 f   LIBCMT:pesect.obj
 0001:0007bf90       _ValidateImageBase         000000014007cf90 f   LIBCMT:pesect.obj
 0001:0007bfc8       ??1type_info@@UEAA@XZ      000000014007cfc8 f   LIBCMT:std_type_info_static.obj
 0001:0007bfd8       ??_Etype_info@@UEAAPEAXI@Z 000000014007cfd8 f i LIBCMT:std_type_info_static.obj
 0001:0007bfd8       ??_Gtype_info@@UEAAPEAXI@Z 000000014007cfd8 f i LIBCMT:std_type_info_static.obj
 0001:0007c010       __GSHandlerCheck           000000014007d010 f   LIBCMT:gshandler.obj
 0001:0007c034       __GSHandlerCheckCommon     000000014007d034 f   LIBCMT:gshandler.obj
 0001:0007c0c0       __security_check_cookie    000000014007d0c0 f   LIBCMT:amdsecgs.obj
 0001:0007c0ec       ??3@YAXPEAX_K@Z            000000014007d0ec f   LIBCMT:delete_scalar_size.obj
 0001:0007c0f4       __GSHandlerCheck_SEH       000000014007d0f4 f   LIBCMT:gshandlerseh.obj
 0001:0007c19c       __raise_securityfailure    000000014007d19c f   LIBCMT:gs_report.obj
 0001:0007c1e0       __report_gsfailure         000000014007d1e0 f   LIBCMT:gs_report.obj
 0001:0007c2e8       __report_rangecheckfailure 000000014007d2e8 f   LIBCMT:gs_report.obj
 0001:0007c304       __report_securityfailure   000000014007d304 f   LIBCMT:gs_report.obj
 0001:0007c3c8       __report_securityfailureEx 000000014007d3c8 f   LIBCMT:gs_report.obj
 0001:0007c63c       __GSHandlerCheck_EH        000000014007d63c f   LIBCMT:gshandlereh.obj
 0001:0007c6f0       __chkstk                   000000014007d6f0 f   LIBCMT:chkstk.obj
 0001:0007c6f0       _alloca_probe              000000014007d6f0 f   LIBCMT:chkstk.obj
 0001:0007c758       ??3@YAXPEAX@Z              000000014007d758 f   LIBCMT:delete_scalar.obj
 0001:0007c75d       RtlUnwindEx                000000014007d75d f   kernel32:KERNEL32.dll
 0001:0007c763       InterlockedPushEntrySList  000000014007d763 f   kernel32:KERNEL32.dll
 0001:0007c769       InterlockedFlushSList      000000014007d769 f   kernel32:KERNEL32.dll
 0001:0007c76f       GetLastError               000000014007d76f f   kernel32:KERNEL32.dll
 0001:0007c775       SetLastError               000000014007d775 f   kernel32:KERNEL32.dll
 0001:0007c77b       EnterCriticalSection       000000014007d77b f   kernel32:KERNEL32.dll
 0001:0007c781       LeaveCriticalSection       000000014007d781 f   kernel32:KERNEL32.dll
 0001:0007c787       DeleteCriticalSection      000000014007d787 f   kernel32:KERNEL32.dll
 0001:0007c78d       InitializeCriticalSectionAndSpinCount 000000014007d78d f   kernel32:KERNEL32.dll
 0001:0007c793       TlsAlloc                   000000014007d793 f   kernel32:KERNEL32.dll
 0001:0007c799       TlsGetValue                000000014007d799 f   kernel32:KERNEL32.dll
 0001:0007c79f       TlsSetValue                000000014007d79f f   kernel32:KERNEL32.dll
 0001:0007c7a5       TlsFree                    000000014007d7a5 f   kernel32:KERNEL32.dll
 0001:0007c7ab       FreeLibrary                000000014007d7ab f   kernel32:KERNEL32.dll
 0001:0007c7b1       GetProcAddress             000000014007d7b1 f   kernel32:KERNEL32.dll
 0001:0007c7b7       LoadLibraryExW             000000014007d7b7 f   kernel32:KERNEL32.dll
 0001:0007c7bd       EncodePointer              000000014007d7bd f   kernel32:KERNEL32.dll
 0001:0007c7c3       RaiseException             000000014007d7c3 f   kernel32:KERNEL32.dll
 0001:0007c7c9       RtlPcToFileHeader          000000014007d7c9 f   kernel32:KERNEL32.dll
 0001:0007c7cf       GetStdHandle               000000014007d7cf f   kernel32:KERNEL32.dll
 0001:0007c7d5       WriteFile                  000000014007d7d5 f   kernel32:KERNEL32.dll
 0001:0007c7db       GetModuleFileNameW         000000014007d7db f   kernel32:KERNEL32.dll
 0001:0007c7e1       GetCurrentProcess          000000014007d7e1 f   kernel32:KERNEL32.dll
 0001:0007c7e7       ExitProcess                000000014007d7e7 f   kernel32:KERNEL32.dll
 0001:0007c7ed       TerminateProcess           000000014007d7ed f   kernel32:KERNEL32.dll
 0001:0007c7f3       GetModuleHandleExW         000000014007d7f3 f   kernel32:KERNEL32.dll
 0001:0007c7f9       GetCommandLineA            000000014007d7f9 f   kernel32:KERNEL32.dll
 0001:0007c7ff       GetCommandLineW            000000014007d7ff f   kernel32:KERNEL32.dll
 0001:0007c805       GetCurrentThread           000000014007d805 f   kernel32:KERNEL32.dll
 0001:0007c80b       GetFileSizeEx              000000014007d80b f   kernel32:KERNEL32.dll
 0001:0007c811       SetFilePointerEx           000000014007d811 f   kernel32:KERNEL32.dll
 0001:0007c817       GetFileType                000000014007d817 f   kernel32:KERNEL32.dll
 0001:0007c81d       OutputDebugStringW         000000014007d81d f   kernel32:KERNEL32.dll
 0001:0007c823       HeapAlloc                  000000014007d823 f   kernel32:KERNEL32.dll
 0001:0007c829       HeapFree                   000000014007d829 f   kernel32:KERNEL32.dll
 0001:0007c82f       FindClose                  000000014007d82f f   kernel32:KERNEL32.dll
 0001:0007c835       FindFirstFileExW           000000014007d835 f   kernel32:KERNEL32.dll
 0001:0007c83b       FindNextFileW              000000014007d83b f   kernel32:KERNEL32.dll
 0001:0007c841       IsValidCodePage            000000014007d841 f   kernel32:KERNEL32.dll
 0001:0007c847       GetACP                     000000014007d847 f   kernel32:KERNEL32.dll
 0001:0007c84d       GetOEMCP                   000000014007d84d f   kernel32:KERNEL32.dll
 0001:0007c853       GetCPInfo                  000000014007d853 f   kernel32:KERNEL32.dll
 0001:0007c859       MultiByteToWideChar        000000014007d859 f   kernel32:KERNEL32.dll
 0001:0007c85f       WideCharToMultiByte        000000014007d85f f   kernel32:KERNEL32.dll
 0001:0007c865       GetEnvironmentStringsW     000000014007d865 f   kernel32:KERNEL32.dll
 0001:0007c86b       FreeEnvironmentStringsW    000000014007d86b f   kernel32:KERNEL32.dll
 0001:0007c871       SetEnvironmentVariableW    000000014007d871 f   kernel32:KERNEL32.dll
 0001:0007c877       SetStdHandle               000000014007d877 f   kernel32:KERNEL32.dll
 0001:0007c87d       GetStringTypeW             000000014007d87d f   kernel32:KERNEL32.dll
 0001:0007c883       GetLocaleInfoW             000000014007d883 f   kernel32:KERNEL32.dll
 0001:0007c889       IsValidLocale              000000014007d889 f   kernel32:KERNEL32.dll
 0001:0007c88f       GetUserDefaultLCID         000000014007d88f f   kernel32:KERNEL32.dll
 0001:0007c895       EnumSystemLocalesW         000000014007d895 f   kernel32:KERNEL32.dll
 0001:0007c89b       GetTempPathW               000000014007d89b f   kernel32:KERNEL32.dll
 0001:0007c8a1       FlsAlloc                   000000014007d8a1 f   kernel32:KERNEL32.dll
 0001:0007c8a7       FlsGetValue                000000014007d8a7 f   kernel32:KERNEL32.dll
 0001:0007c8ad       FlsSetValue                000000014007d8ad f   kernel32:KERNEL32.dll
 0001:0007c8b3       FlsFree                    000000014007d8b3 f   kernel32:KERNEL32.dll
 0001:0007c8b9       IsThreadAFiber             000000014007d8b9 f   kernel32:KERNEL32.dll
 0001:0007c8bf       InitializeCriticalSectionEx 000000014007d8bf f   kernel32:KERNEL32.dll
 0001:0007c8c5       VirtualProtect             000000014007d8c5 f   kernel32:KERNEL32.dll
 0001:0007c8cb       GetDateFormatW             000000014007d8cb f   kernel32:KERNEL32.dll
 0001:0007c8d1       GetTimeFormatW             000000014007d8d1 f   kernel32:KERNEL32.dll
 0001:0007c8d7       CompareStringW             000000014007d8d7 f   kernel32:KERNEL32.dll
 0001:0007c8dd       LCMapStringW               000000014007d8dd f   kernel32:KERNEL32.dll
 0001:0007c8e3       GetProcessHeap             000000014007d8e3 f   kernel32:KERNEL32.dll
 0001:0007c8e9       SetConsoleCtrlHandler      000000014007d8e9 f   kernel32:KERNEL32.dll
 0001:0007c8ef       GetConsoleOutputCP         000000014007d8ef f   kernel32:KERNEL32.dll
 0001:0007c8f5       GetConsoleMode             000000014007d8f5 f   kernel32:KERNEL32.dll
 0001:0007c8fb       HeapSize                   000000014007d8fb f   kernel32:KERNEL32.dll
 0001:0007c901       HeapReAlloc                000000014007d901 f   kernel32:KERNEL32.dll
 0001:0007c907       FlushFileBuffers           000000014007d907 f   kernel32:KERNEL32.dll
 0001:0007c90d       ReadFile                   000000014007d90d f   kernel32:KERNEL32.dll
 0001:0007c913       ReadConsoleW               000000014007d913 f   kernel32:KERNEL32.dll
 0001:0007c919       CloseHandle                000000014007d919 f   kernel32:KERNEL32.dll
 0001:0007c91f       CreateFileW                000000014007d91f f   kernel32:KERNEL32.dll
 0001:0007c925       WriteConsoleW              000000014007d925 f   kernel32:KERNEL32.dll
 0001:0007c92c       _local_unwind              000000014007d92c f   libvcruntime:jmpuwind.obj
 0001:0007c960       __C_specific_handler_noexcept 000000014007d960 f   libvcruntime:chandler_noexcept.obj
 0001:0007c9c0       strchr                     000000014007d9c0 f   libvcruntime:strchr.obj
 0001:0007ca60       wcschr                     000000014007da60 f   libvcruntime:wcschr.obj
 0001:0007cafc       strrchr                    000000014007dafc f   libvcruntime:strrchr.obj
 0001:0007cc75       RtlUnwind                  000000014007dc75 f   kernel32:KERNEL32.dll
 0001:00080310       _guard_dispatch_icall_nop  0000000140081310 f   LIBCMT:guard_dispatch.obj
 0001:00080330       _guard_xfg_dispatch_icall_nop 0000000140081330 f   LIBCMT:guard_xfg_dispatch.obj
 0001:00080360       _guard_dispatch_icall      0000000140081360 f   libucrt:dispatchcfg.obj
 0001:00080360       _guard_dispatch_icall_$fo_default$ 0000000140081360     libucrt:dispatchcfg.obj
 0001:000813a0       memset_repstos             00000001400823a0 f   libvcruntime:memset.obj
 0001:000813c0       memset                     00000001400823c0 f   libvcruntime:memset.obj
 0001:00081860       memcpy_repmovs             0000000140082860 f   libvcruntime:memcpy.obj
 0001:00081880       memcpy                     0000000140082880 f   libvcruntime:memcpy.obj
 0001:00081880       memcpy_$fo_default$        0000000140082880     libvcruntime:memcpy.obj
 0001:00081880       memmove                    0000000140082880 f   libvcruntime:memcpy.obj
 0001:000820a0       strcmp                     00000001400830a0 f   libucrt:strcmp.obj
 0001:00082140       strlen                     0000000140083140 f   libucrt:strlen.obj
 0001:00082230       strncmp                    0000000140083230 f   libucrt:strncmp.obj
 0001:000822f0       memcmp                     00000001400832f0 f   libvcruntime:memcmp.obj
 0002:00000000       __xc_a                     0000000140087000     LIBCMT:initializers.obj
 0002:00000220       __xc_z                     0000000140087220     LIBCMT:initializers.obj
 0002:00000330       __xi_a                     0000000140087330     LIBCMT:initializers.obj
 0002:00000660       __acrt_stdio_initializer   0000000140087660     libucrt:stdio_initializer.obj
 0002:00000670       __acrt_multibyte_initializer 0000000140087670     libucrt:multibyte_initializer.obj
 0002:00000680       __acrt_fmode_initializer   0000000140087680     libucrt:fmode_initializer.obj
 0002:00000690       __acrt_tran_fma3_initializer 0000000140087690     libucrt:fma3_initializer.obj
 0002:000007a0       __xi_z                     00000001400877a0     LIBCMT:initializers.obj
 0002:000008b0       __xp_a                     00000001400878b0     LIBCMT:initializers.obj
 0002:000009c0       __acrt_locale_terminator   00000001400879c0     libucrt:locale_initializer.obj
 0002:000009d0       __dcrt_console_output_terminator 00000001400879d0     libucrt:console_output_initializer.obj
 0002:00000ae0       __acrt_stdio_terminator    0000000140087ae0     libucrt:stdio_initializer.obj
 0002:00000bf0       __xp_z                     0000000140087bf0     LIBCMT:initializers.obj
 0002:00000d00       __xt_a                     0000000140087d00     LIBCMT:initializers.obj
 0002:00000e10       __xt_z                     0000000140087e10     LIBCMT:initializers.obj
 0002:00000f20       NUM_ASCII_PROPERTIES       0000000140087f20     main.obj
 0002:00000f30       s_ascii_properties         0000000140087f30     main.obj
 0002:00001000       __xmm@ffffffffffffffffffffffffffffffff 0000000140088000     LIBCMT:utility.obj
 0002:00001018       _pDestructExceptionObject  0000000140088018     libvcruntime:ehhelpers.obj
 0002:000018b0       ??_C@_08EHJDFFNH@__based?$CI@ 00000001400888b0     libvcruntime:undname.obj
 0002:000018c0       ??_C@_07KOLFKCDI@__cdecl@  00000001400888c0     libvcruntime:undname.obj
 0002:000018d0       ??_C@_09IFJBGAPI@__stdcall@ 00000001400888d0     libvcruntime:undname.obj
 0002:000018e0       ??_C@_0L@NPHFGOKO@__thiscall@ 00000001400888e0     libvcruntime:undname.obj
 0002:000018f0       ??_C@_0L@JMKHOMEK@__fastcall@ 00000001400888f0     libvcruntime:undname.obj
 0002:00001900       ??_C@_0N@BCKKPABJ@__vectorcall@ 0000000140088900     libvcruntime:undname.obj
 0002:00001910       ??_C@_0BA@NAGGFLJK@__preserve_none@ 0000000140088910     libvcruntime:undname.obj
 0002:00001928       ??_C@_09HIJEGCPM@__clrcall@ 0000000140088928     libvcruntime:undname.obj
 0002:00001934       ??_C@_06GHPCKEAG@__eabi@   0000000140088934     libvcruntime:undname.obj
 0002:00001940       ??_C@_09IOPIDJLG@__swift_1@ 0000000140088940     libvcruntime:undname.obj
 0002:00001950       ??_C@_09KFNFGKHF@__swift_2@ 0000000140088950     libvcruntime:undname.obj
 0002:00001960       ??_C@_09LMMOFLDE@__swift_3@ 0000000140088960     libvcruntime:undname.obj
 0002:00001970       ??_C@_07JOMMBBKO@__ptr64@  0000000140088970     libvcruntime:undname.obj
 0002:00001980       ??_C@_0L@PILCLIHE@__restrict@ 0000000140088980     libvcruntime:undname.obj
 0002:00001990       ??_C@_0M@GFIIJFMG@__unaligned@ 0000000140088990     libvcruntime:undname.obj
 0002:000019a0       ??_C@_09DHDLOLLB@restrict?$CI@ 00000001400889a0     libvcruntime:undname.obj
 0002:000019ac       ??_C@_00CNPNBAHC@@         00000001400889ac     libvcruntime:undname.obj
 0002:000019b0       ??_C@_04NIHEBCM@?5new@     00000001400889b0     libvcruntime:undname.obj
 0002:000019b8       ??_C@_07FPCDHGMM@?5delete@ 00000001400889b8     libvcruntime:undname.obj
 0002:000019c4       ??_C@_01NEMOKFLO@?$DN@     00000001400889c4     libvcruntime:undname.obj
 0002:000019c8       ??_C@_02GPIOPFAK@?$DO?$DO@ 00000001400889c8     libvcruntime:undname.obj
 0002:000019cc       ??_C@_02FODMEDOG@?$DM?$DM@ 00000001400889cc     libvcruntime:undname.obj
 0002:000019d0       ??_C@_01DCLJPIOD@?$CB@     00000001400889d0     libvcruntime:undname.obj
 0002:000019d4       ??_C@_02EGOFBIJA@?$DN?$DN@ 00000001400889d4     libvcruntime:undname.obj
 0002:000019d8       ??_C@_02FDNJECIE@?$CB?$DN@ 00000001400889d8     libvcruntime:undname.obj
 0002:000019dc       ??_C@_02GPECMEKF@?$FL?$FN@ 00000001400889dc     libvcruntime:undname.obj
 0002:000019e0       ??_C@_08LHJFAFGD@operator@ 00000001400889e0     libvcruntime:undname.obj
 0002:000019ec       ??_C@_02HBOOOICD@?9?$DO@   00000001400889ec     libvcruntime:undname.obj
 0002:000019f0       ??_C@_01NBENCBCI@?$CK@     00000001400889f0     libvcruntime:undname.obj
 0002:000019f4       ??_C@_02ECNGHCIF@?$CL?$CL@ 00000001400889f4     libvcruntime:undname.obj
 0002:000019f8       ??_C@_02BAABKJLB@?9?9@     00000001400889f8     libvcruntime:undname.obj
 0002:000019fc       ??_C@_01JOAMLHOP@?9@       00000001400889fc     libvcruntime:undname.obj
 0002:00001a00       ??_C@_01MIFGBAGJ@?$CL@     0000000140088a00     libvcruntime:undname.obj
 0002:00001a04       ??_C@_01HNPIGOCE@?$CG@     0000000140088a04     libvcruntime:undname.obj
 0002:00001a08       ??_C@_03MNHNFDLC@?9?$DO?$CK@ 0000000140088a08     libvcruntime:undname.obj
 0002:00001a0c       ??_C@_01KMDKNFGN@?1@       0000000140088a0c     libvcruntime:undname.obj
 0002:00001a10       ??_C@_01FGNFDNOH@?$CF@     0000000140088a10     libvcruntime:undname.obj
 0002:00001a14       ??_C@_01MNNFJEPP@?$DM@     0000000140088a14     libvcruntime:undname.obj
 0002:00001a18       ??_C@_02EHCHHCKH@?$DM?$DN@ 0000000140088a18     libvcruntime:undname.obj
 0002:00001a1c       ??_C@_01PPODPGHN@?$DO@     0000000140088a1c     libvcruntime:undname.obj
 0002:00001a20       ??_C@_02EEKDKGMJ@?$DO?$DN@ 0000000140088a20     libvcruntime:undname.obj
 0002:00001a24       ??_C@_01IHBHIGKO@?0@       0000000140088a24     libvcruntime:undname.obj
 0002:00001a28       ??_C@_02HCKGKOFO@?$CI?$CJ@ 0000000140088a28     libvcruntime:undname.obj
 0002:00001a2c       ??_C@_01PJKLJHI@?$HO@      0000000140088a2c     libvcruntime:undname.obj
 0002:00001a30       ??_C@_01JKBOJNNK@?$FO@     0000000140088a30     libvcruntime:undname.obj
 0002:00001a34       ??_C@_01DNKMNLPK@?$HM@     0000000140088a34     libvcruntime:undname.obj
 0002:00001a38       ??_C@_02PPKAJPJL@?$CG?$CG@ 0000000140088a38     libvcruntime:undname.obj
 0002:00001a3c       ??_C@_02NONPIBCD@?$HM?$HM@ 0000000140088a3c     libvcruntime:undname.obj
 0002:00001a40       ??_C@_02FPIMKNGF@?$CK?$DN@ 0000000140088a40     libvcruntime:undname.obj
 0002:00001a44       ??_C@_02FOEOMHFC@?$CL?$DN@ 0000000140088a44     libvcruntime:undname.obj
 0002:00001a48       ??_C@_02FKMDLLOA@?9?$DN@   0000000140088a48     libvcruntime:undname.obj
 0002:00001a4c       ??_C@_02FJEHGPIO@?1?$DN@   0000000140088a4c     libvcruntime:undname.obj
 0002:00001a50       ??_C@_02FENAOKFI@?$CF?$DN@ 0000000140088a50     libvcruntime:undname.obj
 0002:00001a54       ??_C@_03IKFCCPFF@?$DO?$DO?$DN@ 0000000140088a54     libvcruntime:undname.obj
 0002:00001a58       ??_C@_03CDNPDDLA@?$DM?$DM?$DN@ 0000000140088a58     libvcruntime:undname.obj
 0002:00001a5c       ??_C@_02FGJGFEAB@?$CG?$DN@ 0000000140088a5c     libvcruntime:undname.obj
 0002:00001a60       ??_C@_02DHLNPPGH@?$HM?$DN@ 0000000140088a60     libvcruntime:undname.obj
 0002:00001a64       ??_C@_02MHEGNOJ@?$FO?$DN@  0000000140088a64     libvcruntime:undname.obj
 0002:00001a68       ??_C@_09IFPLHPGF@?$GAvftable?8@ 0000000140088a68     libvcruntime:undname.obj
 0002:00001a78       ??_C@_09BLBHBJP@?$GAvbtable?8@ 0000000140088a78     libvcruntime:undname.obj
 0002:00001a88       ??_C@_07FEEIOKP@?$GAvcall?8@ 0000000140088a88     libvcruntime:undname.obj
 0002:00001a98       ??_C@_08LLFFHHDJ@?$GAtypeof?8@ 0000000140088a98     libvcruntime:undname.obj
 0002:00001aa8       ??_C@_0BF@KDPPACIK@?$GAlocal?5static?5guard?8@ 0000000140088aa8     libvcruntime:undname.obj
 0002:00001ac8       ??_C@_08OBABFOLI@?$GAstring?8@ 0000000140088ac8     libvcruntime:undname.obj
 0002:00001ad8       ??_C@_0BD@JDLKDPAB@?$GAvbase?5destructor?8@ 0000000140088ad8     libvcruntime:undname.obj
 0002:00001af0       ??_C@_0BN@DEGPLNFK@?$GAvector?5deleting?5destructor?8@ 0000000140088af0     libvcruntime:undname.obj
 0002:00001b18       ??_C@_0BO@OBMKPJIG@?$GAdefault?5constructor?5closure?8@ 0000000140088b18     libvcruntime:undname.obj
 0002:00001b40       ??_C@_0BN@IMDCHIKM@?$GAscalar?5deleting?5destructor?8@ 0000000140088b40     libvcruntime:undname.obj
 0002:00001b68       ??_C@_0BO@PFGOCPJJ@?$GAvector?5constructor?5iterator?8@ 0000000140088b68     libvcruntime:undname.obj
 0002:00001b90       ??_C@_0BN@LFPFMEDL@?$GAvector?5destructor?5iterator?8@ 0000000140088b90     libvcruntime:undname.obj
 0002:00001bb8       ??_C@_0CE@IKBNEHA@?$GAvector?5vbase?5constructor?5itera@ 0000000140088bb8     libvcruntime:undname.obj
 0002:00001be8       ??_C@_0BL@NILFHHPC@?$GAvirtual?5displacement?5map?8@ 0000000140088be8     libvcruntime:undname.obj
 0002:00001c08       ??_C@_0CB@JONCMFFK@?$GAeh?5vector?5constructor?5iterator@ 0000000140088c08     libvcruntime:undname.obj
 0002:00001c30       ??_C@_0CA@GCEOPDGL@?$GAeh?5vector?5destructor?5iterator?8@ 0000000140088c30     libvcruntime:undname.obj
 0002:00001c58       ??_C@_0CH@OOJPLCPH@?$GAeh?5vector?5vbase?5constructor?5it@ 0000000140088c58     libvcruntime:undname.obj
 0002:00001c88       ??_C@_0BL@LLKPOHJI@?$GAcopy?5constructor?5closure?8@ 0000000140088c88     libvcruntime:undname.obj
 0002:00001ca8       ??_C@_0BA@KBCDOMBN@?$GAudt?5returning?8@ 0000000140088ca8     libvcruntime:undname.obj
 0002:00001cbc       ??_C@_03KLGMFNMG@?$GAEH@   0000000140088cbc     libvcruntime:undname.obj
 0002:00001cc0       ??_C@_05KHLCHHI@?$GARTTI@  0000000140088cc0     libvcruntime:undname.obj
 0002:00001cc8       ??_C@_0BA@KKLDJDLB@?$GAlocal?5vftable?8@ 0000000140088cc8     libvcruntime:undname.obj
 0002:00001ce0       ??_C@_0CE@IIHCMGGL@?$GAlocal?5vftable?5constructor?5clos@ 0000000140088ce0     libvcruntime:undname.obj
 0002:00001d0c       ??_C@_06FHBGPFGH@?5new?$FL?$FN@ 0000000140088d0c     libvcruntime:undname.obj
 0002:00001d18       ??_C@_09LBNFPBCA@?5delete?$FL?$FN@ 0000000140088d18     libvcruntime:undname.obj
 0002:00001d28       ??_C@_0P@HJKNJFNN@?$GAomni?5callsig?8@ 0000000140088d28     libvcruntime:undname.obj
 0002:00001d40       ??_C@_0BL@CNOONJFP@?$GAplacement?5delete?5closure?8@ 0000000140088d40     libvcruntime:undname.obj
 0002:00001d60       ??_C@_0BN@CKNJLHMB@?$GAplacement?5delete?$FL?$FN?5closure?8@ 0000000140088d60     libvcruntime:undname.obj
 0002:00001d88       ??_C@_0CG@CFDHKGGD@?$GAmanaged?5vector?5constructor?5ite@ 0000000140088d88     libvcruntime:undname.obj
 0002:00001db8       ??_C@_0CF@IMGKMJNO@?$GAmanaged?5vector?5destructor?5iter@ 0000000140088db8     libvcruntime:undname.obj
 0002:00001de8       ??_C@_0CG@HLDDJMAG@?$GAeh?5vector?5copy?5constructor?5ite@ 0000000140088de8     libvcruntime:undname.obj
 0002:00001e18       ??_C@_0CM@FCBBDIGB@?$GAeh?5vector?5vbase?5copy?5construct@ 0000000140088e18     libvcruntime:undname.obj
 0002:00001e50       ??_C@_0BL@CLIPGLGB@?$GAdynamic?5initializer?5for?5?8@ 0000000140088e50     libvcruntime:undname.obj
 0002:00001e70       ??_C@_0CB@PDBIFEP@?$GAdynamic?5atexit?5destructor?5for?5@ 0000000140088e70     libvcruntime:undname.obj
 0002:00001e98       ??_C@_0CD@CGAJBKEJ@?$GAvector?5copy?5constructor?5iterat@ 0000000140088e98     libvcruntime:undname.obj
 0002:00001ec8       ??_C@_0CJ@GJELGAMM@?$GAvector?5vbase?5copy?5constructor?5@ 0000000140088ec8     libvcruntime:undname.obj
 0002:00001f00       ??_C@_0CL@FGIJHLCE@?$GAmanaged?5vector?5copy?5constructo@ 0000000140088f00     libvcruntime:undname.obj
 0002:00001f38       ??_C@_0BM@PMGGMLDN@?$GAlocal?5static?5thread?5guard?8@ 0000000140088f38     libvcruntime:undname.obj
 0002:00001f60       ??_C@_0N@BDNMDMOL@operator?5?$CC?$CC?5@ 0000000140088f60     libvcruntime:undname.obj
 0002:00001f70       ??_C@_0BC@GGEBGALA@operator?5co_await@ 0000000140088f70     libvcruntime:undname.obj
 0002:00001f88       ??_C@_0M@GAAIMMOH@operator?$DM?$DN?$DO@ 0000000140088f88     libvcruntime:undname.obj
 0002:00001f98       ??_C@_0BC@DAFEJGAK@?5Type?5Descriptor?8@ 0000000140088f98     libvcruntime:undname.obj
 0002:00001fb0       ??_C@_0BM@LDKODKLH@?5Base?5Class?5Descriptor?5at?5?$CI@ 0000000140088fb0     libvcruntime:undname.obj
 0002:00001fd8       ??_C@_0BD@LGICGFMM@?5Base?5Class?5Array?8@ 0000000140088fd8     libvcruntime:undname.obj
 0002:00001ff0       ??_C@_0BN@MECKDCOJ@?5Class?5Hierarchy?5Descriptor?8@ 0000000140088ff0     libvcruntime:undname.obj
 0002:00002018       ??_C@_0BK@CFCOFLF@?5Complete?5Object?5Locator?8@ 0000000140089018     libvcruntime:undname.obj
 0002:00002038       ??_C@_0BG@JNJLAMPM@?$GAanonymous?5namespace?8@ 0000000140089038     libvcruntime:undname.obj
 0002:00002054       ??_C@_04HEJADOOB@CV?3?5@   0000000140089054     libvcruntime:undname.obj
 0002:0000205c       ??_C@_02MOLJINC@?3?3@      000000014008905c     libvcruntime:undname.obj
 0002:00002060       ??_C@_0BE@JAEOCHPE@template?9parameter?9@ 0000000140089060     libvcruntime:undname.obj
 0002:00002078       ??_C@_0BF@LNLGBBNL@?$GAtemplate?9parameter?9@ 0000000140089078     libvcruntime:undname.obj
 0002:00002098       ??_C@_0O@KHGCOMHP@generic?9type?9@ 0000000140089098     libvcruntime:undname.obj
 0002:000020a8       ??_C@_0P@ODDENDLM@?$GAgeneric?9type?9@ 00000001400890a8     libvcruntime:undname.obj
 0002:000020bc       ??_C@_02OHHJMEON@?8?8@     00000001400890bc     libvcruntime:undname.obj
 0002:000020c0       ??_C@_0BN@IBLMMFAP@?$GAnon?9type?9template?9parameter@ 00000001400890c0     libvcruntime:undname.obj
 0002:000020e4       ??_C@_03DLDNIBIK@?$CFlf@   00000001400890e4     libvcruntime:undname.obj
 0002:000020e8       ??_C@_04OFALKAJ@?$DP?$DP_C@ 00000001400890e8     libvcruntime:undname.obj
 0002:000020f0       ??_C@_03KHICJKCI@?4?4?4@   00000001400890f0     libvcruntime:undname.obj
 0002:000020f4       ??_C@_04HIBGFPH@NULL@      00000001400890f4     libvcruntime:undname.obj
 0002:000020fc       ??_C@_02DPKJAMEF@?$CFd@    00000001400890fc     libvcruntime:undname.obj
 0002:00002100       ??_C@_0BK@IHCCFNEL@?$GAtemplate?9type?9parameter?9@ 0000000140089100     libvcruntime:undname.obj
 0002:00002120       ??_C@_0BK@OFCNNNKO@?$GAgeneric?9class?9parameter?9@ 0000000140089120     libvcruntime:undname.obj
 0002:00002140       ??_C@_0BL@NGJBLFIL@?$GAgeneric?9method?9parameter?9@ 0000000140089140     libvcruntime:undname.obj
 0002:00002160       ??_C@_07OHNGEDJK@nullptr@  0000000140089160     libvcruntime:undname.obj
 0002:0000216c       ??_C@_06COJIGPIB@lambda@   000000014008916c     libvcruntime:undname.obj
 0002:00002174       ??_C@_04GKJNKENE@void@     0000000140089174     libvcruntime:undname.obj
 0002:00002180       ??_C@_0BE@EODMJLIF@?$GAtemplate?9parameter@ 0000000140089180     libvcruntime:undname.obj
 0002:00002198       ??_C@_03OPGICMGF@?$HN?8?5@ 0000000140089198     libvcruntime:undname.obj
 0002:0000219c       ??_C@_02IGFCGPIL@?$HN?8@   000000014008919c     libvcruntime:undname.obj
 0002:000021a0       ??_C@_0N@CBHHHENL@?$GAvtordispex?$HL@ 00000001400891a0     libvcruntime:undname.obj
 0002:000021b0       ??_C@_0L@GHPFDFH@?$GAvtordisp?$HL@ 00000001400891b0     libvcruntime:undname.obj
 0002:000021c0       ??_C@_0L@HNGCOGAE@?$GAadjustor?$HL@ 00000001400891c0     libvcruntime:undname.obj
 0002:000021d0       ??_C@_0CB@KJDOOODE@?$GAlocal?5static?5destructor?5helper@ 00000001400891d0     libvcruntime:undname.obj
 0002:000021f8       ??_C@_0DB@ILEFOCIJ@?$GAtemplate?5static?5data?5member?5co@ 00000001400891f8     libvcruntime:undname.obj
 0002:00002238       ??_C@_0DA@HGFJFBBE@?$GAtemplate?5static?5data?5member?5de@ 0000000140089238     libvcruntime:undname.obj
 0002:00002278       ??_C@_07PGOEDBHP@static?5@ 0000000140089278     libvcruntime:undname.obj
 0002:00002288       ??_C@_08NIEOINHE@virtual?5@ 0000000140089288     libvcruntime:undname.obj
 0002:00002298       ??_C@_09LAPHOOG@private?3?5@ 0000000140089298     libvcruntime:undname.obj
 0002:000022a8       ??_C@_0M@GAIFPFIP@protected?3?5@ 00000001400892a8     libvcruntime:undname.obj
 0002:000022b8       ??_C@_08GPDDCMKI@public?3?5@ 00000001400892b8     libvcruntime:undname.obj
 0002:000022c8       ??_C@_08KJLFOPNE@?$FLthunk?$FN?3@ 00000001400892c8     libvcruntime:undname.obj
 0002:000022d8       ??_C@_0M@DHNBOJMP@extern?5?$CCC?$CC?5@ 00000001400892d8     libvcruntime:undname.obj
 0002:000022e8       ??_C@_02KCKGHPCA@?$CJ?5@   00000001400892e8     libvcruntime:undname.obj
 0002:000022ec       ??_C@_05CIHEBHNO@char?5@   00000001400892ec     libvcruntime:undname.obj
 0002:000022f4       ??_C@_06EHJMALKF@short?5@  00000001400892f4     libvcruntime:undname.obj
 0002:000022fc       ??_C@_04LAHKHJMA@int?5@    00000001400892fc     libvcruntime:undname.obj
 0002:00002304       ??_C@_05CJIMAING@long?5@   0000000140089304     libvcruntime:undname.obj
 0002:00002310       ??_C@_09EBBEKKIH@unsigned?5@ 0000000140089310     libvcruntime:undname.obj
 0002:0000231c       ??_C@_05BEFAKPML@void?5@   000000014008931c     libvcruntime:undname.obj
 0002:00002328       ??_C@_09GAIEOBLP@volatile?5@ 0000000140089328     libvcruntime:undname.obj
 0002:00002338       ??_C@_08PABEKFH@volatile@  0000000140089338     libvcruntime:undname.obj
 0002:00002348       ??_C@_0BA@LKIJLKPP@std?3?3nullptr_t?5@ 0000000140089348     libvcruntime:undname.obj
 0002:00002360       ??_C@_0P@GCOCNKDM@std?3?3nullptr_t@ 0000000140089360     libvcruntime:undname.obj
 0002:00002378       ??_C@_0L@EGPHHEKN@?$DMellipsis?$DO@ 0000000140089378     libvcruntime:undname.obj
 0002:00002388       ??_C@_04EENFHACM@?0?4?4?4@ 0000000140089388     libvcruntime:undname.obj
 0002:00002390       ??_C@_0M@ELJOJFFH@?0?$DMellipsis?$DO@ 0000000140089390     libvcruntime:undname.obj
 0002:000023a0       ??_C@_09DNHFEOJI@?5noexcept@ 00000001400893a0     libvcruntime:undname.obj
 0002:000023ac       ??_C@_03PBJBJNON@cpu@      00000001400893ac     libvcruntime:undname.obj
 0002:000023b0       ??_C@_03DCBBJBAA@amp@      00000001400893b0     libvcruntime:undname.obj
 0002:000023b4       ??_C@_02KEGNLNML@?0?5@     00000001400893b4     libvcruntime:undname.obj
 0002:000023b8       ??_C@_04ENMBGAPA@char@     00000001400893b8     libvcruntime:undname.obj
 0002:000023c0       ??_C@_05BFKKPKCG@short@    00000001400893c0     libvcruntime:undname.obj
 0002:000023c8       ??_C@_03JBIPMCLC@int@      00000001400893c8     libvcruntime:undname.obj
 0002:000023cc       ??_C@_04GOKPGOLB@long@     00000001400893cc     libvcruntime:undname.obj
 0002:000023d4       ??_C@_05KNFBNCOH@float@    00000001400893d4     libvcruntime:undname.obj
 0002:000023dc       ??_C@_06BNJCAIGJ@double@   00000001400893dc     libvcruntime:undname.obj
 0002:000023e4       ??_C@_04DDKJGDCM@bool@     00000001400893e4     libvcruntime:undname.obj
 0002:000023ec       ??_C@_06EBGKOKIG@__int8@   00000001400893ec     libvcruntime:undname.obj
 0002:000023f8       ??_C@_07ICFHOGAF@__int16@  00000001400893f8     libvcruntime:undname.obj
 0002:00002408       ??_C@_07OFLPPHGP@__int32@  0000000140089408     libvcruntime:undname.obj
 0002:00002418       ??_C@_07LFCOJCAC@__int64@  0000000140089418     libvcruntime:undname.obj
 0002:00002428       ??_C@_08GAHOLHEO@__int128@ 0000000140089428     libvcruntime:undname.obj
 0002:00002438       ??_C@_09EEKGDCPH@?$DMunknown?$DO@ 0000000140089438     libvcruntime:undname.obj
 0002:00002448       ??_C@_07CFHGOPCN@char8_t@  0000000140089448     libvcruntime:undname.obj
 0002:00002458       ??_C@_08HBIPOFJB@char16_t@ 0000000140089458     libvcruntime:undname.obj
 0002:00002468       ??_C@_08IECNCBKG@char32_t@ 0000000140089468     libvcruntime:undname.obj
 0002:00002478       ??_C@_07CLGGIAMF@wchar_t@  0000000140089478     libvcruntime:undname.obj
 0002:00002484       ??_C@_04HAPDLBFF@auto@     0000000140089484     libvcruntime:undname.obj
 0002:00002490       ??_C@_0P@LHCGKIGK@decltype?$CIauto?$CJ@ 0000000140089490     libvcruntime:undname.obj
 0002:000024a4       ??_C@_05PCNBGHCF@this?5@   00000001400894a4     libvcruntime:undname.obj
 0002:000024ac       ??_C@_06GCICPBLB@__w64?5@  00000001400894ac     libvcruntime:undname.obj
 0002:000024b8       ??_C@_07NFANNNEC@UNKNOWN@  00000001400894b8     libvcruntime:undname.obj
 0002:000024c8       ??_C@_07EDHNAJHC@signed?5@ 00000001400894c8     libvcruntime:undname.obj
 0002:000024d4       ??_C@_05BNCCCJPP@const@    00000001400894d4     libvcruntime:undname.obj
 0002:000024e0       ??_C@_09EFNPDFFP@?5volatile@ 00000001400894e0     libvcruntime:undname.obj
 0002:000024f0       ??_C@_0P@GCIFDJCJ@?$GAunknown?5ecsu?8@ 00000001400894f0     libvcruntime:undname.obj
 0002:00002504       ??_C@_06MOJHIBMG@union?5@  0000000140089504     libvcruntime:undname.obj
 0002:00002510       ??_C@_07DIBCDNGL@struct?5@ 0000000140089510     libvcruntime:undname.obj
 0002:0000251c       ??_C@_06LJBABKPM@class?5@  000000014008951c     libvcruntime:undname.obj
 0002:00002528       ??_C@_08KOFANOFK@coclass?5@ 0000000140089528     libvcruntime:undname.obj
 0002:00002538       ??_C@_0N@DLIEFKNA@cointerface?5@ 0000000140089538     libvcruntime:undname.obj
 0002:00002548       ??_C@_05LJGMCFOG@enum?5@   0000000140089548     libvcruntime:undname.obj
 0002:00002550       ??_C@_06LIJLOJAG@const?5@  0000000140089550     libvcruntime:undname.obj
 0002:00002558       ??_C@_02KJPKDIBN@?$CG?5@   0000000140089558     libvcruntime:undname.obj
 0002:0000255c       ??_C@_03PCKGMOPB@?$CG?$CG?5@ 000000014008955c     libvcruntime:undname.obj
 0002:00002560       ??_C@_0M@EALIELKG@cli?3?3array?$DM@ 0000000140089560     libvcruntime:undname.obj
 0002:00002570       ??_C@_0O@GKABPPIF@cli?3?3pin_ptr?$DM@ 0000000140089570     libvcruntime:undname.obj
 0002:00002580       ??_C@_02GOGNNPBN@?$CJ?$FL@ 0000000140089580     libvcruntime:undname.obj
 0002:00002584       ??_C@_06EEGAIFAK@?$HLflat?$HN@ 0000000140089584     libvcruntime:undname.obj
 0002:0000258c       ??_C@_05JIBOFOHK@?$HLfor?5@ 000000014008958c     libvcruntime:undname.obj
 0002:00002594       ??_C@_02MDINNEEG@s?5@      0000000140089594     libvcruntime:undname.obj
 0002:000025a0       ??_7DNameNode@@6B@         00000001400895a0     libvcruntime:undname.obj
 0002:000025d0       ??_7charNode@@6B@          00000001400895d0     libvcruntime:undname.obj
 0002:00002600       ??_7pcharNode@@6B@         0000000140089600     libvcruntime:undname.obj
 0002:00002630       ??_7pDNameNode@@6B@        0000000140089630     libvcruntime:undname.obj
 0002:00002660       ??_7DNameStatusNode@@6B@   0000000140089660     libvcruntime:undname.obj
 0002:00002690       ??_7pairNode@@6B@          0000000140089690     libvcruntime:undname.obj
 0002:000027f4       ??_C@_04OKOHEJBO@?5?$DP?$DP?5@ 00000001400897f4     libvcruntime:undname.obj
 0002:00002800       ?nodes@?1??make@DNameStatusNode@@SAPEBV2@W4DNameStatus@@@Z@4QBV2@B 0000000140089800     libvcruntime:undname.obj
 0002:00002870       ??_C@_1DM@KHCHBNEB@?$AAa?$AAp?$AAi?$AA?9?$AAm?$AAs?$AA?9?$AAw?$AAi?$AAn?$AA?9?$AAc?$AAo?$AAr?$AAe@ 0000000140089870     libvcruntime:winapi_downlevel.obj
 0002:000028b8       ??_C@_1DK@LPPGFMPP@?$AAa?$AAp?$AAi?$AA?9?$AAm?$AAs?$AA?9?$AAw?$AAi?$AAn?$AA?9?$AAc?$AAo?$AAr?$AAe@ 00000001400898b8     libvcruntime:winapi_downlevel.obj
 0002:00002900       ??_C@_1BC@GDMECMAK@?$AAk?$AAe?$AAr?$AAn?$AAe?$AAl?$AA3?$AA2@ 0000000140089900     libvcruntime:winapi_downlevel.obj
 0002:00002918       ??_C@_1BA@PFFKHIOG@?$AAa?$AAp?$AAi?$AA?9?$AAm?$AAs?$AA?9@ 0000000140089918     libvcruntime:winapi_downlevel.obj
 0002:00002940       ??_C@_08KNHFBNJ@FlsAlloc@  0000000140089940     libvcruntime:winapi_downlevel.obj
 0002:00002960       ??_C@_07PEJMOBNF@FlsFree@  0000000140089960     libvcruntime:winapi_downlevel.obj
 0002:00002980       ??_C@_0M@GDNOONDI@FlsGetValue@ 0000000140089980     libvcruntime:winapi_downlevel.obj
 0002:000029a0       ??_C@_0M@JCPCPOEF@FlsSetValue@ 00000001400899a0     libvcruntime:winapi_downlevel.obj
 0002:000029c0       ??_C@_0BM@HCFOFFN@InitializeCriticalSectionEx@ 00000001400899c0     libvcruntime:winapi_downlevel.obj
 0002:000029e8       ?s_negLengthTab@FH4@@3QBCB 00000001400899e8     libvcruntime:risctrnsctrl.obj
 0002:00002a00       ?s_shiftTab@FH4@@3QBEB     0000000140089a00     libvcruntime:risctrnsctrl.obj
 0002:00002ba0       ??_7exception@std@@6B@     0000000140089ba0     libvcruntime:frame.obj
 0002:00002bb8       ??_C@_0BC@EOODALEL@Unknown?5exception@ 0000000140089bb8     libvcruntime:frame.obj
 0002:00002bd8       ??_7bad_exception@std@@6B@ 0000000140089bd8     libvcruntime:frame.obj
 0002:00002bf0       ??_C@_0O@DPKOEFFH@bad?5exception@ 0000000140089bf0     libvcruntime:frame.obj
 0002:00002c00       __acrt_exception_action_table 0000000140089c00     libucrt:exception_filter.obj
 0002:00002ce8       __acrt_signal_action_table_count 0000000140089ce8     libucrt:exception_filter.obj
 0002:00002cf8       __acrt_signal_action_table_size 0000000140089cf8     libucrt:exception_filter.obj
 0002:00002d08       __acrt_signal_action_first_fpe_index 0000000140089d08     libucrt:exception_filter.obj
 0002:00002d18       __acrt_signal_action_fpe_count 0000000140089d18     libucrt:exception_filter.obj
 0002:00002d28       ??_C@_1DE@JNGNBFGO@?$AAR?$AAu?$AAn?$AAt?$AAi?$AAm?$AAe?$AA?5?$AAE?$AAr?$AAr?$AAo?$AAr?$AA?$CB?$AA?6@ 0000000140089d28     libucrt:report_runtime_error.obj
 0002:00002d68       ??_C@_1CO@EAEJAADC@?$AA?$DM?$AAp?$AAr?$AAo?$AAg?$AAr?$AAa?$AAm?$AA?5?$AAn?$AAa?$AAm?$AAe?$AA?5?$AAu@ 0000000140089d68     libucrt:report_runtime_error.obj
 0002:00002da0       ??_C@_17LGKOMLJ@?$AA?4?$AA?4?$AA?4@ 0000000140089da0     libucrt:report_runtime_error.obj
 0002:00002dac       ??_C@_15IABLJNFO@?$AA?6?$AA?6@ 0000000140089dac     libucrt:report_runtime_error.obj
 0002:00002dc0       ??_C@_1EK@MBDPDCGA@?$AAM?$AAi?$AAc?$AAr?$AAo?$AAs?$AAo?$AAf?$AAt?$AA?5?$AAV?$AAi?$AAs?$AAu?$AAa@ 0000000140089dc0     libucrt:report_runtime_error.obj
 0002:00002f38       ??_C@_1BI@BGOHAHKC@?$AAm?$AAs?$AAc?$AAo?$AAr?$AAe?$AAe?$AA?4?$AAd?$AAl?$AAl@ 0000000140089f38     libucrt:exit.obj
 0002:00002f58       ??_C@_0P@MIGLKIOC@CorExitProcess@ 0000000140089f58     libucrt:exit.obj
 0002:00003010       __lc_category              000000014008a010     libucrt:wsetlocale.obj
 0002:000030c0       ??_C@_1O@GIFLHMA@?$AAL?$AAC?$AA_?$AAA?$AAL?$AAL@ 000000014008a0c0     libucrt:wsetlocale.obj
 0002:000030d0       ??_C@_1BG@PPOMIBNJ@?$AAL?$AAC?$AA_?$AAC?$AAO?$AAL?$AAL?$AAA?$AAT?$AAE@ 000000014008a0d0     libucrt:wsetlocale.obj
 0002:000030f0       ??_C@_1BC@FFJGAPJM@?$AAL?$AAC?$AA_?$AAC?$AAT?$AAY?$AAP?$AAE@ 000000014008a0f0     libucrt:wsetlocale.obj
 0002:00003108       ??_C@_1BI@PCKFNJFB@?$AAL?$AAC?$AA_?$AAM?$AAO?$AAN?$AAE?$AAT?$AAA?$AAR?$AAY@ 000000014008a108     libucrt:wsetlocale.obj
 0002:00003128       ??_C@_1BG@ENIEDKID@?$AAL?$AAC?$AA_?$AAN?$AAU?$AAM?$AAE?$AAR?$AAI?$AAC@ 000000014008a128     libucrt:wsetlocale.obj
 0002:00003148       ??_C@_1BA@HAAOMIIG@?$AAL?$AAC?$AA_?$AAT?$AAI?$AAM?$AAE@ 000000014008a148     libucrt:wsetlocale.obj
 0002:0000315c       ??_C@_15NBPDDFIP@?$AA?$DN?$AA?$DL@ 000000014008a15c     libucrt:wsetlocale.obj
 0002:00003164       ??_C@_13PJJBFPED@?$AA?$DL@ 000000014008a164     libucrt:wsetlocale.obj
 0002:00003168       ??_C@_13NMPKAAJP@?$AA?$DN@ 000000014008a168     libucrt:wsetlocale.obj
 0002:0000316c       ??_C@_13IMODFHAA@?$AA?9@   000000014008a16c     libucrt:wsetlocale.obj
 0002:00003170       ??_C@_17EFJLDFDO@?$AA?9?$AA_?$AA?4@ 000000014008a170     libucrt:wsetlocale.obj
 0002:0000317c       ??_C@_13FHBKNHDA@?$AAC@    000000014008a17c     libucrt:wsetlocale.obj
 0002:00003180       ??_C@_17MBJJLFDM@?$AA_?$AA?4?$AA?0@ 000000014008a180     libucrt:wsetlocale.obj
 0002:0000318c       ??_C@_13ENNFDPBH@?$AA_@    000000014008a18c     libucrt:wsetlocale.obj
 0002:00003190       ??_C@_13JOFGPIOO@?$AA?4@   000000014008a190     libucrt:wsetlocale.obj
 0002:00003338       _Fenv1                     000000014008a338     libucrt:output.obj
 0002:00003350       ?standard_lookup_table_spectre@__crt_stdio_output@@3V?$spectre_mitigated_lookup_table@Ustate_transition_pair@__crt_stdio_output@@$0IA@@1@B 000000014008a350     libucrt:output.obj
 0002:00003490       ?format_validation_lookup_table_spectre@__crt_stdio_output@@3V?$spectre_mitigated_lookup_table@Ustate_transition_pair@__crt_stdio_output@@$0IA@@1@B 000000014008a490     libucrt:output.obj
 0002:00003b68       ??_C@_1O@CEDCILHN@?$AA?$CI?$AAn?$AAu?$AAl?$AAl?$AA?$CJ@ 000000014008ab68     libucrt:output.obj
 0002:00003b78       ??_C@_06OJHGLDPL@?$CInull?$CJ@ 000000014008ab78     libucrt:output.obj
 0002:00003d30       __lc_time_c                000000014008ad30     libucrt:nlsdata.obj
 0002:0000407c       ??_C@_03KOEHGMDN@Sun@      000000014008b07c     libucrt:nlsdata.obj
 0002:00004080       ??_C@_03PDAGKDH@Mon@       000000014008b080     libucrt:nlsdata.obj
 0002:00004084       ??_C@_03NAGEINEP@Tue@      000000014008b084     libucrt:nlsdata.obj
 0002:00004088       ??_C@_03MHOMLAJA@Wed@      000000014008b088     libucrt:nlsdata.obj
 0002:0000408c       ??_C@_03IOFIKPDN@Thu@      000000014008b08c     libucrt:nlsdata.obj
 0002:00004090       ??_C@_03IDIOELNC@Fri@      000000014008b090     libucrt:nlsdata.obj
 0002:00004094       ??_C@_03FEFJNEK@Sat@       000000014008b094     libucrt:nlsdata.obj
 0002:00004098       ??_C@_06OOPIFAJ@Sunday@    000000014008b098     libucrt:nlsdata.obj
 0002:000040a0       ??_C@_06JLEDEDGH@Monday@   000000014008b0a0     libucrt:nlsdata.obj
 0002:000040a8       ??_C@_07BAAGCFCM@Tuesday@  000000014008b0a8     libucrt:nlsdata.obj
 0002:000040b8       ??_C@_09DLIGFAKA@Wednesday@ 000000014008b0b8     libucrt:nlsdata.obj
 0002:000040c8       ??_C@_08HACCIKIA@Thursday@ 000000014008b0c8     libucrt:nlsdata.obj
 0002:000040d4       ??_C@_06JECMNKMI@Friday@   000000014008b0d4     libucrt:nlsdata.obj
 0002:000040e0       ??_C@_08INBOOONO@Saturday@ 000000014008b0e0     libucrt:nlsdata.obj
 0002:000040ec       ??_C@_03JIHJHPIE@Jan@      000000014008b0ec     libucrt:nlsdata.obj
 0002:000040f0       ??_C@_03HJBDCHOM@Feb@      000000014008b0f0     libucrt:nlsdata.obj
 0002:000040f4       ??_C@_03ODNJBKGA@Mar@      000000014008b0f4     libucrt:nlsdata.obj
 0002:000040f8       ??_C@_03LEOLGMJP@Apr@      000000014008b0f8     libucrt:nlsdata.obj
 0002:000040fc       ??_C@_03CNMDKL@May@        000000014008b0fc     libucrt:nlsdata.obj
 0002:00004100       ??_C@_03IDFGHECI@Jun@      000000014008b100     libucrt:nlsdata.obj
 0002:00004104       ??_C@_03LBGABGKK@Jul@      000000014008b104     libucrt:nlsdata.obj
 0002:00004108       ??_C@_03IFJFEIGA@Aug@      000000014008b108     libucrt:nlsdata.obj
 0002:0000410c       ??_C@_03GGCAPAJC@Sep@      000000014008b10c     libucrt:nlsdata.obj
 0002:00004110       ??_C@_03BMAOKBAD@Oct@      000000014008b110     libucrt:nlsdata.obj
 0002:00004114       ??_C@_03JPJOFNIA@Nov@      000000014008b114     libucrt:nlsdata.obj
 0002:00004118       ??_C@_03MKABNOCG@Dec@      000000014008b118     libucrt:nlsdata.obj
 0002:00004120       ??_C@_07CGJPFGJA@January@  000000014008b120     libucrt:nlsdata.obj
 0002:00004130       ??_C@_08GNJGEPFN@February@ 000000014008b130     libucrt:nlsdata.obj
 0002:0000413c       ??_C@_05HPCKOFNC@March@    000000014008b13c     libucrt:nlsdata.obj
 0002:00004144       ??_C@_05DMJDNLEJ@April@    000000014008b144     libucrt:nlsdata.obj
 0002:0000414c       ??_C@_04CNLMGBGM@June@     000000014008b14c     libucrt:nlsdata.obj
 0002:00004154       ??_C@_04MIEPOIFP@July@     000000014008b154     libucrt:nlsdata.obj
 0002:0000415c       ??_C@_06LBBHFDDG@August@   000000014008b15c     libucrt:nlsdata.obj
 0002:00004168       ??_C@_09BHHEALKD@September@ 000000014008b168     libucrt:nlsdata.obj
 0002:00004178       ??_C@_07JJNFCEND@October@  000000014008b178     libucrt:nlsdata.obj
 0002:00004188       ??_C@_08HCHEGEOA@November@ 000000014008b188     libucrt:nlsdata.obj
 0002:00004198       ??_C@_08EDHMEBNP@December@ 000000014008b198     libucrt:nlsdata.obj
 0002:000041a4       ??_C@_02DEDBPAFC@AM@       000000014008b1a4     libucrt:nlsdata.obj
 0002:000041a8       ??_C@_02CJNFDJBF@PM@       000000014008b1a8     libucrt:nlsdata.obj
 0002:000041b0       ??_C@_08BPBNCDIB@MM?1dd?1yy@ 000000014008b1b0     libucrt:nlsdata.obj
 0002:000041c0       ??_C@_0BE@CKGJFCPC@dddd?0?5MMMM?5dd?0?5yyyy@ 000000014008b1c0     libucrt:nlsdata.obj
 0002:000041d8       ??_C@_08JCCMCCIL@HH?3mm?3ss@ 000000014008b1d8     libucrt:nlsdata.obj
 0002:000041e8       ??_C@_17MBGCMIPB@?$AAS?$AAu?$AAn@ 000000014008b1e8     libucrt:nlsdata.obj
 0002:000041f8       ??_C@_17KBOMKBF@?$AAM?$AAo?$AAn@ 000000014008b1f8     libucrt:nlsdata.obj
 0002:00004208       ??_C@_17BMKGEGOJ@?$AAT?$AAu?$AAe@ 000000014008b208     libucrt:nlsdata.obj
 0002:00004218       ??_C@_17CJEDCEPE@?$AAW?$AAe?$AAd@ 000000014008b218     libucrt:nlsdata.obj
 0002:00004228       ??_C@_17PDPHAADD@?$AAT?$AAh?$AAu@ 000000014008b228     libucrt:nlsdata.obj
 0002:00004238       ??_C@_17HFOLPPLP@?$AAF?$AAr?$AAi@ 000000014008b238     libucrt:nlsdata.obj
 0002:00004248       ??_C@_17GGIBDPIH@?$AAS?$AAa?$AAt@ 000000014008b248     libucrt:nlsdata.obj
 0002:00004258       ??_C@_1O@IHNHDHPB@?$AAS?$AAu?$AAn?$AAd?$AAa?$AAy@ 000000014008b258     libucrt:nlsdata.obj
 0002:00004268       ??_C@_1O@MMNBFLIA@?$AAM?$AAo?$AAn?$AAd?$AAa?$AAy@ 000000014008b268     libucrt:nlsdata.obj
 0002:00004278       ??_C@_1BA@ENFBFFEK@?$AAT?$AAu?$AAe?$AAs?$AAd?$AAa?$AAy@ 000000014008b278     libucrt:nlsdata.obj
 0002:00004290       ??_C@_1BE@EBOGMDOH@?$AAW?$AAe?$AAd?$AAn?$AAe?$AAs?$AAd?$AAa?$AAy@ 000000014008b290     libucrt:nlsdata.obj
 0002:000042a8       ??_C@_1BC@HHMNLIHE@?$AAT?$AAh?$AAu?$AAr?$AAs?$AAd?$AAa?$AAy@ 000000014008b2a8     libucrt:nlsdata.obj
 0002:000042c0       ??_C@_1O@PDICJHAG@?$AAF?$AAr?$AAi?$AAd?$AAa?$AAy@ 000000014008b2c0     libucrt:nlsdata.obj
 0002:000042d0       ??_C@_1BC@ENMNNPAJ@?$AAS?$AAa?$AAt?$AAu?$AAr?$AAd?$AAa?$AAy@ 000000014008b2d0     libucrt:nlsdata.obj
 0002:000042e8       ??_C@_17DKNBKCHM@?$AAJ?$AAa?$AAn@ 000000014008b2e8     libucrt:nlsdata.obj
 0002:000042f8       ??_C@_17LMDJEKJN@?$AAF?$AAe?$AAb@ 000000014008b2f8     libucrt:nlsdata.obj
 0002:00004308       ??_C@_17CKNLEDEC@?$AAM?$AAa?$AAr@ 000000014008b308     libucrt:nlsdata.obj
 0002:00004318       ??_C@_17LFPOIHDD@?$AAA?$AAp?$AAr@ 000000014008b318     libucrt:nlsdata.obj
 0002:00004328       ??_C@_17PNNKMEED@?$AAM?$AAa?$AAy@ 000000014008b328     libucrt:nlsdata.obj
 0002:00004338       ??_C@_17KCJGOCPB@?$AAJ?$AAu?$AAn@ 000000014008b338     libucrt:nlsdata.obj
 0002:00004348       ??_C@_17IJPCKHK@?$AAJ?$AAu?$AAl@ 000000014008b348     libucrt:nlsdata.obj
 0002:00004358       ??_C@_17ICPELBCN@?$AAA?$AAu?$AAg@ 000000014008b358     libucrt:nlsdata.obj
 0002:00004368       ??_C@_17HCHCOKMG@?$AAS?$AAe?$AAp@ 000000014008b368     libucrt:nlsdata.obj
 0002:00004378       ??_C@_17FNLKOI@?$AAO?$AAc?$AAt@ 000000014008b378     libucrt:nlsdata.obj
 0002:00004388       ??_C@_17BBDMLCIG@?$AAN?$AAo?$AAv@ 000000014008b388     libucrt:nlsdata.obj
 0002:00004398       ??_C@_17EGKACKIF@?$AAD?$AAe?$AAc@ 000000014008b398     libucrt:nlsdata.obj
 0002:000043a8       ??_C@_1BA@EFMEIEBA@?$AAJ?$AAa?$AAn?$AAu?$AAa?$AAr?$AAy@ 000000014008b3a8     libucrt:nlsdata.obj
 0002:000043c0       ??_C@_1BC@JGDDFFAM@?$AAF?$AAe?$AAb?$AAr?$AAu?$AAa?$AAr?$AAy@ 000000014008b3c0     libucrt:nlsdata.obj
 0002:000043d8       ??_C@_1M@IKEENEDF@?$AAM?$AAa?$AAr?$AAc?$AAh@ 000000014008b3d8     libucrt:nlsdata.obj
 0002:000043e8       ??_C@_1M@GJNLMHFD@?$AAA?$AAp?$AAr?$AAi?$AAl@ 000000014008b3e8     libucrt:nlsdata.obj
 0002:000043f8       ??_C@_19EPFLPGAP@?$AAJ?$AAu?$AAn?$AAe@ 000000014008b3f8     libucrt:nlsdata.obj
 0002:00004408       ??_C@_19BIFMLPCD@?$AAJ?$AAu?$AAl?$AAy@ 000000014008b408     libucrt:nlsdata.obj
 0002:00004418       ??_C@_1O@PAHLKOAC@?$AAA?$AAu?$AAg?$AAu?$AAs?$AAt@ 000000014008b418     libucrt:nlsdata.obj
 0002:00004428       ??_C@_1BE@DKAAMBJL@?$AAS?$AAe?$AAp?$AAt?$AAe?$AAm?$AAb?$AAe?$AAr@ 000000014008b428     libucrt:nlsdata.obj
 0002:00004440       ??_C@_1BA@EPANDLNG@?$AAO?$AAc?$AAt?$AAo?$AAb?$AAe?$AAr@ 000000014008b440     libucrt:nlsdata.obj
 0002:00004458       ??_C@_1BC@BGLIFPF@?$AAN?$AAo?$AAv?$AAe?$AAm?$AAb?$AAe?$AAr@ 000000014008b458     libucrt:nlsdata.obj
 0002:00004470       ??_C@_1BC@FEMKIFH@?$AAD?$AAe?$AAc?$AAe?$AAm?$AAb?$AAe?$AAr@ 000000014008b470     libucrt:nlsdata.obj
 0002:00004488       ??_C@_15ODEHAHHF@?$AAA?$AAM@ 000000014008b488     libucrt:nlsdata.obj
 0002:00004490       ??_C@_15CLMNNGEL@?$AAP?$AAM@ 000000014008b490     libucrt:nlsdata.obj
 0002:00004498       ??_C@_1BC@IEBCMHCM@?$AAM?$AAM?$AA?1?$AAd?$AAd?$AA?1?$AAy?$AAy@ 000000014008b498     libucrt:nlsdata.obj
 0002:000044b0       ??_C@_1CI@KNAKOEBC@?$AAd?$AAd?$AAd?$AAd?$AA?0?$AA?5?$AAM?$AAM?$AAM?$AAM?$AA?5?$AAd?$AAd?$AA?0?$AA?5@ 000000014008b4b0     libucrt:nlsdata.obj
 0002:000044e0       ??_C@_1BC@GDGBMEMK@?$AAH?$AAH?$AA?3?$AAm?$AAm?$AA?3?$AAs?$AAs@ 000000014008b4e0     libucrt:nlsdata.obj
 0002:000044f8       ??_C@_1M@BMHNFIME@?$AAe?$AAn?$AA?9?$AAU?$AAS@ 000000014008b4f8     libucrt:nlsdata.obj
 0002:000046e8       ??_C@_1M@HPNHIDJI@?$AAj?$AAa?$AA?9?$AAJ?$AAP@ 000000014008b6e8     libucrt:mbctype.obj
 0002:000046f8       ??_C@_1M@BIBDDEMK@?$AAz?$AAh?$AA?9?$AAC?$AAN@ 000000014008b6f8     libucrt:mbctype.obj
 0002:00004708       ??_C@_1M@JLOOOEGK@?$AAk?$AAo?$AA?9?$AAK?$AAR@ 000000014008b708     libucrt:mbctype.obj
 0002:00004718       ??_C@_1M@CLNBBOPM@?$AAz?$AAh?$AA?9?$AAT?$AAW@ 000000014008b718     libucrt:mbctype.obj
 0002:00004728       RtlNtPathSeperatorString   000000014008b728     libucrt:peb_access.obj
 0002:0000473c       ??_C@_13FPGAJAPJ@?$AA?2@   000000014008b73c     libucrt:peb_access.obj
 0002:00004740       RtlDosPathSeperatorsString 000000014008b740     libucrt:peb_access.obj
 0002:00004754       ??_C@_15MNCACJLI@?$AA?2?$AA?1@ 000000014008b754     libucrt:peb_access.obj
 0002:00004760       RtlAlternateDosPathSeperatorString 000000014008b760     libucrt:peb_access.obj
 0002:00004774       ??_C@_13CGOKJPIL@?$AA?1@   000000014008b774     libucrt:peb_access.obj
 0002:00004780       __newctype                 000000014008b780     libucrt:ctype.obj
 0002:00004b20       __newclmap                 000000014008bb20     libucrt:ctype.obj
 0002:00004cf0       __newcumap                 000000014008bcf0     libucrt:ctype.obj
 0002:00004ec0       _wctype                    000000014008bec0     libucrt:ctype.obj
 0002:00005130       __acrt_rg_language         000000014008c130     libucrt:get_qualified_locale.obj
 0002:00005610       __acrt_rg_language_count   000000014008c610     libucrt:get_qualified_locale.obj
 0002:00005620       __acrt_rg_country          000000014008c620     libucrt:get_qualified_locale.obj
 0002:000057e0       __acrt_rg_country_count    000000014008c7e0     libucrt:get_qualified_locale.obj
 0002:000057f0       ??_C@_1BC@LLOKLNP@?$AAa?$AAm?$AAe?$AAr?$AAi?$AAc?$AAa?$AAn@ 000000014008c7f0     libucrt:get_qualified_locale.obj
 0002:00005808       ??_C@_1CC@HEIGCDGG@?$AAa?$AAm?$AAe?$AAr?$AAi?$AAc?$AAa?$AAn?$AA?5?$AAe?$AAn?$AAg?$AAl?$AAi?$AAs@ 000000014008c808     libucrt:get_qualified_locale.obj
 0002:00005830       ??_C@_1CC@IHCNOMIN@?$AAa?$AAm?$AAe?$AAr?$AAi?$AAc?$AAa?$AAn?$AA?9?$AAe?$AAn?$AAg?$AAl?$AAi?$AAs@ 000000014008c830     libucrt:get_qualified_locale.obj
 0002:00005858       ??_C@_1BG@GKAGPCGG@?$AAa?$AAu?$AAs?$AAt?$AAr?$AAa?$AAl?$AAi?$AAa?$AAn@ 000000014008c858     libucrt:get_qualified_locale.obj
 0002:00005878       ??_C@_1BA@GMENCENF@?$AAb?$AAe?$AAl?$AAg?$AAi?$AAa?$AAn@ 000000014008c878     libucrt:get_qualified_locale.obj
 0002:00005890       ??_C@_1BC@PJMIIAAN@?$AAc?$AAa?$AAn?$AAa?$AAd?$AAi?$AAa?$AAn@ 000000014008c890     libucrt:get_qualified_locale.obj
 0002:000058a8       ??_C@_17NOIMNFBF@?$AAc?$AAh?$AAh@ 000000014008c8a8     libucrt:get_qualified_locale.obj
 0002:000058b8       ??_C@_17GGDALCHA@?$AAc?$AAh?$AAi@ 000000014008c8b8     libucrt:get_qualified_locale.obj
 0002:000058c8       ??_C@_1BA@NPNJKIBL@?$AAc?$AAh?$AAi?$AAn?$AAe?$AAs?$AAe@ 000000014008c8c8     libucrt:get_qualified_locale.obj
 0002:000058e0       ??_C@_1CC@DINBAMMJ@?$AAc?$AAh?$AAi?$AAn?$AAe?$AAs?$AAe?$AA?9?$AAh?$AAo?$AAn?$AAg?$AAk?$AAo?$AAn@ 000000014008c8e0     libucrt:get_qualified_locale.obj
 0002:00005908       ??_C@_1CG@IOBJPACO@?$AAc?$AAh?$AAi?$AAn?$AAe?$AAs?$AAe?$AA?9?$AAs?$AAi?$AAm?$AAp?$AAl?$AAi?$AAf@ 000000014008c908     libucrt:get_qualified_locale.obj
 0002:00005938       ??_C@_1CE@GAJNDCKG@?$AAc?$AAh?$AAi?$AAn?$AAe?$AAs?$AAe?$AA?9?$AAs?$AAi?$AAn?$AAg?$AAa?$AAp?$AAo@ 000000014008c938     libucrt:get_qualified_locale.obj
 0002:00005968       ??_C@_1CI@PAJPIOOD@?$AAc?$AAh?$AAi?$AAn?$AAe?$AAs?$AAe?$AA?9?$AAt?$AAr?$AAa?$AAd?$AAi?$AAt?$AAi@ 000000014008c968     libucrt:get_qualified_locale.obj
 0002:00005998       ??_C@_1BM@NILJBMMD@?$AAd?$AAu?$AAt?$AAc?$AAh?$AA?9?$AAb?$AAe?$AAl?$AAg?$AAi?$AAa?$AAn@ 000000014008c998     libucrt:get_qualified_locale.obj
 0002:000059c0       ??_C@_1CC@OOJPJNEJ@?$AAe?$AAn?$AAg?$AAl?$AAi?$AAs?$AAh?$AA?9?$AAa?$AAm?$AAe?$AAr?$AAi?$AAc?$AAa@ 000000014008c9c0     libucrt:get_qualified_locale.obj
 0002:000059e8       ??_C@_1BI@IOLFEEM@?$AAe?$AAn?$AAg?$AAl?$AAi?$AAs?$AAh?$AA?9?$AAa?$AAu?$AAs@ 000000014008c9e8     libucrt:get_qualified_locale.obj
 0002:00005a08       ??_C@_1BO@HFFNLENJ@?$AAe?$AAn?$AAg?$AAl?$AAi?$AAs?$AAh?$AA?9?$AAb?$AAe?$AAl?$AAi?$AAz?$AAe@ 000000014008ca08     libucrt:get_qualified_locale.obj
 0002:00005a30       ??_C@_1BI@HAPKJMPO@?$AAe?$AAn?$AAg?$AAl?$AAi?$AAs?$AAh?$AA?9?$AAc?$AAa?$AAn@ 000000014008ca30     libucrt:get_qualified_locale.obj
 0002:00005a50       ??_C@_1CE@HLNDMIOJ@?$AAe?$AAn?$AAg?$AAl?$AAi?$AAs?$AAh?$AA?9?$AAc?$AAa?$AAr?$AAi?$AAb?$AAb?$AAe@ 000000014008ca50     libucrt:get_qualified_locale.obj
 0002:00005a80       ??_C@_1BI@LDHJHHAC@?$AAe?$AAn?$AAg?$AAl?$AAi?$AAs?$AAh?$AA?9?$AAi?$AAr?$AAe@ 000000014008ca80     libucrt:get_qualified_locale.obj
 0002:00005aa0       ??_C@_1CA@NJMMCFOC@?$AAe?$AAn?$AAg?$AAl?$AAi?$AAs?$AAh?$AA?9?$AAj?$AAa?$AAm?$AAa?$AAi?$AAc?$AAa@ 000000014008caa0     libucrt:get_qualified_locale.obj
 0002:00005ac8       ??_C@_1BG@BHJEBBGG@?$AAe?$AAn?$AAg?$AAl?$AAi?$AAs?$AAh?$AA?9?$AAn?$AAz@ 000000014008cac8     libucrt:get_qualified_locale.obj
 0002:00005ae8       ??_C@_1CK@FGOEJJCO@?$AAe?$AAn?$AAg?$AAl?$AAi?$AAs?$AAh?$AA?9?$AAs?$AAo?$AAu?$AAt?$AAh?$AA?5?$AAa@ 000000014008cae8     libucrt:get_qualified_locale.obj
 0002:00005b20       ??_C@_1DE@PDBJPCJ@?$AAe?$AAn?$AAg?$AAl?$AAi?$AAs?$AAh?$AA?9?$AAt?$AAr?$AAi?$AAn?$AAi?$AAd?$AAa@ 000000014008cb20     libucrt:get_qualified_locale.obj
 0002:00005b60       ??_C@_1BG@JGCANDME@?$AAe?$AAn?$AAg?$AAl?$AAi?$AAs?$AAh?$AA?9?$AAu?$AAk@ 000000014008cb60     libucrt:get_qualified_locale.obj
 0002:00005b80       ??_C@_1BG@DINKMLE@?$AAe?$AAn?$AAg?$AAl?$AAi?$AAs?$AAh?$AA?9?$AAu?$AAs@ 000000014008cb80     libucrt:get_qualified_locale.obj
 0002:00005ba0       ??_C@_1BI@NMFDBHJE@?$AAe?$AAn?$AAg?$AAl?$AAi?$AAs?$AAh?$AA?9?$AAu?$AAs?$AAa@ 000000014008cba0     libucrt:get_qualified_locale.obj
 0002:00005bc0       ??_C@_1BO@OIHKJKII@?$AAf?$AAr?$AAe?$AAn?$AAc?$AAh?$AA?9?$AAb?$AAe?$AAl?$AAg?$AAi?$AAa?$AAn@ 000000014008cbc0     libucrt:get_qualified_locale.obj
 0002:00005be8       ??_C@_1CA@NKAELJKI@?$AAf?$AAr?$AAe?$AAn?$AAc?$AAh?$AA?9?$AAc?$AAa?$AAn?$AAa?$AAd?$AAi?$AAa?$AAn@ 000000014008cbe8     libucrt:get_qualified_locale.obj
 0002:00005c10       ??_C@_1CE@MGKCNLGN@?$AAf?$AAr?$AAe?$AAn?$AAc?$AAh?$AA?9?$AAl?$AAu?$AAx?$AAe?$AAm?$AAb?$AAo?$AAu@ 000000014008cc10     libucrt:get_qualified_locale.obj
 0002:00005c40       ??_C@_1BK@CEGEAILM@?$AAf?$AAr?$AAe?$AAn?$AAc?$AAh?$AA?9?$AAs?$AAw?$AAi?$AAs?$AAs@ 000000014008cc40     libucrt:get_qualified_locale.obj
 0002:00005c60       ??_C@_1CA@PAFKEOCC@?$AAg?$AAe?$AAr?$AAm?$AAa?$AAn?$AA?9?$AAa?$AAu?$AAs?$AAt?$AAr?$AAi?$AAa?$AAn@ 000000014008cc60     libucrt:get_qualified_locale.obj
 0002:00005c88       ??_C@_1CI@HCFHGOFD@?$AAg?$AAe?$AAr?$AAm?$AAa?$AAn?$AA?9?$AAl?$AAi?$AAc?$AAh?$AAt?$AAe?$AAn?$AAs@ 000000014008cc88     libucrt:get_qualified_locale.obj
 0002:00005cb8       ??_C@_1CE@FEDDNPDG@?$AAg?$AAe?$AAr?$AAm?$AAa?$AAn?$AA?9?$AAl?$AAu?$AAx?$AAe?$AAm?$AAb?$AAo?$AAu@ 000000014008ccb8     libucrt:get_qualified_locale.obj
 0002:00005ce8       ??_C@_1BK@LIMINNMN@?$AAg?$AAe?$AAr?$AAm?$AAa?$AAn?$AA?9?$AAs?$AAw?$AAi?$AAs?$AAs@ 000000014008cce8     libucrt:get_qualified_locale.obj
 0002:00005d08       ??_C@_1BM@LGMDBEPD@?$AAi?$AAr?$AAi?$AAs?$AAh?$AA?9?$AAe?$AAn?$AAg?$AAl?$AAi?$AAs?$AAh@ 000000014008cd08     libucrt:get_qualified_locale.obj
 0002:00005d30       ??_C@_1BM@NNCFBAEE@?$AAi?$AAt?$AAa?$AAl?$AAi?$AAa?$AAn?$AA?9?$AAs?$AAw?$AAi?$AAs?$AAs@ 000000014008cd30     libucrt:get_qualified_locale.obj
 0002:00005d58       ??_C@_1BE@FEDJNPIB@?$AAn?$AAo?$AAr?$AAw?$AAe?$AAg?$AAi?$AAa?$AAn@ 000000014008cd58     libucrt:get_qualified_locale.obj
 0002:00005d70       ??_C@_1CC@CILKDEIE@?$AAn?$AAo?$AAr?$AAw?$AAe?$AAg?$AAi?$AAa?$AAn?$AA?9?$AAb?$AAo?$AAk?$AAm?$AAa@ 000000014008cd70     libucrt:get_qualified_locale.obj
 0002:00005d98       ??_C@_1CE@DHMMHEPL@?$AAn?$AAo?$AAr?$AAw?$AAe?$AAg?$AAi?$AAa?$AAn?$AA?9?$AAn?$AAy?$AAn?$AAo?$AAr@ 000000014008cd98     libucrt:get_qualified_locale.obj
 0002:00005dc8       ??_C@_1CK@OPNMHECD@?$AAp?$AAo?$AAr?$AAt?$AAu?$AAg?$AAu?$AAe?$AAs?$AAe?$AA?9?$AAb?$AAr?$AAa?$AAz@ 000000014008cdc8     libucrt:get_qualified_locale.obj
 0002:00005e00       ??_C@_1CE@KEEHCDB@?$AAs?$AAp?$AAa?$AAn?$AAi?$AAs?$AAh?$AA?9?$AAa?$AAr?$AAg?$AAe?$AAn?$AAt?$AAi@ 000000014008ce00     libucrt:get_qualified_locale.obj
 0002:00005e30       ??_C@_1CA@GIAOLHJD@?$AAs?$AAp?$AAa?$AAn?$AAi?$AAs?$AAh?$AA?9?$AAb?$AAo?$AAl?$AAi?$AAv?$AAi?$AAa@ 000000014008ce30     libucrt:get_qualified_locale.obj
 0002:00005e58       ??_C@_1BM@OJNDFNPD@?$AAs?$AAp?$AAa?$AAn?$AAi?$AAs?$AAh?$AA?9?$AAc?$AAh?$AAi?$AAl?$AAe@ 000000014008ce58     libucrt:get_qualified_locale.obj
 0002:00005e80       ??_C@_1CC@OCOLPALL@?$AAs?$AAp?$AAa?$AAn?$AAi?$AAs?$AAh?$AA?9?$AAc?$AAo?$AAl?$AAo?$AAm?$AAb?$AAi@ 000000014008ce80     libucrt:get_qualified_locale.obj
 0002:00005ea8       ??_C@_1CG@BPOFMKBB@?$AAs?$AAp?$AAa?$AAn?$AAi?$AAs?$AAh?$AA?9?$AAc?$AAo?$AAs?$AAt?$AAa?$AA?5?$AAr@ 000000014008cea8     libucrt:get_qualified_locale.obj
 0002:00005ed8       ??_C@_1DG@IGOBAPBB@?$AAs?$AAp?$AAa?$AAn?$AAi?$AAs?$AAh?$AA?9?$AAd?$AAo?$AAm?$AAi?$AAn?$AAi?$AAc@ 000000014008ced8     libucrt:get_qualified_locale.obj
 0002:00005f18       ??_C@_1CA@JHAPGEGI@?$AAs?$AAp?$AAa?$AAn?$AAi?$AAs?$AAh?$AA?9?$AAe?$AAc?$AAu?$AAa?$AAd?$AAo?$AAr@ 000000014008cf18     libucrt:get_qualified_locale.obj
 0002:00005f40       ??_C@_1CI@LAPALJPP@?$AAs?$AAp?$AAa?$AAn?$AAi?$AAs?$AAh?$AA?9?$AAe?$AAl?$AA?5?$AAs?$AAa?$AAl?$AAv@ 000000014008cf40     libucrt:get_qualified_locale.obj
 0002:00005f70       ??_C@_1CE@PDGBOFOM@?$AAs?$AAp?$AAa?$AAn?$AAi?$AAs?$AAh?$AA?9?$AAg?$AAu?$AAa?$AAt?$AAe?$AAm?$AAa@ 000000014008cf70     libucrt:get_qualified_locale.obj
 0002:00005fa0       ??_C@_1CC@NBEBAODI@?$AAs?$AAp?$AAa?$AAn?$AAi?$AAs?$AAh?$AA?9?$AAh?$AAo?$AAn?$AAd?$AAu?$AAr?$AAa@ 000000014008cfa0     libucrt:get_qualified_locale.obj
 0002:00005fc8       ??_C@_1CA@LLKGHBMF@?$AAs?$AAp?$AAa?$AAn?$AAi?$AAs?$AAh?$AA?9?$AAm?$AAe?$AAx?$AAi?$AAc?$AAa?$AAn@ 000000014008cfc8     libucrt:get_qualified_locale.obj
 0002:00005ff0       ??_C@_1BO@LKNDOIGD@?$AAs?$AAp?$AAa?$AAn?$AAi?$AAs?$AAh?$AA?9?$AAm?$AAo?$AAd?$AAe?$AAr?$AAn@ 000000014008cff0     libucrt:get_qualified_locale.obj
 0002:00006018       ??_C@_1CE@NMDMOEEB@?$AAs?$AAp?$AAa?$AAn?$AAi?$AAs?$AAh?$AA?9?$AAn?$AAi?$AAc?$AAa?$AAr?$AAa?$AAg@ 000000014008d018     libucrt:get_qualified_locale.obj
 0002:00006048       ??_C@_1BO@LLCBEJGB@?$AAs?$AAp?$AAa?$AAn?$AAi?$AAs?$AAh?$AA?9?$AAp?$AAa?$AAn?$AAa?$AAm?$AAa@ 000000014008d048     libucrt:get_qualified_locale.obj
 0002:00006070       ??_C@_1CC@FKPGGIHO@?$AAs?$AAp?$AAa?$AAn?$AAi?$AAs?$AAh?$AA?9?$AAp?$AAa?$AAr?$AAa?$AAg?$AAu?$AAa@ 000000014008d070     libucrt:get_qualified_locale.obj
 0002:00006098       ??_C@_1BK@CDEIHOOP@?$AAs?$AAp?$AAa?$AAn?$AAi?$AAs?$AAh?$AA?9?$AAp?$AAe?$AAr?$AAu@ 000000014008d098     libucrt:get_qualified_locale.obj
 0002:000060b8       ??_C@_1CI@GAHAKKGP@?$AAs?$AAp?$AAa?$AAn?$AAi?$AAs?$AAh?$AA?9?$AAp?$AAu?$AAe?$AAr?$AAt?$AAo?$AA?5@ 000000014008d0b8     libucrt:get_qualified_locale.obj
 0002:000060e8       ??_C@_1CA@NKJBCAGP@?$AAs?$AAp?$AAa?$AAn?$AAi?$AAs?$AAh?$AA?9?$AAu?$AAr?$AAu?$AAg?$AAu?$AAa?$AAy@ 000000014008d0e8     libucrt:get_qualified_locale.obj
 0002:00006110       ??_C@_1CE@ODILCONM@?$AAs?$AAp?$AAa?$AAn?$AAi?$AAs?$AAh?$AA?9?$AAv?$AAe?$AAn?$AAe?$AAz?$AAu?$AAe@ 000000014008d110     libucrt:get_qualified_locale.obj
 0002:00006140       ??_C@_1CA@OBNMCGFO@?$AAs?$AAw?$AAe?$AAd?$AAi?$AAs?$AAh?$AA?9?$AAf?$AAi?$AAn?$AAl?$AAa?$AAn?$AAd@ 000000014008d140     libucrt:get_qualified_locale.obj
 0002:00006168       ??_C@_1M@PIPDDPPI@?$AAs?$AAw?$AAi?$AAs?$AAs@ 000000014008d168     libucrt:get_qualified_locale.obj
 0002:00006178       ??_C@_15PJPFLCCM@?$AAu?$AAk@ 000000014008d178     libucrt:get_qualified_locale.obj
 0002:00006180       ??_C@_15GMFIMNFM@?$AAu?$AAs@ 000000014008d180     libucrt:get_qualified_locale.obj
 0002:00006188       ??_C@_17HAEBFAGL@?$AAu?$AAs?$AAa@ 000000014008d188     libucrt:get_qualified_locale.obj
 0002:00006198       ??_C@_1BA@DPFJEPHB@?$AAa?$AAm?$AAe?$AAr?$AAi?$AAc?$AAa@ 000000014008d198     libucrt:get_qualified_locale.obj
 0002:000061b0       ??_C@_1BA@ELOGGFK@?$AAb?$AAr?$AAi?$AAt?$AAa?$AAi?$AAn@ 000000014008d1b0     libucrt:get_qualified_locale.obj
 0002:000061c8       ??_C@_1M@GHBGIGDA@?$AAc?$AAh?$AAi?$AAn?$AAa@ 000000014008d1c8     libucrt:get_qualified_locale.obj
 0002:000061d8       ??_C@_1M@NCHEJOPO@?$AAc?$AAz?$AAe?$AAc?$AAh@ 000000014008d1d8     libucrt:get_qualified_locale.obj
 0002:000061e8       ??_C@_1BA@BKPAPBLA@?$AAe?$AAn?$AAg?$AAl?$AAa?$AAn?$AAd@ 000000014008d1e8     libucrt:get_qualified_locale.obj
 0002:00006200       ??_C@_1BM@HKBCKIPC@?$AAg?$AAr?$AAe?$AAa?$AAt?$AA?5?$AAb?$AAr?$AAi?$AAt?$AAa?$AAi?$AAn@ 000000014008d200     libucrt:get_qualified_locale.obj
 0002:00006228       ??_C@_1BA@PPCHPGJB@?$AAh?$AAo?$AAl?$AAl?$AAa?$AAn?$AAd@ 000000014008d228     libucrt:get_qualified_locale.obj
 0002:00006240       ??_C@_1BE@JBMPEGDG@?$AAh?$AAo?$AAn?$AAg?$AA?9?$AAk?$AAo?$AAn?$AAg@ 000000014008d240     libucrt:get_qualified_locale.obj
 0002:00006258       ??_C@_1BI@KOELBBPJ@?$AAn?$AAe?$AAw?$AA?9?$AAz?$AAe?$AAa?$AAl?$AAa?$AAn?$AAd@ 000000014008d258     libucrt:get_qualified_locale.obj
 0002:00006274       ??_C@_15HIEBHAIO@?$AAn?$AAz@ 000000014008d274     libucrt:get_qualified_locale.obj
 0002:00006280       ??_C@_1BC@CHBCPFPI@?$AAp?$AAr?$AA?5?$AAc?$AAh?$AAi?$AAn?$AAa@ 000000014008d280     libucrt:get_qualified_locale.obj
 0002:00006298       ??_C@_1BC@JAOIIFKD@?$AAp?$AAr?$AA?9?$AAc?$AAh?$AAi?$AAn?$AAa@ 000000014008d298     libucrt:get_qualified_locale.obj
 0002:000062b0       ??_C@_1BI@BEHPPHKC@?$AAp?$AAu?$AAe?$AAr?$AAt?$AAo?$AA?9?$AAr?$AAi?$AAc?$AAo@ 000000014008d2b0     libucrt:get_qualified_locale.obj
 0002:000062d0       ??_C@_1O@PAEOFKDI@?$AAs?$AAl?$AAo?$AAv?$AAa?$AAk@ 000000014008d2d0     libucrt:get_qualified_locale.obj
 0002:000062e0       ??_C@_1BK@FIHMCKAM@?$AAs?$AAo?$AAu?$AAt?$AAh?$AA?5?$AAa?$AAf?$AAr?$AAi?$AAc?$AAa@ 000000014008d2e0     libucrt:get_qualified_locale.obj
 0002:00006300       ??_C@_1BI@NAEOODKB@?$AAs?$AAo?$AAu?$AAt?$AAh?$AA?5?$AAk?$AAo?$AAr?$AAe?$AAa@ 000000014008d300     libucrt:get_qualified_locale.obj
 0002:00006320       ??_C@_1BK@FBDGGIFF@?$AAs?$AAo?$AAu?$AAt?$AAh?$AA?9?$AAa?$AAf?$AAr?$AAi?$AAc?$AAa@ 000000014008d320     libucrt:get_qualified_locale.obj
 0002:00006340       ??_C@_1BI@GHLEJDPK@?$AAs?$AAo?$AAu?$AAt?$AAh?$AA?9?$AAk?$AAo?$AAr?$AAe?$AAa@ 000000014008d340     libucrt:get_qualified_locale.obj
 0002:00006360       ??_C@_1CE@PLHLOMJF@?$AAt?$AAr?$AAi?$AAn?$AAi?$AAd?$AAa?$AAd?$AA?5?$AA?$CG?$AA?5?$AAt?$AAo?$AAb?$AAa@ 000000014008d360     libucrt:get_qualified_locale.obj
 0002:00006390       ??_C@_1BO@MODIMHHI@?$AAu?$AAn?$AAi?$AAt?$AAe?$AAd?$AA?9?$AAk?$AAi?$AAn?$AAg?$AAd?$AAo?$AAm@ 000000014008d390     libucrt:get_qualified_locale.obj
 0002:000063b8       ??_C@_1BM@FFHJONBJ@?$AAu?$AAn?$AAi?$AAt?$AAe?$AAd?$AA?9?$AAs?$AAt?$AAa?$AAt?$AAe?$AAs@ 000000014008d3b8     libucrt:get_qualified_locale.obj
 0002:000063e0       ??_C@_19MPDNHKDG@?$AAu?$AAt?$AAf?$AA8@ 000000014008d3e0     libucrt:get_qualified_locale.obj
 0002:000063f0       ??_C@_17DNCLJFIF@?$AAA?$AAC?$AAP@ 000000014008d3f0     libucrt:get_qualified_locale.obj
 0002:00006400       ??_C@_1M@FPEIIFAM@?$AAu?$AAt?$AAf?$AA?9?$AA8@ 000000014008d400     libucrt:get_qualified_locale.obj
 0002:00006410       ??_C@_17CIKBIHLH@?$AAO?$AAC?$AAP@ 000000014008d410     libucrt:get_qualified_locale.obj
 0002:00006420       __rglangidNotDefault       000000014008d420     libucrt:getqloc_downlevel.obj
 0002:00006520       ??_C@_1EA@JGEFHKEI@?$AAa?$AAp?$AAi?$AA?9?$AAm?$AAs?$AA?9?$AAw?$AAi?$AAn?$AA?9?$AAc?$AAo?$AAr?$AAe@ 000000014008d520     libucrt:winapi_thunks.obj
 0002:00006570       ??_C@_1DM@LFJCLCKP@?$AAa?$AAp?$AAi?$AA?9?$AAm?$AAs?$AA?9?$AAw?$AAi?$AAn?$AA?9?$AAc?$AAo?$AAr?$AAe@ 000000014008d570     libucrt:winapi_thunks.obj
 0002:000065b8       ??_C@_1DI@KMEPCBPN@?$AAa?$AAp?$AAi?$AA?9?$AAm?$AAs?$AA?9?$AAw?$AAi?$AAn?$AA?9?$AAc?$AAo?$AAr?$AAe@ 000000014008d5b8     libucrt:winapi_thunks.obj
 0002:00006600       ??_C@_1DI@IJCEHOCB@?$AAa?$AAp?$AAi?$AA?9?$AAm?$AAs?$AA?9?$AAw?$AAi?$AAn?$AA?9?$AAc?$AAo?$AAr?$AAe@ 000000014008d600     libucrt:winapi_thunks.obj
 0002:00006648       ??_C@_1DI@FFFOPEOO@?$AAa?$AAp?$AAi?$AA?9?$AAm?$AAs?$AA?9?$AAw?$AAi?$AAn?$AA?9?$AAc?$AAo?$AAr?$AAe@ 000000014008d648     libucrt:winapi_thunks.obj
 0002:00006690       ??_C@_1EI@MPIAOHOC@?$AAa?$AAp?$AAi?$AA?9?$AAm?$AAs?$AA?9?$AAw?$AAi?$AAn?$AA?9?$AAc?$AAo?$AAr?$AAe@ 000000014008d690     libucrt:winapi_thunks.obj
 0002:000066f0       ??_C@_1FK@FPHCKFIE@?$AAa?$AAp?$AAi?$AA?9?$AAm?$AAs?$AA?9?$AAw?$AAi?$AAn?$AA?9?$AAc?$AAo?$AAr?$AAe@ 000000014008d6f0     libucrt:winapi_thunks.obj
 0002:00006760       ??_C@_1EM@DILCGIIO@?$AAa?$AAp?$AAi?$AA?9?$AAm?$AAs?$AA?9?$AAw?$AAi?$AAn?$AA?9?$AAc?$AAo?$AAr?$AAe@ 000000014008d760     libucrt:winapi_thunks.obj
 0002:000067c0       ??_C@_1DM@LNCGDDPN@?$AAa?$AAp?$AAi?$AA?9?$AAm?$AAs?$AA?9?$AAw?$AAi?$AAn?$AA?9?$AAc?$AAo?$AAr?$AAe@ 000000014008d7c0     libucrt:winapi_thunks.obj
 0002:00006808       ??_C@_1DO@FPAPJEMD@?$AAa?$AAp?$AAi?$AA?9?$AAm?$AAs?$AA?9?$AAw?$AAi?$AAn?$AA?9?$AAc?$AAo?$AAr?$AAe@ 000000014008d808     libucrt:winapi_thunks.obj
 0002:00006858       ??_C@_1DK@NDHNAHIO@?$AAa?$AAp?$AAi?$AA?9?$AAm?$AAs?$AA?9?$AAw?$AAi?$AAn?$AA?9?$AAc?$AAo?$AAr?$AAe@ 000000014008d858     libucrt:winapi_thunks.obj
 0002:000068a0       ??_C@_1DM@KGHDGBCM@?$AAa?$AAp?$AAi?$AA?9?$AAm?$AAs?$AA?9?$AAw?$AAi?$AAn?$AA?9?$AAc?$AAo?$AAr?$AAe@ 000000014008d8a0     libucrt:winapi_thunks.obj
 0002:000068f0       ??_C@_1EO@IJIOEFOH@?$AAa?$AAp?$AAi?$AA?9?$AAm?$AAs?$AA?9?$AAw?$AAi?$AAn?$AA?9?$AAr?$AAt?$AAc?$AAo@ 000000014008d8f0     libucrt:winapi_thunks.obj
 0002:00006950       ??_C@_1FG@HHGEKANL@?$AAa?$AAp?$AAi?$AA?9?$AAm?$AAs?$AA?9?$AAw?$AAi?$AAn?$AA?9?$AAs?$AAe?$AAc?$AAu@ 000000014008d950     libucrt:winapi_thunks.obj
 0002:000069c0       ??_C@_1EG@DBIOJECG@?$AAe?$AAx?$AAt?$AA?9?$AAm?$AAs?$AA?9?$AAw?$AAi?$AAn?$AA?9?$AAn?$AAt?$AAu?$AAs@ 000000014008d9c0     libucrt:winapi_thunks.obj
 0002:00006a20       ??_C@_1EO@FIHMJCLF@?$AAe?$AAx?$AAt?$AA?9?$AAm?$AAs?$AA?9?$AAw?$AAi?$AAn?$AA?9?$AAn?$AAt?$AAu?$AAs@ 000000014008da20     libucrt:winapi_thunks.obj
 0002:00006a80       ??_C@_1BC@DNHGCMLG@?$AAa?$AAd?$AAv?$AAa?$AAp?$AAi?$AA3?$AA2@ 000000014008da80     libucrt:winapi_thunks.obj
 0002:00006a98       ??_C@_1BG@CJPGBMEF@?$AAk?$AAe?$AAr?$AAn?$AAe?$AAl?$AAb?$AAa?$AAs?$AAe@ 000000014008da98     libucrt:winapi_thunks.obj
 0002:00006ab8       ??_C@_1M@OAIMIKLP@?$AAn?$AAt?$AAd?$AAl?$AAl@ 000000014008dab8     libucrt:winapi_thunks.obj
 0002:00006ad0       ??_C@_1EG@DPGNFKGC@?$AAa?$AAp?$AAi?$AA?9?$AAm?$AAs?$AA?9?$AAw?$AAi?$AAn?$AA?9?$AAa?$AAp?$AAp?$AAm@ 000000014008dad0     libucrt:winapi_thunks.obj
 0002:00006b28       ??_C@_1O@BCCLBEOE@?$AAu?$AAs?$AAe?$AAr?$AA3?$AA2@ 000000014008db28     libucrt:winapi_thunks.obj
 0002:00006b38       ??_C@_1BA@IAIFMGEF@?$AAe?$AAx?$AAt?$AA?9?$AAm?$AAs?$AA?9@ 000000014008db38     libucrt:winapi_thunks.obj
 0002:00006b50       ??_C@_0BA@FHFNEAED@AreFileApisANSI@ 000000014008db50     libucrt:winapi_thunks.obj
 0002:00006b78       ??_C@_0BA@IHGNDAEB@CompareStringEx@ 000000014008db78     libucrt:winapi_thunks.obj
 0002:00006ba0       ??_C@_0BE@LJANKFHF@EnumSystemLocalesEx@ 000000014008dba0     libucrt:winapi_thunks.obj
 0002:00006bc8       ??_C@_0N@MFBBDCAC@FlsGetValue2@ 000000014008dbc8     libucrt:winapi_thunks.obj
 0002:00006be8       ??_C@_0BA@HNOPNCHB@GetActiveWindow@ 000000014008dbe8     libucrt:winapi_thunks.obj
 0002:00006c10       ??_C@_0BA@EPCJIIPD@GetDateFormatEx@ 000000014008dc10     libucrt:winapi_thunks.obj
 0002:00006c38       ??_C@_0O@NNMIPI@GetTempPath2W@ 000000014008dc38     libucrt:winapi_thunks.obj
 0002:00006c58       ??_C@_0BJ@IGDICJAB@GetFileInformationByName@ 000000014008dc58     libucrt:winapi_thunks.obj
 0002:00006c88       ??_C@_0BJ@DIBIJBHA@GetEnabledXStateFeatures@ 000000014008dc88     libucrt:winapi_thunks.obj
 0002:00006cb8       ??_C@_0BD@HHGDFDBJ@GetLastActivePopup@ 000000014008dcb8     libucrt:winapi_thunks.obj
 0002:00006ce0       ??_C@_0BA@ONOKGCMP@GetLocaleInfoEx@ 000000014008dce0     libucrt:winapi_thunks.obj
 0002:00006d08       ??_C@_0BI@DFKBFLJE@GetProcessWindowStation@ 000000014008dd08     libucrt:winapi_thunks.obj
 0002:00006d28       ??_C@_0BP@FPNJPEJC@GetSystemTimePreciseAsFileTime@ 000000014008dd28     libucrt:winapi_thunks.obj
 0002:00006d60       ??_C@_0BA@CIJJKCJJ@GetTimeFormatEx@ 000000014008dd60     libucrt:winapi_thunks.obj
 0002:00006d88       ??_C@_0BJ@PBCCBIPI@GetUserDefaultLocaleName@ 000000014008dd88     libucrt:winapi_thunks.obj
 0002:00006db8       ??_C@_0BK@DEKFELLI@GetUserObjectInformationW@ 000000014008ddb8     libucrt:winapi_thunks.obj
 0002:00006de8       ??_C@_0BG@IKLDMBLM@GetXStateFeaturesMask@ 000000014008dde8     libucrt:winapi_thunks.obj
 0002:00006e18       ??_C@_0BC@CELBKLLA@IsValidLocaleName@ 000000014008de18     libucrt:winapi_thunks.obj
 0002:00006e40       ??_C@_0O@KKBNKAPF@LCMapStringEx@ 000000014008de40     libucrt:winapi_thunks.obj
 0002:00006e60       ??_C@_0BB@CDHDDLLP@LCIDToLocaleName@ 000000014008de60     libucrt:winapi_thunks.obj
 0002:00006e88       ??_C@_0BB@HBDEELFH@LocaleNameToLCID@ 000000014008de88     libucrt:winapi_thunks.obj
 0002:00006eb0       ??_C@_0BE@KINNKFDA@LocateXStateFeature@ 000000014008deb0     libucrt:winapi_thunks.obj
 0002:00006ed8       ??_C@_0M@CHKKJDAI@MessageBoxA@ 000000014008ded8     libucrt:winapi_thunks.obj
 0002:00006ef8       ??_C@_0M@DLDCCGNP@MessageBoxW@ 000000014008def8     libucrt:winapi_thunks.obj
 0002:00006f10       ??_C@_0N@PPOMPGGK@RoInitialize@ 000000014008df10     libucrt:winapi_thunks.obj
 0002:00006f28       ??_C@_0P@LLFHBIJD@RoUninitialize@ 000000014008df28     libucrt:winapi_thunks.obj
 0002:00006f40       ??_C@_0CF@OJOFEIGO@AppPolicyGetProcessTerminationM@ 000000014008df40     libucrt:winapi_thunks.obj
 0002:00006f70       ??_C@_0CF@NNDFDCOC@AppPolicyGetThreadInitializatio@ 000000014008df70     libucrt:winapi_thunks.obj
 0002:00006fa0       ??_C@_0CE@OICFMIKE@AppPolicyGetShowDeveloperDiagno@ 000000014008dfa0     libucrt:winapi_thunks.obj
 0002:00006fd0       ??_C@_0BL@ODDJNEDA@AppPolicyGetWindowingModel@ 000000014008dfd0     libucrt:winapi_thunks.obj
 0002:00007000       ??_C@_0BI@BKLFFAPO@SetThreadStackGuarantee@ 000000014008e000     libucrt:winapi_thunks.obj
 0002:00007030       ??_C@_0BC@JEAENNKH@SystemFunction036@ 000000014008e030     libucrt:winapi_thunks.obj
 0002:000070ec       ??_C@_03OEIAHPBN@INF@      000000014008e0ec     libucrt:cvt.obj
 0002:000070f0       ??_C@_03OJHLLCGB@inf@      000000014008e0f0     libucrt:cvt.obj
 0002:000070f4       ??_C@_03LKNCIKJB@NAN@      000000014008e0f4     libucrt:cvt.obj
 0002:000070f8       ??_C@_03LHCJEHON@nan@      000000014008e0f8     libucrt:cvt.obj
 0002:00007100       ??_C@_09OFJJIMPC@NAN?$CISNAN?$CJ@ 000000014008e100     libucrt:cvt.obj
 0002:00007110       ??_C@_09IPFBKMDL@nan?$CIsnan?$CJ@ 000000014008e110     libucrt:cvt.obj
 0002:00007120       ??_C@_08IKHNHAJ@NAN?$CIIND?$CJ@ 000000014008e120     libucrt:cvt.obj
 0002:00007130       ??_C@_08OFCDMILK@nan?$CIind?$CJ@ 000000014008e130     libucrt:cvt.obj
 0002:0000713c       ??_C@_05KLBDPFGC@e?$CL000@ 000000014008e13c     libucrt:cvt.obj
 0002:000082fc       ??_C@_15EMKDOKLE@?$AAa?$AAr@ 000000014008f2fc     libucrt:lcidtoname_downlevel.obj
 0002:00008304       ??_C@_15KNPADPLH@?$AAb?$AAg@ 000000014008f304     libucrt:lcidtoname_downlevel.obj
 0002:0000830c       ??_C@_15EDMHLDMO@?$AAc?$AAa@ 000000014008f30c     libucrt:lcidtoname_downlevel.obj
 0002:00008318       ??_C@_1O@BPEAJADD@?$AAz?$AAh?$AA?9?$AAC?$AAH?$AAS@ 000000014008f318     libucrt:lcidtoname_downlevel.obj
 0002:00008328       ??_C@_15LJNHCMNK@?$AAc?$AAs@ 000000014008f328     libucrt:lcidtoname_downlevel.obj
 0002:00008330       ??_C@_15FOMCIDHG@?$AAd?$AAa@ 000000014008f330     libucrt:lcidtoname_downlevel.obj
 0002:00008338       ??_C@_15NBKABECB@?$AAd?$AAe@ 000000014008f338     libucrt:lcidtoname_downlevel.obj
 0002:00008340       ??_C@_15GHPEIIAO@?$AAe?$AAl@ 000000014008f340     libucrt:lcidtoname_downlevel.obj
 0002:00008348       ??_C@_15MNPNEAIF@?$AAe?$AAn@ 000000014008f348     libucrt:lcidtoname_downlevel.obj
 0002:00008350       ??_C@_15GPIOMPMH@?$AAe?$AAs@ 000000014008f350     libucrt:lcidtoname_downlevel.obj
 0002:00008358       ??_C@_15NGLOAKJC@?$AAf?$AAi@ 000000014008f358     libucrt:lcidtoname_downlevel.obj
 0002:00008360       ??_C@_15FBKGNKAM@?$AAf?$AAr@ 000000014008f360     libucrt:lcidtoname_downlevel.obj
 0002:00008368       ??_C@_15KGGCNEFK@?$AAh?$AAe@ 000000014008f368     libucrt:lcidtoname_downlevel.obj
 0002:00008370       ??_C@_15PGHLIDMF@?$AAh?$AAu@ 000000014008f370     libucrt:lcidtoname_downlevel.obj
 0002:00008378       ??_C@_15BIEMAPLM@?$AAi?$AAs@ 000000014008f378     libucrt:lcidtoname_downlevel.obj
 0002:00008380       ??_C@_15IFJLDHAF@?$AAi?$AAt@ 000000014008f380     libucrt:lcidtoname_downlevel.obj
 0002:00008388       ??_C@_15GEMIOCAG@?$AAj?$AAa@ 000000014008f388     libucrt:lcidtoname_downlevel.obj
 0002:00008390       ??_C@_15EPELEGJA@?$AAk?$AAo@ 000000014008f390     libucrt:lcidtoname_downlevel.obj
 0002:00008398       ??_C@_15NDDHIMN@?$AAn?$AAl@ 000000014008f398     libucrt:lcidtoname_downlevel.obj
 0002:000083a0       ??_C@_15BPIGNHCD@?$AAn?$AAo@ 000000014008f3a0     libucrt:lcidtoname_downlevel.obj
 0002:000083a8       ??_C@_15DEOPBLCG@?$AAp?$AAl@ 000000014008f3a8     libucrt:lcidtoname_downlevel.obj
 0002:000083b0       ??_C@_15KBECGEFG@?$AAp?$AAt@ 000000014008f3b0     libucrt:lcidtoname_downlevel.obj
 0002:000083b8       ??_C@_15GLJCBFMD@?$AAr?$AAo@ 000000014008f3b8     libucrt:lcidtoname_downlevel.obj
 0002:000083c0       ??_C@_15FEDGKCDI@?$AAr?$AAu@ 000000014008f3c0     libucrt:lcidtoname_downlevel.obj
 0002:000083c8       ??_C@_15GLKMLLHM@?$AAh?$AAr@ 000000014008f3c8     libucrt:lcidtoname_downlevel.obj
 0002:000083d0       ??_C@_15CPKMFBDB@?$AAs?$AAk@ 000000014008f3d0     libucrt:lcidtoname_downlevel.obj
 0002:000083d8       ??_C@_15BAAIOGMK@?$AAs?$AAq@ 000000014008f3d8     libucrt:lcidtoname_downlevel.obj
 0002:000083e0       ??_C@_15INNPNOHD@?$AAs?$AAv@ 000000014008f3e0     libucrt:lcidtoname_downlevel.obj
 0002:000083e8       ??_C@_15CABMMOGH@?$AAt?$AAh@ 000000014008f3e8     libucrt:lcidtoname_downlevel.obj
 0002:000083f0       ??_C@_15BPLIHJJM@?$AAt?$AAr@ 000000014008f3f0     libucrt:lcidtoname_downlevel.obj
 0002:000083f8       ??_C@_15NEOEKKDJ@?$AAu?$AAr@ 000000014008f3f8     libucrt:lcidtoname_downlevel.obj
 0002:00008400       ??_C@_15NFICGAJK@?$AAi?$AAd@ 000000014008f400     libucrt:lcidtoname_downlevel.obj
 0002:00008408       ??_C@_15HPJPHDM@?$AAb?$AAe@ 000000014008f408     libucrt:lcidtoname_downlevel.obj
 0002:00008410       ??_C@_15LCHLGJII@?$AAs?$AAl@ 000000014008f410     libucrt:lcidtoname_downlevel.obj
 0002:00008418       ??_C@_15PCFJPHHO@?$AAe?$AAt@ 000000014008f418     libucrt:lcidtoname_downlevel.obj
 0002:00008420       ??_C@_15HPFPGODN@?$AAl?$AAv@ 000000014008f420     libucrt:lcidtoname_downlevel.obj
 0002:00008428       ??_C@_15NFFGKGLG@?$AAl?$AAt@ 000000014008f428     libucrt:lcidtoname_downlevel.obj
 0002:00008430       ??_C@_15BDAKCCHN@?$AAf?$AAa@ 000000014008f430     libucrt:lcidtoname_downlevel.obj
 0002:00008438       ??_C@_15NFGIAIAJ@?$AAv?$AAi@ 000000014008f438     libucrt:lcidtoname_downlevel.obj
 0002:00008440       ??_C@_15LMKNDMHN@?$AAh?$AAy@ 000000014008f440     libucrt:lcidtoname_downlevel.obj
 0002:00008448       ??_C@_15IJBHMCFL@?$AAa?$AAz@ 000000014008f448     libucrt:lcidtoname_downlevel.obj
 0002:00008450       ??_C@_15EKOFJABL@?$AAe?$AAu@ 000000014008f450     libucrt:lcidtoname_downlevel.obj
 0002:00008458       ??_C@_15BGHADCNK@?$AAm?$AAk@ 000000014008f458     libucrt:lcidtoname_downlevel.obj
 0002:00008460       ??_C@_15JDNICKHM@?$AAa?$AAf@ 000000014008f460     libucrt:lcidtoname_downlevel.obj
 0002:00008468       ??_C@_15KPJEDBKD@?$AAk?$AAa@ 000000014008f468     libucrt:lcidtoname_downlevel.obj
 0002:00008470       ??_C@_15PDNFFFEO@?$AAf?$AAo@ 000000014008f470     libucrt:lcidtoname_downlevel.obj
 0002:00008478       ??_C@_15OMLEGLOC@?$AAh?$AAi@ 000000014008f478     libucrt:lcidtoname_downlevel.obj
 0002:00008480       ??_C@_15IDNNENKK@?$AAm?$AAs@ 000000014008f480     libucrt:lcidtoname_downlevel.obj
 0002:00008488       ??_C@_15MACJNBMH@?$AAk?$AAk@ 000000014008f488     libucrt:lcidtoname_downlevel.obj
 0002:00008490       ??_C@_15DKDJEOND@?$AAk?$AAy@ 000000014008f490     libucrt:lcidtoname_downlevel.obj
 0002:00008498       ??_C@_15DFGDLJBG@?$AAs?$AAw@ 000000014008f498     libucrt:lcidtoname_downlevel.obj
 0002:000084a0       ??_C@_15BBFAICNG@?$AAu?$AAz@ 000000014008f4a0     libucrt:lcidtoname_downlevel.obj
 0002:000084a8       ??_C@_15DKNDCGEA@?$AAt?$AAt@ 000000014008f4a8     libucrt:lcidtoname_downlevel.obj
 0002:000084b0       ??_C@_15MGIFMDPL@?$AAp?$AAa@ 000000014008f4b0     libucrt:lcidtoname_downlevel.obj
 0002:000084b8       ??_C@_15HCNDBBA@?$AAg?$AAu@ 000000014008f4b8     libucrt:lcidtoname_downlevel.obj
 0002:000084c0       ??_C@_15FNBEIBON@?$AAt?$AAa@ 000000014008f4c0     libucrt:lcidtoname_downlevel.obj
 0002:000084c8       ??_C@_15NCHGBGLK@?$AAt?$AAe@ 000000014008f4c8     libucrt:lcidtoname_downlevel.obj
 0002:000084d0       ??_C@_15PHPHCBPF@?$AAk?$AAn@ 000000014008f4d0     libucrt:lcidtoname_downlevel.obj
 0002:000084d8       ??_C@_15DLGBCKMP@?$AAm?$AAr@ 000000014008f4d8     libucrt:lcidtoname_downlevel.obj
 0002:000084e0       ??_C@_15EABBLBFF@?$AAs?$AAa@ 000000014008f4e0     libucrt:lcidtoname_downlevel.obj
 0002:000084e8       ??_C@_15CBKOMCOI@?$AAm?$AAn@ 000000014008f4e8     libucrt:lcidtoname_downlevel.obj
 0002:000084f0       ??_C@_15CKDMCJAF@?$AAg?$AAl@ 000000014008f4f0     libucrt:lcidtoname_downlevel.obj
 0002:000084f8       ??_C@_17CNJFBPG@?$AAk?$AAo?$AAk@ 000000014008f4f8     libucrt:lcidtoname_downlevel.obj
 0002:00008508       ??_C@_17FFBJICPL@?$AAs?$AAy?$AAr@ 000000014008f508     libucrt:lcidtoname_downlevel.obj
 0002:00008518       ??_C@_17KPNDCPAF@?$AAd?$AAi?$AAv@ 000000014008f518     libucrt:lcidtoname_downlevel.obj
 0002:00008524       ??_C@_11LOCGONAA@@         000000014008f524     libucrt:lcidtoname_downlevel.obj
 0002:00008528       ??_C@_1M@OKAHONE@?$AAa?$AAr?$AA?9?$AAS?$AAA@ 000000014008f528     libucrt:lcidtoname_downlevel.obj
 0002:00008538       ??_C@_1M@FFFIGIGK@?$AAb?$AAg?$AA?9?$AAB?$AAG@ 000000014008f538     libucrt:lcidtoname_downlevel.obj
 0002:00008548       ??_C@_1M@BJNKEDC@?$AAc?$AAa?$AA?9?$AAE?$AAS@ 000000014008f548     libucrt:lcidtoname_downlevel.obj
 0002:00008558       ??_C@_1M@IJJHFJHA@?$AAc?$AAs?$AA?9?$AAC?$AAZ@ 000000014008f558     libucrt:lcidtoname_downlevel.obj
 0002:00008568       ??_C@_1M@CLPEOBGI@?$AAd?$AAa?$AA?9?$AAD?$AAK@ 000000014008f568     libucrt:lcidtoname_downlevel.obj
 0002:00008578       ??_C@_1M@MCMADGCB@?$AAd?$AAe?$AA?9?$AAD?$AAE@ 000000014008f578     libucrt:lcidtoname_downlevel.obj
 0002:00008588       ??_C@_1M@OOCKEMAM@?$AAe?$AAl?$AA?9?$AAG?$AAR@ 000000014008f588     libucrt:lcidtoname_downlevel.obj
 0002:00008598       ??_C@_1M@DDNJFGID@?$AAf?$AAi?$AA?9?$AAF?$AAI@ 000000014008f598     libucrt:lcidtoname_downlevel.obj
 0002:000085a8       ??_C@_1M@GLIPPMAC@?$AAf?$AAr?$AA?9?$AAF?$AAR@ 000000014008f5a8     libucrt:lcidtoname_downlevel.obj
 0002:000085b8       ??_C@_1M@GFMCHPE@?$AAh?$AAe?$AA?9?$AAI?$AAL@ 000000014008f5b8     libucrt:lcidtoname_downlevel.obj
 0002:000085c8       ??_C@_1M@MHLPGNKM@?$AAh?$AAu?$AA?9?$AAH?$AAU@ 000000014008f5c8     libucrt:lcidtoname_downlevel.obj
 0002:000085d8       ??_C@_1M@LPDDNNPN@?$AAi?$AAs?$AA?9?$AAI?$AAS@ 000000014008f5d8     libucrt:lcidtoname_downlevel.obj
 0002:000085e8       ??_C@_1M@MADIPODN@?$AAi?$AAt?$AA?9?$AAI?$AAT@ 000000014008f5e8     libucrt:lcidtoname_downlevel.obj
 0002:000085f8       ??_C@_1M@IHBJJGG@?$AAn?$AAl?$AA?9?$AAN?$AAL@ 000000014008f5f8     libucrt:lcidtoname_downlevel.obj
 0002:00008608       ??_C@_1M@EANAGDL@?$AAn?$AAb?$AA?9?$AAN?$AAO@ 000000014008f608     libucrt:lcidtoname_downlevel.obj
 0002:00008618       ??_C@_1M@NEIEMEGP@?$AAp?$AAl?$AA?9?$AAP?$AAL@ 000000014008f618     libucrt:lcidtoname_downlevel.obj
 0002:00008628       ??_C@_1M@BOCFIGEP@?$AAp?$AAt?$AA?9?$AAB?$AAR@ 000000014008f628     libucrt:lcidtoname_downlevel.obj
 0002:00008638       ??_C@_1M@IMPFOPBG@?$AAr?$AAo?$AA?9?$AAR?$AAO@ 000000014008f638     libucrt:lcidtoname_downlevel.obj
 0002:00008648       ??_C@_1M@IDNNEJMM@?$AAr?$AAu?$AA?9?$AAR?$AAU@ 000000014008f648     libucrt:lcidtoname_downlevel.obj
 0002:00008658       ??_C@_1M@LILEEOGM@?$AAh?$AAr?$AA?9?$AAH?$AAR@ 000000014008f658     libucrt:lcidtoname_downlevel.obj
 0002:00008668       ??_C@_1M@FKIFEHPB@?$AAs?$AAk?$AA?9?$AAS?$AAK@ 000000014008f668     libucrt:lcidtoname_downlevel.obj
 0002:00008678       ??_C@_1M@LJMAMNPJ@?$AAs?$AAq?$AA?9?$AAA?$AAL@ 000000014008f678     libucrt:lcidtoname_downlevel.obj
