 ascii-table

 Timestamp is 6666e773 (Mon Jun 10 13:45:55 2024)

 Preferred load address is 00400000

 Start         Length     Name                   Class
 0001:00000000 000664b4H .text$mn                CODE
 0001:000664b4 0000121cH .text$x                 CODE
 0002:00000000 00000104H .CRT$XCA                DATA
 0002:00000104 00000104H .CRT$XCAA               DATA
 0002:00000208 00000104H .CRT$XCZ                DATA
 0002:0000030c 00000104H .CRT$XIA                DATA
 0002:00000410 00000104H .CRT$XIAA               DATA
 0002:00000514 00000104H .CRT$XIAC               DATA
 0002:00000618 00000114H .CRT$XIC                DATA
 0002:0000072c 00000104H .CRT$XIZ                DATA
 0002:00000830 00000104H .CRT$XPA                DATA
 0002:00000934 0000010cH .CRT$XPX                DATA
 0002:00000a40 00000104H .CRT$XPXA               DATA
 0002:00000b44 00000104H .CRT$XPZ                DATA
 0002:00000c48 00000104H .CRT$XTA                DATA
 0002:00000d4c 00000104H .CRT$XTZ                DATA
 0002:00000e50 00009330H .rdata                  DATA
 0002:0000a180 00000180H .rdata$CastGuardVftablesA DATA
 0002:0000a300 0000014cH .rdata$CastGuardVftablesC DATA
 0002:0000a44c 00000444H .rdata$r                DATA
 0002:0000a890 00000160H .rdata$sxdata           DATA
 0002:0000a9f0 000001d8H .rdata$zzzdbg           DATA
 0002:0000abc8 00000104H .rtc$IAA                DATA
 0002:0000accc 00000104H .rtc$IZZ                DATA
 0002:0000add0 00000104H .rtc$TAA                DATA
 0002:0000aed4 00000104H .rtc$TZZ                DATA
 0002:0000afd8 00000d18H .xdata$x                DATA
 0002:0000bcf0 00000000H .edata                  DATA
 0003:00000000 00000c24H .data                   DATA
 0003:00000c24 00000170H .data$r                 DATA
 0003:00000d94 000001d4H .data$rs                DATA
 0003:00000f68 000016a4H .bss                    DATA
 0004:00000000 000001b0H .idata$5                DATA
 0004:000001b0 00000014H .idata$2                DATA
 0004:000001c4 00000014H .idata$3                DATA
 0004:000001d8 000001b0H .idata$4                DATA
 0004:00000388 00000795H .idata$6                DATA
 0005:00000000 0000010eH .00cfg                  DATA

  Address         Publics by Value              Rva+Base       Lib:Object

 0000:00000000       ___AbsoluteZero            00000000     <absolute>
 0000:00000000       ___arm64x_extra_rfe_table  00000000     <absolute>
 0000:00000000       ___arm64x_extra_rfe_table_size 00000000     <absolute>
 0000:00000000       ___arm64x_native_entrypoint 00000000     <absolute>
 0000:00000000       ___arm64x_redirection_metadata 00000000     <absolute>
 0000:00000000       ___arm64x_redirection_metadata_count 00000000     <absolute>
 0000:00000000       ___dynamic_value_reloc_table 00000000     <absolute>
 0000:00000000       ___enclave_config          00000000     <absolute>
 0000:00000000       ___guard_check_icall_a64n_fptr 00000000     <absolute>
 0000:00000000       ___guard_eh_cont_count     00000000     <absolute>
 0000:00000000       ___guard_eh_cont_table     00000000     <absolute>
 0000:00000000       ___guard_fids_count        00000000     <absolute>
 0000:00000000       ___guard_fids_table        00000000     <absolute>
 0000:00000000       ___guard_iat_count         00000000     <absolute>
 0000:00000000       ___guard_iat_table         00000000     <absolute>
 0000:00000000       ___guard_longjmp_count     00000000     <absolute>
 0000:00000000       ___guard_longjmp_table     00000000     <absolute>
 0000:00000000       ___hybrid_auxiliary_delayload_iat 00000000     <absolute>
 0000:00000000       ___hybrid_auxiliary_delayload_iat_copy 00000000     <absolute>
 0000:00000000       ___hybrid_auxiliary_iat    00000000     <absolute>
 0000:00000000       ___hybrid_auxiliary_iat_copy 00000000     <absolute>
 0000:00000000       ___hybrid_code_map         00000000     <absolute>
 0000:00000000       ___hybrid_code_map_count   00000000     <absolute>
 0000:00000000       ___hybrid_image_info_bitfield 00000000     <absolute>
 0000:00000000       ___volatile_metadata       00000000     <absolute>
 0000:00000000       ___x64_code_ranges_to_entry_points 00000000     <absolute>
 0000:00000000       ___x64_code_ranges_to_entry_points_count 00000000     <absolute>
 0000:00000000       __except_list              00000000     <absolute>
 0000:00000014       ___safe_se_handler_count   00000014     <absolute>
 0000:00000100       ___guard_flags             00000100     <absolute>
 0000:00000000       ___ImageBase               00400000     <linker-defined>
 0001:00006310       _print_number              00407310 f   main.obj
 0001:00006380       _print_ascii_entry         00407380 f   main.obj
 0001:00006430       _main                      00407430 f   main.obj
 0001:00006828       ?configure_argv@__scrt_narrow_argv_policy@@SAHXZ 00407828 f i LIBCMT:exe_main.obj
 0001:00006838       ?initialize_environment@__scrt_narrow_environment_policy@@SAHXZ 00407838 f i LIBCMT:exe_main.obj
 0001:0000686a       ?set_app_type@__scrt_main_policy@@SAXXZ 0040786a f i LIBCMT:exe_main.obj
 0001:00006875       ?set_commode@__scrt_file_policy@@SAXXZ 00407875 f i LIBCMT:exe_main.obj
 0001:0000688a       ?set_fmode@__scrt_file_policy@@SAXXZ 0040788a f i LIBCMT:exe_main.obj
 0001:0000689a       _mainCRTStartup            0040789a f   LIBCMT:exe_main.obj
 0001:0000693a       _NtCurrentTeb              0040793a f i LIBCMT:utility.obj
 0001:00006941       ___scrt_acquire_startup_lock 00407941 f   LIBCMT:utility.obj
 0001:0000697f       ___scrt_dllmain_after_initialize_c 0040797f f   LIBCMT:utility.obj
 0001:000069b4       ___scrt_dllmain_before_initialize_c 004079b4 f   LIBCMT:utility.obj
 0001:000069c5       ___scrt_dllmain_crt_thread_attach 004079c5 f   LIBCMT:utility.obj
 0001:000069eb       ___scrt_dllmain_crt_thread_detach 004079eb f   LIBCMT:utility.obj
 0001:000069fb       ___scrt_dllmain_exception_filter 004079fb f   LIBCMT:utility.obj
 0001:00006a3c       ___scrt_dllmain_uninitialize_c 00407a3c f   LIBCMT:utility.obj
 0001:00006a67       ___scrt_dllmain_uninitialize_critical 00407a67 f   LIBCMT:utility.obj
 0001:00006a77       ___scrt_initialize_crt     00407a77 f   LIBCMT:utility.obj
 0001:00006abe       ___scrt_initialize_onexit_tables 00407abe f   LIBCMT:utility.obj
 0001:00006b66       ___scrt_is_nonwritable_in_current_image 00407b66 f   LIBCMT:utility.obj
 0001:00006c1f       ___scrt_release_startup_lock 00407c1f f   LIBCMT:utility.obj
 0001:00006c43       ___scrt_uninitialize_crt   00407c43 f   LIBCMT:utility.obj
 0001:00006c75       __onexit                   00407c75 f   LIBCMT:utility.obj
 0001:00006cad       _at_quick_exit             00407cad f   LIBCMT:utility.obj
 0001:00006cd8       _atexit                    00407cd8 f   LIBCMT:utility.obj
 0001:00006d52       ___security_init_cookie    00407d52 f   LIBCMT:gs_support.obj
 0001:00006daf       __matherr                  00407daf f   LIBCMT:matherr.obj
 0001:00006db2       __get_startup_argv_mode    00407db2 f   LIBCMT:argv_mode.obj
 0001:00006db6       __get_startup_commit_mode  00407db6 f   LIBCMT:commit_mode.obj
 0001:00006db9       __get_startup_file_mode    00407db9 f   LIBCMT:file_mode.obj
 0001:00006dbf       __get_startup_new_mode     00407dbf f   LIBCMT:new_mode.obj
 0001:00006dc2       __get_startup_thread_locale_mode 00407dc2 f   LIBCMT:thread_locale.obj
 0001:00006dc5       ?__scrt_initialize_type_info@@YAXXZ 00407dc5 f   LIBCMT:tncleanup.obj
 0001:00006dd4       ?__scrt_uninitialize_type_info@@YAXXZ 00407dd4 f   LIBCMT:tncleanup.obj
 0001:00006de3       __should_initialize_environment 00407de3 f   LIBCMT:env_mode.obj
 0001:00006de6       __initialize_default_precision 00407de6 f   LIBCMT:default_precision.obj
 0001:00006e0f       __initialize_invalid_parameter_handler 00407e0f f   LIBCMT:invalid_parameter_handler.obj
 0001:00006e12       __initialize_denormal_control 00407e12 f   LIBCMT:denormal_control.obj
 0001:00006e15       ___local_stdio_printf_options 00407e15 f i LIBCMT:default_local_stdio_options.obj
 0001:00006e1b       ___local_stdio_scanf_options 00407e1b f i LIBCMT:default_local_stdio_options.obj
 0001:00006e21       ___scrt_initialize_default_local_stdio_options 00407e21 f   LIBCMT:default_local_stdio_options.obj
 0001:00006e45       ___scrt_is_user_matherr_present 00407e45 f   LIBCMT:matherr_detection.obj
 0001:00006e54       ___scrt_get_dyn_tls_init_callback 00407e54 f   LIBCMT:dyn_tls_init.obj
 0001:00006e5a       ___scrt_get_dyn_tls_dtor_callback 00407e5a f   LIBCMT:dyn_tls_dtor.obj
 0001:00006e60       ___scrt_fastfail           00407e60 f   LIBCMT:utility_desktop.obj
 0001:00006fba       ___scrt_get_show_window_mode 00407fba f   LIBCMT:utility_desktop.obj
 0001:00006ff7       ___scrt_initialize_mta     00407ff7 f   LIBCMT:utility_desktop.obj
 0001:00006ffc       ___scrt_initialize_winrt   00407ffc f   LIBCMT:utility_desktop.obj
 0001:00006fff       ___scrt_is_managed_app     00407fff f   LIBCMT:utility_desktop.obj
 0001:00007051       ___scrt_set_unhandled_exception_filter 00408051 f   LIBCMT:utility_desktop.obj
 0001:00007060       ___scrt_exe_initialize_mta 00408060 f   LIBCMT:utility_desktop.obj
 0001:00007060       ___scrt_stub_for_initialize_mta 00408060 f   LIBCMT:utility_desktop.obj
 0001:00007063       ___scrt_unhandled_exception_filter@4 00408063 f   LIBCMT:utility_desktop.obj
 0001:000070ce       __crt_debugger_hook        004080ce f   LIBCMT:utility_desktop.obj
 0001:000070d8       __RTC_Initialize           004080d8 f   LIBCMT:initsect.obj
 0001:0000710f       __RTC_Terminate            0040810f f   LIBCMT:initsect.obj
 0001:00007150       __SEH_prolog4              00408150 f   LIBCMT:sehprolg4.obj
 0001:000071b0       __SEH_epilog4              004081b0 f   LIBCMT:sehprolg4.obj
 0001:000071c9       @_guard_check_icall_nop@4  004081c9 f i LIBCMT:guard_support.obj
 0001:000071cc       _ReadNoFence               004081cc f i LIBCMT:guard_support.obj
 0001:000071d8       _ReadPointerNoFence        004081d8 f i LIBCMT:guard_support.obj
 0001:000071e4       __InlineInterlockedExchangePointer 004081e4 f i LIBCMT:guard_support.obj
 0001:000071f4       ___castguard_check_failure_debugbreak 004081f4 f i LIBCMT:guard_support.obj
 0001:00007215       ___castguard_check_failure_fastfail 00408215 f i LIBCMT:guard_support.obj
 0001:0000723b       ___castguard_check_failure_nop 0040823b f i LIBCMT:guard_support.obj
 0001:0000723e       ___castguard_check_failure_os_handled 0040823e f i LIBCMT:guard_support.obj
 0001:00007282       ___castguard_check_failure_user_handled 00408282 f i LIBCMT:guard_support.obj
 0001:0000730a       ___castguard_set_user_handler 0040830a f i LIBCMT:guard_support.obj
 0001:0000731c       ___castguard_slow_path_check_debugbreak 0040831c f i LIBCMT:guard_support.obj
 0001:00007354       ___castguard_slow_path_check_fastfail 00408354 f i LIBCMT:guard_support.obj
 0001:00007391       ___castguard_slow_path_check_nop 00408391 f i LIBCMT:guard_support.obj
 0001:00007394       ___castguard_slow_path_check_os_handled 00408394 f i LIBCMT:guard_support.obj
 0001:000073df       ___castguard_slow_path_check_user_handled 004083df f i LIBCMT:guard_support.obj
 0001:00007457       __guard_icall_checks_enforced 00408457 f i LIBCMT:guard_support.obj
 0001:0000746d       ___isa_available_init      0040846d f   LIBCMT:cpu_disp.obj
 0001:00007865       ___scrt_is_ucrt_dll_in_use 00408865 f   LIBCMT:ucrt_detection.obj
 0001:00007874       @__security_check_cookie@4 00408874 f   LIBCMT:secchk.obj
 0001:00007885       ___raise_securityfailure   00408885 f   LIBCMT:gs_report.obj
 0001:000078b7       ___report_gsfailure        004088b7 f   LIBCMT:gs_report.obj
 0001:000079f0       ___report_rangecheckfailure 004089f0 f   LIBCMT:gs_report.obj
 0001:00007a00       ___report_securityfailure  00408a00 f   LIBCMT:gs_report.obj
 0001:00007b04       ___report_securityfailureEx 00408b04 f   LIBCMT:gs_report.obj
 0001:00007c5f       _QueryPerformanceCounter@4 00408c5f f   kernel32:KERNEL32.dll
 0001:00007c65       _GetCurrentProcessId@0     00408c65 f   kernel32:KERNEL32.dll
 0001:00007c6b       _GetCurrentThreadId@0      00408c6b f   kernel32:KERNEL32.dll
 0001:00007c71       _GetSystemTimeAsFileTime@4 00408c71 f   kernel32:KERNEL32.dll
 0001:00007c77       _InitializeSListHead@4     00408c77 f   kernel32:KERNEL32.dll
 0001:00007c7d       _IsDebuggerPresent@0       00408c7d f   kernel32:KERNEL32.dll
 0001:00007c83       _UnhandledExceptionFilter@4 00408c83 f   kernel32:KERNEL32.dll
 0001:00007c89       _SetUnhandledExceptionFilter@4 00408c89 f   kernel32:KERNEL32.dll
 0001:00007c8f       _GetStartupInfoW@4         00408c8f f   kernel32:KERNEL32.dll
 0001:00007c95       _IsProcessorFeaturePresent@4 00408c95 f   kernel32:KERNEL32.dll
 0001:00007c9b       _GetModuleHandleW@4        00408c9b f   kernel32:KERNEL32.dll
 0001:00007ca1       _GetCurrentProcess@0       00408ca1 f   kernel32:KERNEL32.dll
 0001:00007ca7       _TerminateProcess@8        00408ca7 f   kernel32:KERNEL32.dll
 0001:00007cf0       __except_handler4          00408cf0 f   libvcruntime:chandler4.obj
 0001:00007ea5       ___vcrt_initialize         00408ea5 f   libvcruntime:initialization.obj
 0001:00007ecb       ___vcrt_thread_attach      00408ecb f   libvcruntime:initialization.obj
 0001:00007ed8       ___vcrt_thread_detach      00408ed8 f   libvcruntime:initialization.obj
 0001:00007ee2       ___vcrt_uninitialize       00408ee2 f   libvcruntime:initialization.obj
 0001:00007efe       ___vcrt_uninitialize_critical 00408efe f   libvcruntime:initialization.obj
 0001:00007f1b       ??$?RD@__crt_internal_free_policy@@QBEXQBD@Z 00408f1b f i libvcruntime:std_type_info.obj
 0001:00007f2f       ??$?RX@__crt_internal_free_policy@@QBEXQBX@Z 00408f2f f i libvcruntime:std_type_info.obj
 0001:00007f43       ??$__crt_interlocked_compare_exchange_pointer@$$CBDPAD$$T@@YAPBDPDSBDQAD$$T@Z 00408f43 f i libvcruntime:std_type_info.obj
 0001:00007f59       ??$__crt_interlocked_read_pointer@$$CBD@@YAPBDPDSBD@Z 00408f59 f i libvcruntime:std_type_info.obj
 0001:00007f66       ??0?$__crt_unique_heap_ptr@DU__crt_internal_free_policy@@@@QAE@QAD@Z 00408f66 f i libvcruntime:std_type_info.obj
 0001:00007f77       ??0?$__crt_unique_heap_ptr@XU__crt_internal_free_policy@@@@QAE@QAX@Z 00408f77 f i libvcruntime:std_type_info.obj
 0001:00007f88       ??1?$__crt_unique_heap_ptr@DU__crt_internal_free_policy@@@@QAE@XZ 00408f88 f i libvcruntime:std_type_info.obj
 0001:00007f9c       ??1?$__crt_unique_heap_ptr@XU__crt_internal_free_policy@@@@QAE@XZ 00408f9c f i libvcruntime:std_type_info.obj
 0001:00007fb0       ??B?$__crt_unique_heap_ptr@DU__crt_internal_free_policy@@@@QBE_NXZ 00408fb0 f i libvcruntime:std_type_info.obj
 0001:00007fb7       ??B?$__crt_unique_heap_ptr@XU__crt_internal_free_policy@@@@QBE_NXZ 00408fb7 f i libvcruntime:std_type_info.obj
 0001:00007fe6       ?__crt_interlocked_read_32@@YAHPDH@Z 00408fe6 f i libvcruntime:std_type_info.obj
 0001:00007ff3       ?detach@?$__crt_unique_heap_ptr@XU__crt_internal_free_policy@@@@QAEPAXXZ 00408ff3 f i libvcruntime:std_type_info.obj
 0001:00007ff9       ?get@?$__crt_unique_heap_ptr@DU__crt_internal_free_policy@@@@QBEPADXZ 00408ff9 f i libvcruntime:std_type_info.obj
 0001:00007ffc       ?get@?$__crt_unique_heap_ptr@XU__crt_internal_free_policy@@@@QBEPAXXZ 00408ffc f i libvcruntime:std_type_info.obj
 0001:00007fff       ?is_valid@?$__crt_unique_heap_ptr@DU__crt_internal_free_policy@@@@QBE_NXZ 00408fff f i libvcruntime:std_type_info.obj
 0001:00008006       ?is_valid@?$__crt_unique_heap_ptr@XU__crt_internal_free_policy@@@@QBE_NXZ 00409006 f i libvcruntime:std_type_info.obj
 0001:0000800d       ?release@?$__crt_unique_heap_ptr@DU__crt_internal_free_policy@@@@QAEXXZ 0040900d f i libvcruntime:std_type_info.obj
 0001:00008021       ?release@?$__crt_unique_heap_ptr@XU__crt_internal_free_policy@@@@QAEXXZ 00409021 f i libvcruntime:std_type_info.obj
 0001:00008035       ___std_type_info_compare   00409035 f   libvcruntime:std_type_info.obj
 0001:00008080       ___std_type_info_destroy_list 00409080 f   libvcruntime:std_type_info.obj
 0001:000080ab       ___std_type_info_hash      004090ab f   libvcruntime:std_type_info.obj
 0001:000080da       ___std_type_info_name      004090da f   libvcruntime:std_type_info.obj
 0001:000081d1       ___DestructExceptionObject 004091d1 f   libvcruntime:ehhelpers.obj
 0001:0000829a       ?_CallMemberFunction0@@YGXQAX0@Z 0040929a f i libvcruntime:ehhelpers.obj
 0001:00008318       ?raw_name@type_info@@QBEPBDXZ 00409318 f i libvcruntime:ehhelpers.obj
 0001:0000831c       __IsExceptionObjectToBeDestroyed 0040931c f   libvcruntime:ehhelpers.obj
 0001:0000834b       __SetWinRTOutOfMemoryExceptionCallback 0040934b f   libvcruntime:ehhelpers.obj
 0001:0000835b       ___AdjustPointer           0040935b f   libvcruntime:ehhelpers.obj
 0001:00008389       ___FrameUnwindFilter       00409389 f   libvcruntime:ehhelpers.obj
 0001:000083f4       ___GetPlatformExceptionInfo 004093f4 f   libvcruntime:ehhelpers.obj
 0001:00008453       ___current_exception       00409453 f   libvcruntime:ehhelpers.obj
 0001:0000845e       ___current_exception_context 0040945e f   libvcruntime:ehhelpers.obj
 0001:00008469       ___processing_throw        00409469 f   libvcruntime:ehhelpers.obj
 0001:00008474       ___std_terminate           00409474 f   libvcruntime:ehhelpers.obj
 0001:00008479       __is_exception_typeof      00409479 f   libvcruntime:ehhelpers.obj
 0001:00008550       _memset                    00409550 f   libvcruntime:memset.obj
 0001:00008700       __local_unwind4            00409700 f   libvcruntime:exsup4.obj
 0001:00008830       __seh_longjmp_unwind4@4    00409830 f   libvcruntime:exsup4.obj
 0001:00008870       @_EH4_CallFilterFunc@8     00409870 f   libvcruntime:exsup4.obj
 0001:00008890       @_EH4_TransferToHandler@8  00409890 f   libvcruntime:exsup4.obj
 0001:000088b0       @_EH4_GlobalUnwind2@8      004098b0 f   libvcruntime:exsup4.obj
 0001:000088d0       @_EH4_LocalUnwind@16       004098d0 f   libvcruntime:exsup4.obj
 0001:000088f9       ___except_validate_context_record 004098f9 f   libvcruntime:jbcxrval.obj
 0001:00008935       ___except_validate_jump_buffer 00409935 f   libvcruntime:jbcxrval.obj
 0001:0000896d       ___except_validate_jump_buffer_common 0040996d f i libvcruntime:jbcxrval.obj
 0001:000089b4       ??$?RU__vcrt_ptd@@@__crt_internal_free_policy@@QBEXQBU__vcrt_ptd@@@Z 004099b4 f i libvcruntime:per_thread_data.obj
 0001:000089c8       ??0?$__crt_unique_heap_ptr@U__vcrt_ptd@@U__crt_internal_free_policy@@@@QAE@QAU__vcrt_ptd@@@Z 004099c8 f i libvcruntime:per_thread_data.obj
 0001:000089eb       ??1?$__crt_unique_heap_ptr@U__vcrt_ptd@@U__crt_internal_free_policy@@@@QAE@XZ 004099eb f i libvcruntime:per_thread_data.obj
 0001:00008a0a       ??B?$__crt_unique_heap_ptr@U__vcrt_ptd@@U__crt_internal_free_policy@@@@QBE_NXZ 00409a0a f i libvcruntime:per_thread_data.obj
 0001:00008a11       ?detach@?$__crt_unique_heap_ptr@U__vcrt_ptd@@U__crt_internal_free_policy@@@@QAEPAU__vcrt_ptd@@XZ 00409a11 f i libvcruntime:per_thread_data.obj
 0001:00008a17       ?get@?$__crt_unique_heap_ptr@U__vcrt_ptd@@U__crt_internal_free_policy@@@@QBEPAU__vcrt_ptd@@XZ 00409a17 f i libvcruntime:per_thread_data.obj
 0001:00008a1a       ?is_valid@?$__crt_unique_heap_ptr@U__vcrt_ptd@@U__crt_internal_free_policy@@@@QBE_NXZ 00409a1a f i libvcruntime:per_thread_data.obj
 0001:00008a21       ?release@?$__crt_unique_heap_ptr@U__vcrt_ptd@@U__crt_internal_free_policy@@@@QAEXXZ 00409a21 f i libvcruntime:per_thread_data.obj
 0001:00008a55       ___vcrt_freefls@4          00409a55 f   libvcruntime:per_thread_data.obj
 0001:00008a78       ___vcrt_freeptd_for_this_thread 00409a78 f   libvcruntime:per_thread_data.obj
 0001:00008aad       ___vcrt_getptd             00409aad f   libvcruntime:per_thread_data.obj
 0001:00008abe       ___vcrt_getptd_noexit      00409abe f   libvcruntime:per_thread_data.obj
 0001:00008b74       ___vcrt_getptd_noinit      00409b74 f   libvcruntime:per_thread_data.obj
 0001:00008bb8       ___vcrt_initialize_ptd     00409bb8 f   libvcruntime:per_thread_data.obj
 0001:00008bf7       ___vcrt_uninitialize_ptd   00409bf7 f   libvcruntime:per_thread_data.obj
 0001:00008c18       ___vcrt_initialize_locks   00409c18 f   libvcruntime:locks.obj
 0001:00008c63       ___vcrt_lock               00409c63 f   libvcruntime:locks.obj
 0001:00008c7d       ___vcrt_uninitialize_locks 00409c7d f   libvcruntime:locks.obj
 0001:00008cb7       ___vcrt_unlock             00409cb7 f   libvcruntime:locks.obj
 0001:00008cd1       ??$?0$00@DName@@QAE@PBDU?$StringLifeSelector@$00@@@Z 00409cd1 f i libvcruntime:undname.obj
 0001:00008d10       ??$?0$00@pcharNode@@QAE@PBDHU?$StringLifeSelector@$00@@@Z 00409d10 f i libvcruntime:undname.obj
 0001:00008d31       ??$?0$01@DName@@QAE@PBDU?$StringLifeSelector@$01@@@Z 00409d31 f i libvcruntime:undname.obj
 0001:00008d70       ??$?0$01@pcharNode@@QAE@PBDHU?$StringLifeSelector@$01@@@Z 00409d70 f i libvcruntime:undname.obj
 0001:00008dc0       ??$?0$0A@@DName@@QAE@PBDU?$StringLifeSelector@$0A@@@@Z 00409dc0 f i libvcruntime:undname.obj
 0001:00008dff       ??$?0$0A@@pcharNode@@QAE@PBDHU?$StringLifeSelector@$0A@@@@Z 00409dff f i libvcruntime:undname.obj
 0001:00008e4f       ??$?0_K$0A@@?$optional@_K@std@@QAE@$$QA_K@Z 00409e4f f i libvcruntime:undname.obj
 0001:00008e6f       ??$?0_K@?$_Optional_construct_base@_K@std@@QAE@Uin_place_t@1@$$QA_K@Z 00409e6f f i libvcruntime:undname.obj
 0001:00008e8f       ??$?0_K@?$_Optional_destruct_base@_K$00@std@@QAE@Uin_place_t@1@$$QA_K@Z 00409e8f f i libvcruntime:undname.obj
 0001:00008eaf       ??$append@VDNameNode@@@DName@@AAEXPBVDNameNode@@@Z 00409eaf f i libvcruntime:undname.obj
 0001:00008f00       ??$append@VDNameStatusNode@@@DName@@AAEXPBVDNameStatusNode@@@Z 00409f00 f i libvcruntime:undname.obj
 0001:00008f51       ??$append@VcharNode@@@DName@@AAEXPBVcharNode@@@Z 00409f51 f i libvcruntime:undname.obj
 0001:00008fa2       ??$append@VpDNameNode@@@DName@@AAEXPBVpDNameNode@@@Z 00409fa2 f i libvcruntime:undname.obj
 0001:00008ff3       ??$append@VpcharNode@@@DName@@AAEXPBVpcharNode@@@Z 00409ff3 f i libvcruntime:undname.obj
 0001:00009044       ??$doPchar@$00@DName@@AAEXPBDH@Z 0040a044 f i libvcruntime:undname.obj
 0001:000090cb       ??$doPchar@$01@DName@@AAEXPBDH@Z 0040a0cb f i libvcruntime:undname.obj
 0001:00009158       ??$doPchar@$0A@@DName@@AAEXPBDH@Z 0040a158 f i libvcruntime:undname.obj
 0001:000091e5       ??$forward@_K@std@@YA$$QA_KAA_K@Z 0040a1e5 f i libvcruntime:undname.obj
 0001:000092da       ??0?$_Optional_construct_base@_K@std@@QAE@XZ 0040a2da f i libvcruntime:undname.obj
 0001:000092e1       ??0?$_Optional_destruct_base@_K$00@std@@QAE@XZ 0040a2e1 f i libvcruntime:undname.obj
 0001:000092e8       ??0?$optional@_K@std@@QAE@XZ 0040a2e8 f i libvcruntime:undname.obj
 0001:000092ef       ??0Block@_HeapManager@@QAE@XZ 0040a2ef f i libvcruntime:undname.obj
 0001:000092f5       ??0DName@@QAE@AAPBDD@Z     0040a2f5 f   libvcruntime:undname.obj
 0001:000093a0       ??0DName@@QAE@ABUStringLiteral@@@Z 0040a3a0 f   libvcruntime:undname.obj
 0001:000093d0       ??0DName@@QAE@ABV0@@Z      0040a3d0 f i libvcruntime:undname.obj
 0001:000093eb       ??0DName@@QAE@D@Z          0040a3eb f   libvcruntime:undname.obj
 0001:0000940e       ??0DName@@QAE@PAV0@@Z      0040a40e f   libvcruntime:undname.obj
 0001:00009466       ??0DName@@QAE@W4DNameStatus@@@Z 0040a466 f   libvcruntime:undname.obj
 0001:000094b6       ??0DName@@QAE@XZ           0040a4b6 f i libvcruntime:undname.obj
 0001:000094c2       ??0DName@@QAE@_J@Z         0040a4c2 f   libvcruntime:undname.obj
 0001:0000956e       ??0DName@@QAE@_K@Z         0040a56e f   libvcruntime:undname.obj
 0001:000095eb       ??0DNameNode@@IAE@XZ       0040a5eb f i libvcruntime:undname.obj
 0001:000095f6       ??0Replicator@@QAE@XZ      0040a5f6 f i libvcruntime:undname.obj
 0001:0000961a       ??0UnDecorator@@QAE@PBDP6APADJ@ZK@Z 0040a61a f i libvcruntime:undname.obj
 0001:00009697       ??0_Nontrivial_dummy_type@std@@QAE@XZ 0040a697 f i libvcruntime:undname.obj
 0001:0000969a       ??0charNode@@QAE@D@Z       0040a69a f i libvcruntime:undname.obj
 0001:000096b4       ??0pDNameNode@@QAE@PAVDName@@@Z 0040a6b4 f   libvcruntime:undname.obj
 0001:000096e6       ??0pairNode@@QAE@PBVDNameNode@@0@Z 0040a6e6 f i libvcruntime:undname.obj
 0001:00009713       ??2@YAPAXIAAV_HeapManager@@H@Z 0040a713 f   libvcruntime:undname.obj
 0001:00009739       ??4DName@@QAEAAV0@ABUStringLiteral@@@Z 0040a739 f   libvcruntime:undname.obj
 0001:00009762       ??4DName@@QAEAAV0@ABV0@@Z  0040a762 f   libvcruntime:undname.obj
 0001:0000977d       ??4DName@@QAEAAV0@D@Z      0040a77d f i libvcruntime:undname.obj
 0001:000097a0       ??4DName@@QAEAAV0@PAV0@@Z  0040a7a0 f   libvcruntime:undname.obj
 0001:000097f3       ??4DName@@QAEAAV0@W4DNameStatus@@@Z 0040a7f3 f   libvcruntime:undname.obj
 0001:00009831       ??AReplicator@@QBE?AVDName@@H@Z 0040a831 f   libvcruntime:undname.obj
 0001:0000987c       ??B?$optional@_K@std@@QBE_NXZ 0040a87c f i libvcruntime:undname.obj
 0001:00009880       ??D?$_Optional_construct_base@_K@std@@QGAEAA_KXZ 0040a880 f i libvcruntime:undname.obj
 0001:00009883       ??H@YA?AVDName@@ABUStringLiteral@@ABV0@@Z 0040a883 f i libvcruntime:undname.obj
 0001:000098ad       ??H@YA?AVDName@@DABV0@@Z   0040a8ad f i libvcruntime:undname.obj
 0001:000098e2       ??H@YA?AVDName@@W4DNameStatus@@ABV0@@Z 0040a8e2 f i libvcruntime:undname.obj
 0001:0000990c       ??HDName@@QBE?AV0@ABUStringLiteral@@@Z 0040a90c f   libvcruntime:undname.obj
 0001:00009936       ??HDName@@QBE?AV0@ABV0@@Z  0040a936 f   libvcruntime:undname.obj
 0001:00009960       ??HDName@@QBE?AV0@D@Z      0040a960 f   libvcruntime:undname.obj
 0001:0000998a       ??HDName@@QBE?AV0@PAV0@@Z  0040a98a f   libvcruntime:undname.obj
 0001:000099b4       ??HDName@@QBE?AV0@W4DNameStatus@@@Z 0040a9b4 f   libvcruntime:undname.obj
 0001:000099de       ??HStringLiteral@@QBE?AU0@H@Z 0040a9de f i libvcruntime:undname.obj
 0001:000099fe       ??YDName@@QAEAAV0@ABUStringLiteral@@@Z 0040a9fe f   libvcruntime:undname.obj
 0001:00009a6c       ??YDName@@QAEAAV0@ABV0@@Z  0040aa6c f   libvcruntime:undname.obj
 0001:00009ad8       ??YDName@@QAEAAV0@D@Z      0040aad8 f   libvcruntime:undname.obj
 0001:00009b42       ??YDName@@QAEAAV0@PAV0@@Z  0040ab42 f   libvcruntime:undname.obj
 0001:00009bbf       ??YDName@@QAEAAV0@W4DNameStatus@@@Z 0040abbf f   libvcruntime:undname.obj
 0001:00009c0f       ??YReplicator@@QAEAAV0@ABVDName@@@Z 0040ac0f f   libvcruntime:undname.obj
 0001:00009c5f       ??_5DName@@QAEAAV0@ABV0@@Z 0040ac5f f   libvcruntime:undname.obj
 0001:00009c85       ??__K_l@@YA?AUStringLiteral@@PBDI@Z 0040ac85 f i libvcruntime:undname.obj
 0001:00009c92       ?Constructor@_HeapManager@@QAEXP6APAXI@ZP6AXPAX@Z@Z 0040ac92 f i libvcruntime:undname.obj
 0001:00009cb6       ?Destructor@_HeapManager@@QAEXXZ 0040acb6 f i libvcruntime:undname.obj
 0001:00009d0a       ?UScore@UnDecorator@@SA?AUStringLiteral@@W4Tokens@@@Z 0040ad0a f   libvcruntime:undname.obj
 0001:00009d3a       ?composeDeclaration@UnDecorator@@CA?AVDName@@ABV2@@Z 0040ad3a f i libvcruntime:undname.obj
 0001:0000ae2e       ?doAccessSpecifiers@UnDecorator@@SAHXZ 0040be2e f i libvcruntime:undname.obj
 0001:0000ae3f       ?doAllocationLanguage@UnDecorator@@SAHXZ 0040be3f f i libvcruntime:undname.obj
 0001:0000ae50       ?doAllocationModel@UnDecorator@@SAHXZ 0040be50 f i libvcruntime:undname.obj
 0001:0000ae61       ?doEcsu@UnDecorator@@SAHXZ 0040be61 f i libvcruntime:undname.obj
 0001:0000ae72       ?doEllipsis@UnDecorator@@SAHXZ 0040be72 f i libvcruntime:undname.obj
 0001:0000ae83       ?doFunctionReturns@UnDecorator@@SAHXZ 0040be83 f i libvcruntime:undname.obj
 0001:0000ae94       ?doMSKeywords@UnDecorator@@SAHXZ 0040be94 f i libvcruntime:undname.obj
 0001:0000aea4       ?doMemberTypes@UnDecorator@@SAHXZ 0040bea4 f i libvcruntime:undname.obj
 0001:0000aeb5       ?doNameOnly@UnDecorator@@SAHXZ 0040beb5 f i libvcruntime:undname.obj
 0001:0000aec2       ?doNoIdentCharCheck@UnDecorator@@SAHXZ 0040bec2 f i libvcruntime:undname.obj
 0001:0000aecf       ?doPchar@DName@@AAEXD@Z    0040becf f   libvcruntime:undname.obj
 0001:0000af15       ?doPtr64@UnDecorator@@SAHXZ 0040bf15 f i libvcruntime:undname.obj
 0001:0000af26       ?doRestrictionSpec@UnDecorator@@SAHXZ 0040bf26 f i libvcruntime:undname.obj
 0001:0000af37       ?doThisTypes@UnDecorator@@SAHXZ 0040bf37 f i libvcruntime:undname.obj
 0001:0000af4d       ?doThrowTypes@UnDecorator@@SAHXZ 0040bf4d f i libvcruntime:undname.obj
 0001:0000af5e       ?doTypeOnly@UnDecorator@@SAHXZ 0040bf5e f i libvcruntime:undname.obj
 0001:0000af6b       ?doUnderScore@UnDecorator@@SAHXZ 0040bf6b f i libvcruntime:undname.obj
 0001:0000af78       ?getAddressOf@UnDecorator@@CA?AVDName@@XZ 0040bf78 f   libvcruntime:undname.obj
 0001:0000affa       ?getArgumentList@UnDecorator@@CA?AVDName@@XZ 0040bffa f   libvcruntime:undname.obj
 0001:0000b14a       ?getArgumentTypes@UnDecorator@@CA?AVDName@@XZ 0040c14a f   libvcruntime:undname.obj
 0001:0000b294       ?getArrayAccess@UnDecorator@@CA?AVDName@@XZ 0040c294 f   libvcruntime:undname.obj
 0001:0000b325       ?getArrayObject@UnDecorator@@CA?AVDName@@XZ 0040c325 f   libvcruntime:undname.obj
 0001:0000b3ea       ?getArrayType@UnDecorator@@CA?AVDName@@ABV2@@Z 0040c3ea f i libvcruntime:undname.obj
 0001:0000b5ee       ?getBasedType@UnDecorator@@CA?AVDName@@XZ 0040c5ee f   libvcruntime:undname.obj
 0001:0000b6c8       ?getBasicDataType@UnDecorator@@CA?AVDName@@ABV2@@Z 0040c6c8 f   libvcruntime:undname.obj
 0001:0000bd7b       ?getCHPEName@UnDecorator@@QAEPADPADH@Z 0040cd7b f i libvcruntime:undname.obj
 0001:0000be8f       ?getCallIndex@UnDecorator@@CA?AVDName@@XZ 0040ce8f f i libvcruntime:undname.obj
 0001:0000bea8       ?getCallingConvention@UnDecorator@@CA?AVDName@@XZ 0040cea8 f   libvcruntime:undname.obj
 0001:0000bfa4       ?getDataIndirectType@UnDecorator@@CA?AVDName@@ABV2@W4IndirectionKind@@0H@Z 0040cfa4 f   libvcruntime:undname.obj
 0001:0000c812       ?getDataIndirectType@UnDecorator@@CA?AVDName@@XZ 0040d812 f i libvcruntime:undname.obj
 0001:0000c84b       ?getDataType@UnDecorator@@CA?AVDName@@PAV2@@Z 0040d84b f   libvcruntime:undname.obj
 0001:0000c957       ?getDecoratedName@UnDecorator@@CA?AVDName@@XZ 0040d957 f   libvcruntime:undname.obj
 0001:0000cc40       ?getDimension@UnDecorator@@CA?AVDName@@_N@Z 0040dc40 f   libvcruntime:undname.obj
 0001:0000cd88       ?getDispatchTarget@UnDecorator@@CA?AVDName@@XZ 0040dd88 f   libvcruntime:undname.obj
 0001:0000cded       ?getDisplacement@UnDecorator@@CA?AVDName@@XZ 0040dded f i libvcruntime:undname.obj
 0001:0000ce06       ?getECSUDataType@UnDecorator@@CA?AVDName@@XZ 0040de06 f   libvcruntime:undname.obj
 0001:0000d01a       ?getECSUName@UnDecorator@@CA?AVDName@@XZ 0040e01a f i libvcruntime:undname.obj
 0001:0000d02f       ?getEnumType@UnDecorator@@CA?AVDName@@XZ 0040e02f f i libvcruntime:undname.obj
 0001:0000d188       ?getExtendedDataIndirectType@UnDecorator@@CA?AVDName@@AAW4IndirectionKind@@AA_NH@Z 0040e188 f   libvcruntime:undname.obj
 0001:0000d40b       ?getExternalDataType@UnDecorator@@CA?AVDName@@ABV2@@Z 0040e40b f i libvcruntime:undname.obj
 0001:0000d489       ?getFloatingPoint@UnDecorator@@CA?AVDName@@H@Z 0040e489 f   libvcruntime:undname.obj
 0001:0000d57c       ?getFunctionIndirectType@UnDecorator@@CA?AVDName@@ABV2@@Z 0040e57c f   libvcruntime:undname.obj
 0001:0000da10       ?getGuardNumber@UnDecorator@@CA?AVDName@@XZ 0040ea10 f i libvcruntime:undname.obj
 0001:0000da29       ?getLastChar@DName@@QBEDXZ 0040ea29 f i libvcruntime:undname.obj
 0001:0000da51       ?getLastChar@DNameStatusNode@@UBEDXZ 0040ea51 f i libvcruntime:undname.obj
 0001:0000da60       ?getLastChar@charNode@@UBEDXZ 0040ea60 f i libvcruntime:undname.obj
 0001:0000da64       ?getLastChar@pDNameNode@@UBEDXZ 0040ea64 f i libvcruntime:undname.obj
 0001:0000da75       ?getLastChar@pairNode@@UBEDXZ 0040ea75 f i libvcruntime:undname.obj
 0001:0000dab7       ?getLastChar@pcharNode@@UBEDXZ 0040eab7 f i libvcruntime:undname.obj
 0001:0000dacd       ?getLexicalFrame@UnDecorator@@CA?AVDName@@XZ 0040eacd f i libvcruntime:undname.obj
 0001:0000db0a       ?getMemberAccess@UnDecorator@@CA?AVDName@@XZ 0040eb0a f   libvcruntime:undname.obj
 0001:0000db96       ?getMemoryWithBuffer@_HeapManager@@QAEPAXI@Z 0040eb96 f   libvcruntime:undname.obj
 0001:0000dc1a       ?getMemoryWithoutBuffer@_HeapManager@@QAEPAXI@Z 0040ec1a f   libvcruntime:undname.obj
 0001:0000dc42       ?getNoexcept@UnDecorator@@CA?AVDName@@XZ 0040ec42 f   libvcruntime:undname.obj
 0001:0000dc9c       ?getNumberOfDimensions@UnDecorator@@CAHXZ 0040ec9c f   libvcruntime:undname.obj
 0001:0000dd0c       ?getOperatorName@UnDecorator@@CA?AVDName@@_NPA_N@Z 0040ed0c f i libvcruntime:undname.obj
 0001:0000e803       ?getPointerToMember@UnDecorator@@CA?AVDName@@XZ 0040f803 f   libvcruntime:undname.obj
 0001:0000e8ee       ?getPointerType@UnDecorator@@CA?AVDName@@ABV2@0@Z 0040f8ee f i libvcruntime:undname.obj
 0001:0000e90f       ?getPointerTypeArray@UnDecorator@@CA?AVDName@@ABV2@0@Z 0040f90f f i libvcruntime:undname.obj
 0001:0000e930       ?getPrimaryDataType@UnDecorator@@CA?AVDName@@ABV2@@Z 0040f930 f   libvcruntime:undname.obj
 0001:0000ec11       ?getPtrRefDataType@UnDecorator@@CA?AVDName@@ABV2@H@Z 0040fc11 f   libvcruntime:undname.obj
 0001:0000edd9       ?getPtrRefType@UnDecorator@@CA?AVDName@@ABV2@0W4IndirectionKind@@@Z 0040fdd9 f   libvcruntime:undname.obj
 0001:0000ef2e       ?getReferenceType@UnDecorator@@CA?AVDName@@ABV2@0W4IndirectionKind@@@Z 0040ff2e f i libvcruntime:undname.obj
 0001:0000ef51       ?getRestrictionSpec@UnDecorator@@CA?AVDName@@XZ 0040ff51 f   libvcruntime:undname.obj
 0001:0000f0b0       ?getReturnType@UnDecorator@@CA?AVDName@@PAV2@@Z 004100b0 f   libvcruntime:undname.obj
 0001:0000f0ea       ?getScope@UnDecorator@@CA?AVDName@@XZ 004100ea f   libvcruntime:undname.obj
 0001:0000f597       ?getScopedName@UnDecorator@@CA?AVDName@@XZ 00410597 f   libvcruntime:undname.obj
 0001:0000f6c9       ?getSignedDimension@UnDecorator@@CA?AVDName@@XZ 004106c9 f   libvcruntime:undname.obj
 0001:0000f72e       ?getStorageConvention@UnDecorator@@CA?AVDName@@XZ 0041072e f i libvcruntime:undname.obj
 0001:0000f743       ?getString@DName@@QBEPADPAD0@Z 00410743 f i libvcruntime:undname.obj
 0001:0000f77b       ?getString@DName@@QBEPADPADH@Z 0041077b f i libvcruntime:undname.obj
 0001:0000f7e5       ?getString@DNameStatusNode@@UBEPADPAD0@Z 004107e5 f i libvcruntime:undname.obj
 0001:0000f83d       ?getString@charNode@@UBEPADPAD0@Z 0041083d f i libvcruntime:undname.obj
 0001:0000f857       ?getString@pDNameNode@@UBEPADPAD0@Z 00410857 f i libvcruntime:undname.obj
 0001:0000f873       ?getString@pairNode@@UBEPADPAD0@Z 00410873 f i libvcruntime:undname.obj
 0001:0000f8ca       ?getString@pcharNode@@UBEPADPAD0@Z 004108ca f i libvcruntime:undname.obj
 0001:0000f8eb       ?getStringEncoding@UnDecorator@@CA?AVDName@@W4PrefixKind@@H@Z 004108eb f   libvcruntime:undname.obj
 0001:0000f9a2       ?getStringHelper@@YAPADPADPBD1H@Z 004109a2 f i libvcruntime:undname.obj
 0001:0000f9d6       ?getStringObject@UnDecorator@@CA?AVDName@@XZ 004109d6 f   libvcruntime:undname.obj
 0001:0000fa5d       ?getSymbolName@UnDecorator@@CA?AVDName@@XZ 00410a5d f i libvcruntime:undname.obj
 0001:0000fab7       ?getTemplateArgumentList@UnDecorator@@CA?AVDName@@XZ 00410ab7 f   libvcruntime:undname.obj
 0001:0000fcd3       ?getTemplateName@UnDecorator@@CA?AVDName@@_N@Z 00410cd3 f   libvcruntime:undname.obj
 0001:0000feac       ?getTemplateNonTypeArgument@UnDecorator@@CA?AVDName@@XZ 00410eac f   libvcruntime:undname.obj
 0001:00010366       ?getTemplateTypeArgument@UnDecorator@@CA?AVDName@@XZ 00411366 f   libvcruntime:undname.obj
 0001:000104bb       ?getThisType@UnDecorator@@CA?AVDName@@XZ 004114bb f i libvcruntime:undname.obj
 0001:000104f5       ?getThrowTypes@UnDecorator@@CA?AVDName@@XZ 004114f5 f   libvcruntime:undname.obj
 0001:0001051b       ?getTypeEncoding@UnDecorator@@CAHXZ 0041151b f i libvcruntime:undname.obj
 0001:00010926       ?getUndecoratedName@UnDecorator@@QAEPADPADH@Z 00411926 f i libvcruntime:undname.obj
 0001:00010a8f       ?getUnionObject@UnDecorator@@CA?AVDName@@XZ 00411a8f f   libvcruntime:undname.obj
 0001:00010b5f       ?getVCallThunkType@UnDecorator@@CA?AVDName@@XZ 00411b5f f i libvcruntime:undname.obj
 0001:00010bbb       ?getValue@UnDecorator@@CA?AV?$optional@_K@std@@XZ 00411bbb f   libvcruntime:undname.obj
 0001:00010c1f       ?getValueObject@UnDecorator@@CA?AVDName@@XZ 00411c1f f   libvcruntime:undname.obj
 0001:00010d96       ?getVbTableType@UnDecorator@@CA?AVDName@@ABV2@@Z 00411d96 f i libvcruntime:undname.obj
 0001:00010db0       ?getVdispMapType@UnDecorator@@CA?AVDName@@ABV2@@Z 00411db0 f i libvcruntime:undname.obj
 0001:00010e29       ?getVfTableType@UnDecorator@@CA?AVDName@@ABV2@@Z 00411e29 f i libvcruntime:undname.obj
 0001:00010fd2       ?getZName@UnDecorator@@CA?AVDName@@_N0@Z 00411fd2 f   libvcruntime:undname.obj
 0001:00011271       ?get_current_character_and_increment_buffer@UnDecorator@@CADXZ 00412271 f i libvcruntime:undname.obj
 0001:0001128a       ?haveTemplateParameters@UnDecorator@@SAHXZ 0041228a f i libvcruntime:undname.obj
 0001:00011297       ?increment_buffer@UnDecorator@@CA_NI@Z 00412297 f i libvcruntime:undname.obj
 0001:000112c9       ?increment_buffer_no_check@UnDecorator@@CAXI@Z 004122c9 f i libvcruntime:undname.obj
 0001:000112da       ?increment_buffer_no_check@UnDecorator@@CAXXZ 004122da f i libvcruntime:undname.obj
 0001:000112e1       ?isArray@DName@@QBEHXZ     004122e1 f i libvcruntime:undname.obj
 0001:000112ed       ?isComArray@DName@@QBEHXZ  004122ed f i libvcruntime:undname.obj
 0001:000112f9       ?isEmpty@DName@@QBEHXZ     004122f9 f i libvcruntime:undname.obj
 0001:00011303       ?isFull@Replicator@@QBEHXZ 00412303 f i libvcruntime:undname.obj
 0001:0001130e       ?isNoTE@DName@@QBEHXZ      0041230e f i libvcruntime:undname.obj
 0001:0001131a       ?isPinPtr@DName@@QBEHXZ    0041231a f i libvcruntime:undname.obj
 0001:00011326       ?isPtrRef@DName@@QBEHXZ    00412326 f i libvcruntime:undname.obj
 0001:00011332       ?isUDC@DName@@QBEHXZ       00412332 f i libvcruntime:undname.obj
 0001:00011347       ?isUDTThunk@DName@@QBEHXZ  00412347 f i libvcruntime:undname.obj
 0001:0001135c       ?isVCallThunk@DName@@QBEHXZ 0041235c f i libvcruntime:undname.obj
 0001:00011368       ?isValid@DName@@QBEHXZ     00412368 f i libvcruntime:undname.obj
 0001:00011374       ?length@DName@@QBEHXZ      00412374 f i libvcruntime:undname.obj
 0001:0001139a       ?length@DNameStatusNode@@UBEHXZ 0041239a f i libvcruntime:undname.obj
 0001:0001139e       ?length@charNode@@UBEHXZ   0041239e f i libvcruntime:undname.obj
 0001:000113a2       ?length@pDNameNode@@UBEHXZ 004123a2 f i libvcruntime:undname.obj
 0001:000113b3       ?length@pairNode@@UBEHXZ   004123b3 f i libvcruntime:undname.obj
 0001:0001140e       ?length@pcharNode@@UBEHXZ  0041240e f i libvcruntime:undname.obj
 0001:00011412       ?make@DNameStatusNode@@SAPBV1@W4DNameStatus@@@Z 00412412 f i libvcruntime:undname.obj
 0001:00011435       ?parseDecoratedName@UnDecorator@@CA?AVDName@@XZ 00412435 f   libvcruntime:undname.obj
 0001:0001156e       ?raw_length@DNameStatusNode@@UBEHXZ 0041256e f i libvcruntime:undname.obj
 0001:00011572       ?raw_length@charNode@@UBEHXZ 00412572 f i libvcruntime:undname.obj
 0001:00011576       ?raw_length@pDNameNode@@UBEHXZ 00412576 f i libvcruntime:undname.obj
 0001:0001157a       ?raw_length@pairNode@@UBEHXZ 0041257a f i libvcruntime:undname.obj
 0001:0001157e       ?raw_length@pcharNode@@UBEHXZ 0041257e f i libvcruntime:undname.obj
 0001:00011582       ?setIsArray@DName@@QAEXXZ  00412582 f i libvcruntime:undname.obj
 0001:0001158c       ?setIsComArray@DName@@QAEXXZ 0041258c f i libvcruntime:undname.obj
 0001:00011596       ?setIsNoTE@DName@@QAEXXZ   00412596 f i libvcruntime:undname.obj
 0001:000115a0       ?setIsPinPtr@DName@@QAEXXZ 004125a0 f i libvcruntime:undname.obj
 0001:000115aa       ?setIsUDC@DName@@QAEXXZ    004125aa f i libvcruntime:undname.obj
 0001:000115ba       ?setIsVCallThunk@DName@@QAEXXZ 004125ba f i libvcruntime:undname.obj
 0001:000115c4       ?setPtrRef@DName@@QAEAAV1@XZ 004125c4 f i libvcruntime:undname.obj
 0001:000115d0       ?status@DName@@QBE?AW4DNameStatus@@XZ 004125d0 f i libvcruntime:undname.obj
 0001:00011655       ___unDName                 00412655 f   libvcruntime:undname.obj
 0001:00011680       ___unDNameEx               00412680 f   libvcruntime:undname.obj
 0001:00011746       __vsprintf_s_l             00412746 f i libvcruntime:undname.obj
 0001:0001177e       _snprintf                  0041277e f i libvcruntime:undname.obj
 0001:0001179e       _sprintf_s                 0041279e f i libvcruntime:undname.obj
 0001:000117c1       _unDNameGenerateCHPE       004127c1 f   libvcruntime:undname.obj
 0001:00011885       _vsnprintf                 00412885 f i libvcruntime:undname.obj
 0001:000118d0       __global_unwind2           004128d0 f   libvcruntime:exsup.obj
 0001:00011960       __local_unwind2            00412960 f   libvcruntime:exsup.obj
 0001:00011a20       __abnormal_termination     00412a20 f   libvcruntime:exsup.obj
 0001:00011a60       __NLG_Notify1              00412a60 f   libvcruntime:exsup.obj
 0001:00011a70       __NLG_Notify               00412a70 f   libvcruntime:exsup.obj
 0001:00011a87       __NLG_Dispatch             00412a87     libvcruntime:exsup.obj
 0001:00011a87       __NLG_Dispatch2            00412a87     libvcruntime:exsup.obj
 0001:00011aa0       __NLG_Call                 00412aa0 f   libvcruntime:exsup.obj
 0001:00011aa2       __NLG_Return2              00412aa2     libvcruntime:exsup.obj
 0001:00011aa3       ??$__crt_interlocked_exchange_pointer@UHINSTANCE__@@PAU1@@@YAPAUHINSTANCE__@@PDSAU0@QAU0@@Z 00412aa3 f i libvcruntime:winapi_downlevel.obj
 0001:00011ab3       ??$__crt_interlocked_exchange_pointer@UHINSTANCE__@@PAX@@YAPAUHINSTANCE__@@PDSAU0@QAX@Z 00412ab3 f i libvcruntime:winapi_downlevel.obj
 0001:00011ac3       ??$__crt_interlocked_exchange_pointer@XPAX@@YAPAXPDSAXQAX@Z 00412ac3 f i libvcruntime:winapi_downlevel.obj
 0001:00011ad3       ??$__crt_interlocked_read_pointer@UHINSTANCE__@@@@YAPAUHINSTANCE__@@PDSAU0@@Z 00412ad3 f i libvcruntime:winapi_downlevel.obj
 0001:00011ae0       ??$__crt_interlocked_read_pointer@X@@YAPAXPDSAX@Z 00412ae0 f i libvcruntime:winapi_downlevel.obj
 0001:00011e0a       ___vcrt_FlsAlloc           00412e0a f   libvcruntime:winapi_downlevel.obj
 0001:00011e53       ___vcrt_FlsFree            00412e53 f   libvcruntime:winapi_downlevel.obj
 0001:00011e9c       ___vcrt_FlsGetValue        00412e9c f   libvcruntime:winapi_downlevel.obj
 0001:00011ee5       ___vcrt_FlsSetValue        00412ee5 f   libvcruntime:winapi_downlevel.obj
 0001:00011f32       ___vcrt_InitializeCriticalSectionEx 00412f32 f   libvcruntime:winapi_downlevel.obj
 0001:00011f8a       ??$__crt_interlocked_exchange_pointer@$$A6AXXZP6AXXZ@@YAP6AXXZPDS6AXXZQ6AXXZ@Z 00412f8a f i libvcruntime:purevirt.obj
 0001:00011f9a       ??$__crt_interlocked_read_pointer@$$A6AXXZ@@YAP6AXXZPDS6AXXZ@Z 00412f9a f i libvcruntime:purevirt.obj
 0001:00011fa7       __get_purecall_handler     00412fa7 f   libvcruntime:purevirt.obj
 0001:00011fae       __purecall                 00412fae f   libvcruntime:purevirt.obj
 0001:00011fd1       __set_purecall_handler     00412fd1 f   libvcruntime:purevirt.obj
 0001:00011fe3       ??$?0AAViterator@TryBlockMap@__FrameHandler3@@AAV012@$0A@@?$pair@Viterator@TryBlockMap@__FrameHandler3@@V123@@std@@QAE@AAViterator@TryBlockMap@__FrameHandler3@@0@Z 00412fe3 f i libvcruntime:trnsctrl.obj
 0001:00012010       ??$forward@AAViterator@TryBlockMap@__FrameHandler3@@@std@@YAAAViterator@TryBlockMap@__FrameHandler3@@AAV123@@Z 00413010 f i libvcruntime:trnsctrl.obj
 0001:0001201a       ??0iterator@TryBlockMap@__FrameHandler3@@QAE@AAV12@I@Z 0041301a f i libvcruntime:trnsctrl.obj
 0001:00012033       ?GetRangeOfTrysToCheck@__FrameHandler3@@SA?AU?$pair@Viterator@TryBlockMap@__FrameHandler3@@V123@@std@@AAVTryBlockMap@1@HPAXPBU_s_FuncInfo@@H@Z 00413033 f   libvcruntime:trnsctrl.obj
 0001:000120bd       ?_CallCatchBlock2@@YAPAXPAUEHRegistrationNode@@PBU_s_FuncInfo@@PAXHK@Z 004130bd f   libvcruntime:trnsctrl.obj
 0001:00012131       ?_CallSETranslator@@YAHPAUEHExceptionRecord@@PAUEHRegistrationNode@@PAX2PBU_s_FuncInfo@@H1@Z 00413131 f   libvcruntime:trnsctrl.obj
 0001:0001225d       ?_JumpToContinuation@@YGXPAXPAUEHRegistrationNode@@@Z 0041325d f   libvcruntime:trnsctrl.obj
 0001:00012299       ?_UnwindNestedFrames@@YGXPAUEHRegistrationNode@@PAUEHExceptionRecord@@@Z 00413299 f   libvcruntime:trnsctrl.obj
 0001:00012302       __CatchGuardHandler        00413302 f   libvcruntime:trnsctrl.obj
 0001:0001233f       __CreateFrameInfo          0041333f f   libvcruntime:trnsctrl.obj
 0001:0001236c       __FindAndUnlinkFrame       0041336c f   libvcruntime:trnsctrl.obj
 0001:000123c6       __TranslatorGuardHandler   004133c6 f   libvcruntime:trnsctrl.obj
 0001:0001248c       ___CxxFrameHandler         0041348c f   libvcruntime:trnsctrl.obj
 0001:000124cf       ___CxxFrameHandler2        004134cf f   libvcruntime:trnsctrl.obj
 0001:00012512       ___CxxFrameHandler3        00413512 f   libvcruntime:trnsctrl.obj
 0001:00012555       ___CxxLongjmpUnwind@4      00413555 f   libvcruntime:trnsctrl.obj
 0001:00012590       _memcpy                    00413590 f   libvcruntime:memcpy.obj
 0001:0001355e       ??$TypeMatchHelper@V__FrameHandler3@@@@YAHPBU_s_HandlerType@@PBU_s_CatchableType@@PBU_s_ThrowInfo@@@Z 0041455e f i libvcruntime:frame.obj
 0001:0001360f       ??$__InternalCxxFrameHandler@V__FrameHandler3@@@@YA?AW4_EXCEPTION_DISPOSITION@@PAUEHExceptionRecord@@PAUEHRegistrationNode@@PAU_CONTEXT@@PAXPBU_s_FuncInfo@@H1E@Z 0041460f f i libvcruntime:frame.obj
 0001:00013751       ??$__InternalCxxFrameHandlerWrapper@V__FrameHandler3@@@@YA?AW4_EXCEPTION_DISPOSITION@@PAUEHExceptionRecord@@PAUEHRegistrationNode@@PAU_CONTEXT@@PAXPBU_s_FuncInfo@@H1E@Z 00414751 f i libvcruntime:frame.obj
 0001:0001375c       ??0HandlerMap@__FrameHandler3@@QAE@PBU_s_TryBlockMapEntry@@II@Z 0041475c f i libvcruntime:frame.obj
 0001:00013778       ??0TryBlockMap@__FrameHandler3@@QAE@PBU_s_FuncInfo@@I@Z 00414778 f i libvcruntime:frame.obj
 0001:00013791       ??0bad_exception@std@@QAE@ABV01@@Z 00414791 f i libvcruntime:frame.obj
 0001:000137b2       ??0bad_exception@std@@QAE@XZ 004147b2 f i libvcruntime:frame.obj
 0001:000137d0       ??0exception@std@@QAE@ABV01@@Z 004147d0 f i libvcruntime:frame.obj
 0001:00013807       ??0exception@std@@QAE@QBDH@Z 00414807 f i libvcruntime:frame.obj
 0001:0001382b       ??0iterator@HandlerMap@__FrameHandler3@@QAE@AAV12@I@Z 0041482b f i libvcruntime:frame.obj
 0001:00013844       ??1bad_exception@std@@UAE@XZ 00414844 f i libvcruntime:frame.obj
 0001:00013859       ??1exception@std@@UAE@XZ   00414859 f i libvcruntime:frame.obj
 0001:0001386e       ??8iterator@HandlerMap@__FrameHandler3@@QBE_NABV012@@Z 0041486e f i libvcruntime:frame.obj
 0001:00013885       ??8type_info@@QBE_NABV0@@Z 00414885 f i libvcruntime:frame.obj
 0001:000138ab       ??9iterator@HandlerMap@__FrameHandler3@@QBE_NABV012@@Z 004148ab f i libvcruntime:frame.obj
 0001:000138c2       ??Diterator@HandlerMap@__FrameHandler3@@QAE?BU_s_HandlerType@@XZ 004148c2 f i libvcruntime:frame.obj
 0001:000138e8       ??Diterator@TryBlockMap@__FrameHandler3@@QAE?BU_s_TryBlockMapEntry@@XZ 004148e8 f i libvcruntime:frame.obj
 0001:00013912       ??Eiterator@HandlerMap@__FrameHandler3@@QAEAAV012@XZ 00414912 f i libvcruntime:frame.obj
 0001:00013918       ??Eiterator@TryBlockMap@__FrameHandler3@@QAEAAV012@XZ 00414918 f i libvcruntime:frame.obj
 0001:0001391e       ??Miterator@TryBlockMap@__FrameHandler3@@QBE_NABV012@@Z 0041491e f i libvcruntime:frame.obj
 0001:00013935       ??_Ebad_exception@std@@UAEPAXI@Z 00414935 f i libvcruntime:frame.obj
 0001:00013935       ??_Gbad_exception@std@@UAEPAXI@Z 00414935 f i libvcruntime:frame.obj
 0001:0001396d       ??_Eexception@std@@UAEPAXI@Z 0041496d f i libvcruntime:frame.obj
 0001:0001396d       ??_Gexception@std@@UAEPAXI@Z 0041496d f i libvcruntime:frame.obj
 0001:000139a5       ?BuildCatchObject@__FrameHandler3@@SAXPAUEHExceptionRecord@@PAXPBU_s_HandlerType@@PBU_s_CatchableType@@@Z 004149a5 f   libvcruntime:frame.obj
 0001:000139aa       ?BuildCatchObjectHelper@__FrameHandler3@@SAHPAUEHExceptionRecord@@PAXPBU_s_HandlerType@@PBU_s_CatchableType@@@Z 004149aa f   libvcruntime:frame.obj
 0001:00013ca1       ?FrameUnwindToEmptyState@__FrameHandler3@@SAXPAUEHRegistrationNode@@PAXPBU_s_FuncInfo@@@Z 00414ca1 f   libvcruntime:frame.obj
 0001:00013cbf       ?FrameUnwindToState@__FrameHandler3@@SAXPAUEHRegistrationNode@@PAXPBU_s_FuncInfo@@H@Z 00414cbf f   libvcruntime:frame.obj
 0001:00013de1       ?GetMaxState@__FrameHandler3@@SAHPAXPBU_s_FuncInfo@@@Z 00414de1 f i libvcruntime:frame.obj
 0001:00013ef5       ?TypeMatch@__FrameHandler3@@SAHPBU_s_HandlerType@@PBU_s_CatchableType@@PBU_s_ThrowInfo@@@Z 00414ef5 f   libvcruntime:frame.obj
 0001:00013f00       ?_CallMemberFunction1@@YGXQAX00@Z 00414f00 f i libvcruntime:frame.obj
 0001:00013f14       ?_CallMemberFunction2@@YGXQAX00H@Z 00414f14 f i libvcruntime:frame.obj
 0001:00013f2b       ?begin@HandlerMap@__FrameHandler3@@QAE?AViterator@12@XZ 00414f2b f i libvcruntime:frame.obj
 0001:00013f3f       ?end@HandlerMap@__FrameHandler3@@QAE?AViterator@12@XZ 00414f3f f i libvcruntime:frame.obj
 0001:00013f54       ?getESTypes@__FrameHandler3@@SAPBU_s_ESTypeList@@PBU_s_FuncInfo@@@Z 00414f54 f i libvcruntime:frame.obj
 0001:00013f61       ?getLastEntry@HandlerMap@__FrameHandler3@@QAEPBU_s_HandlerType@@XZ 00414f61 f i libvcruntime:frame.obj
 0001:00013f72       ?getMagicNum@__FrameHandler3@@SAIPBU_s_FuncInfo@@@Z 00414f72 f i libvcruntime:frame.obj
 0001:00013f84       ?getNumTryBlocks@TryBlockMap@__FrameHandler3@@QAEIXZ 00414f84 f i libvcruntime:frame.obj
 0001:00013f8a       ?isEHs@__FrameHandler3@@SA_NPBU_s_FuncInfo@@@Z 00414f8a f i libvcruntime:frame.obj
 0001:00013f9a       ?isNoExcept@__FrameHandler3@@SA_NPBU_s_FuncInfo@@@Z 00414f9a f i libvcruntime:frame.obj
 0001:00013fae       ?what@exception@std@@UBEPBDXZ 00414fae f i libvcruntime:frame.obj
 0001:00013fbe       ___BuildCatchObject        00414fbe f   libvcruntime:frame.obj
 0001:00013fc3       ___BuildCatchObjectHelper  00414fc3 f   libvcruntime:frame.obj
 0001:00013fce       ___TypeMatch               00414fce f   libvcruntime:frame.obj
 0001:00013fd9       ___vcrt_EncodePointer      00414fd9 f i libvcruntime:frame.obj
 0001:00013ff0       __CallSettingFrame@12      00414ff0 f   libvcruntime:lowhelpr.obj
 0001:00014017       __NLG_Return               00415017     libvcruntime:lowhelpr.obj
 0001:00014068       __get_unexpected           00415068 f   libvcruntime:unexpected.obj
 0001:0001407e       _set_unexpected            0041507e f   libvcruntime:unexpected.obj
 0001:000140a3       _unexpected                004150a3 f   libvcruntime:unexpected.obj
 0001:000140c7       ?GetCurrentState@__FrameHandler3@@SAHPAUEHRegistrationNode@@PAXPBU_s_FuncInfo@@@Z 004150c7 f   libvcruntime:ehstate.obj
 0001:000140eb       ?SetState@__FrameHandler3@@SAXPAUEHRegistrationNode@@PBU_s_FuncInfo@@H@Z 004150eb f   libvcruntime:ehstate.obj
 0001:000140fc       ??$?RD@__crt_public_free_policy@@QBEXQBD@Z 004150fc f i libvcruntime:std_exception.obj
 0001:00014110       ??0?$__crt_unique_heap_ptr@DU__crt_public_free_policy@@@@QAE@QAD@Z 00415110 f i libvcruntime:std_exception.obj
 0001:00014121       ??1?$__crt_unique_heap_ptr@DU__crt_public_free_policy@@@@QAE@XZ 00415121 f i libvcruntime:std_exception.obj
 0001:00014135       ??B?$__crt_unique_heap_ptr@DU__crt_public_free_policy@@@@QBE_NXZ 00415135 f i libvcruntime:std_exception.obj
 0001:0001413c       ?detach@?$__crt_unique_heap_ptr@DU__crt_public_free_policy@@@@QAEPADXZ 0041513c f i libvcruntime:std_exception.obj
 0001:00014142       ?get@?$__crt_unique_heap_ptr@DU__crt_public_free_policy@@@@QBEPADXZ 00415142 f i libvcruntime:std_exception.obj
 0001:00014145       ?is_valid@?$__crt_unique_heap_ptr@DU__crt_public_free_policy@@@@QBE_NXZ 00415145 f i libvcruntime:std_exception.obj
 0001:0001414c       ?release@?$__crt_unique_heap_ptr@DU__crt_public_free_policy@@@@QAEXXZ 0041514c f i libvcruntime:std_exception.obj
 0001:00014160       ___std_exception_copy      00415160 f   libvcruntime:std_exception.obj
 0001:000141db       ___std_exception_destroy   004151db f   libvcruntime:std_exception.obj
 0001:00014201       __CxxThrowException@8      00415201 f   libvcruntime:throw.obj
 0001:00014290       _memmove                   00415290 f   libvcruntime:memmove.obj
 0001:00014b4d       ___acrt_locale_changed     00415b4d f i libucrt:_ctype.obj
 0001:00014b5a       ___acrt_locale_get_ctype_array_value 00415b5a f i libucrt:_ctype.obj
 0001:00014b90       ___isascii                 00415b90 f   libucrt:_ctype.obj
 0001:00014bb0       ___iscsym                  00415bb0 f   libucrt:_ctype.obj
 0001:00014c40       ___iscsymf                 00415c40 f   libucrt:_ctype.obj
 0001:00014d00       ___toascii                 00415d00 f   libucrt:_ctype.obj
 0001:00014d10       __isalnum_l                00415d10 f   libucrt:_ctype.obj
 0001:00014e10       __isalpha_l                00415e10 f   libucrt:_ctype.obj
 0001:00014f10       __isblank_l                00415f10 f   libucrt:_ctype.obj
 0001:00015000       __iscntrl_l                00416000 f   libucrt:_ctype.obj
 0001:000150f0       __iscsym_l                 004160f0 f   libucrt:_ctype.obj
 0001:000151e0       __iscsymf_l                004161e0 f   libucrt:_ctype.obj
 0001:000152d0       __isdigit_l                004162d0 f   libucrt:_ctype.obj
 0001:000153c0       __isgraph_l                004163c0 f   libucrt:_ctype.obj
 0001:000154c0       __islower_l                004164c0 f   libucrt:_ctype.obj
 0001:000155b0       __isprint_l                004165b0 f   libucrt:_ctype.obj
 0001:000156b0       __ispunct_l                004166b0 f   libucrt:_ctype.obj
 0001:000157a0       __isspace_l                004167a0 f   libucrt:_ctype.obj
 0001:00015890       __isupper_l                00416890 f   libucrt:_ctype.obj
 0001:00015980       __isxdigit_l               00416980 f   libucrt:_ctype.obj
 0001:00015a80       _isalnum                   00416a80 f   libucrt:_ctype.obj
 0001:00015b30       _isalpha                   00416b30 f   libucrt:_ctype.obj
 0001:00015be0       _isblank                   00416be0 f   libucrt:_ctype.obj
 0001:00015ca0       _iscntrl                   00416ca0 f   libucrt:_ctype.obj
 0001:00015d50       _isdigit                   00416d50 f   libucrt:_ctype.obj
 0001:00015e00       _isgraph                   00416e00 f   libucrt:_ctype.obj
 0001:00015eb0       _islower                   00416eb0 f   libucrt:_ctype.obj
 0001:00015f60       _isprint                   00416f60 f   libucrt:_ctype.obj
 0001:00016010       _ispunct                   00417010 f   libucrt:_ctype.obj
 0001:000160c0       _isspace                   004170c0 f   libucrt:_ctype.obj
 0001:00016170       _isupper                   00417170 f   libucrt:_ctype.obj
 0001:00016220       _isxdigit                  00417220 f   libucrt:_ctype.obj
 0001:000162cd       ??$__crt_interlocked_read@J@@YAJPDJ@Z 004172cd f i libucrt:fputc.obj
 0001:000162dd       ??0?$cached@H@__crt_cached_ptd_host@@QAE@XZ 004172dd f i libucrt:fputc.obj
 0001:000162e4       ??0?$cached@K@__crt_cached_ptd_host@@QAE@XZ 004172e4 f i libucrt:fputc.obj
 0001:000162eb       ??0__crt_cached_ptd_host@@QAE@QAU__crt_locale_pointers@@@Z 004172eb f i libucrt:fputc.obj
 0001:00016345       ??0__crt_scoped_get_last_error_reset@@QAE@XZ 00417345 f i libucrt:fputc.obj
 0001:0001635a       ??0__crt_stdio_stream@@QAE@QAU_iobuf@@@Z 0041735a f i libucrt:fputc.obj
 0001:0001636e       ??1__crt_cached_ptd_host@@QAE@XZ 0041736e f i libucrt:fputc.obj
 0001:000163b9       ??1__crt_scoped_get_last_error_reset@@QAE@XZ 004173b9 f i libucrt:fputc.obj
 0001:000163c4       ??C__crt_stdio_stream@@QBEPAU__crt_stdio_stream_data@@XZ 004173c4 f i libucrt:fputc.obj
 0001:00016548       ?check_synchronize_global_state_index@__crt_cached_ptd_host@@AAEIABV__crt_scoped_get_last_error_reset@@@Z 00417548 f i libucrt:fputc.obj
 0001:00016566       ?check_synchronize_per_thread_data@__crt_cached_ptd_host@@AAEPAU__acrt_ptd@@XZ 00417566 f i libucrt:fputc.obj
 0001:0001658a       ?force_synchronize_global_state_index@__crt_cached_ptd_host@@AAEIABV__crt_scoped_get_last_error_reset@@@Z 0041758a f i libucrt:fputc.obj
 0001:0001659a       ?force_synchronize_per_thread_data@__crt_cached_ptd_host@@AAEPAU__acrt_ptd@@XZ 0041759a f i libucrt:fputc.obj
 0001:000165f1       ?get_current_state_index@__crt_state_management@@YAIABV__crt_scoped_get_last_error_reset@@@Z 004175f1 f i libucrt:fputc.obj
 0001:000165f4       ?get_errno@__crt_cached_ptd_host@@QAE@XZ 004175f4 f i libucrt:fputc.obj
 0001:000165f8       ?get_flags@__crt_stdio_stream@@QBEJXZ 004175f8 f i libucrt:fputc.obj
 0001:000165ff       ?get_raw_ptd@__crt_cached_ptd_host@@QAEPAU__acrt_ptd@@XZ 004175ff f i libucrt:fputc.obj
 0001:00016623       ?is_string_backed@__crt_stdio_stream@@QBE_NXZ 00417623 f i libucrt:fputc.obj
 0001:00016632       ?public_stream@__crt_stdio_stream@@QBEPAU_iobuf@@XZ 00417632 f i libucrt:fputc.obj
 0001:00016635       ?set@?$cached@H@__crt_cached_ptd_host@@QAEHH@Z 00417635 f i libucrt:fputc.obj
 0001:0001664b       ?unsafe_value@?$cached@H@__crt_cached_ptd_host@@QAEHXZ 0041764b f i libucrt:fputc.obj
 0001:0001664e       ?unsafe_value@?$cached@K@__crt_cached_ptd_host@@QAEKXZ 0041764e f i libucrt:fputc.obj
 0001:00016651       ?valid@?$cached@H@__crt_cached_ptd_host@@QBE_NXZ 00417651 f i libucrt:fputc.obj
 0001:00016655       ?valid@?$cached@K@__crt_cached_ptd_host@@QBE_NXZ 00417655 f i libucrt:fputc.obj
 0001:00016659       ___acrt_enable_global_locale_sync 00417659 f i libucrt:fputc.obj
 0001:00016673       __fputc_nolock             00417673 f   libucrt:fputc.obj
 0001:000166b4       __fputc_nolock_internal    004176b4 f   libucrt:fputc.obj
 0001:000166ec       __fputchar                 004176ec f   libucrt:fputc.obj
 0001:0001670c       __putc_nolock              0041770c f   libucrt:fputc.obj
 0001:00016719       _fputc                     00417719 f   libucrt:fputc.obj
 0001:0001675a       _putc                      0041775a f   libucrt:fputc.obj
 0001:00016767       _putchar                   00417767 f   libucrt:fputc.obj
 0001:000167a1       __seh_filter_dll           004177a1 f   libucrt:exception_filter.obj
 0001:000167c9       __seh_filter_exe           004177c9 f   libucrt:exception_filter.obj
 0001:00016a26       ___acrt_report_runtime_error 00417a26 f   libucrt:report_runtime_error.obj
 0001:00016b80       __invoke_watson_if_error   00417b80 f i libucrt:report_runtime_error.obj
 0001:00016baa       __query_app_type           00417baa f   libucrt:report_runtime_error.obj
 0001:00016bb0       __set_app_type             00417bb0 f   libucrt:report_runtime_error.obj
 0001:00016bc2       ??$__crt_fast_decode_pointer@P6AHPAU_exception@@@Z@@YAP6AHPAU_exception@@@ZQ6AH0@Z@Z 00417bc2 f i libucrt:matherr.obj
 0001:00016be3       ??$__crt_fast_encode_pointer@P6AHPAU_exception@@@Z@@YAP6AHPAU_exception@@@ZQ6AH0@Z@Z 00417be3 f i libucrt:matherr.obj
 0001:00016c09       ?__crt_rotate_pointer_value@@YAIIH@Z 00417c09 f i libucrt:matherr.obj
 0001:00016c1b       ?get_current_state_index@__crt_state_management@@YAIXZ 00417c1b f i libucrt:matherr.obj
 0001:00016c1e       ?initialize@?$dual_state_global@P6AHPAU_exception@@@Z@__crt_state_management@@QAEXQ6AHPAU_exception@@@Z@Z 00417c1e f i libucrt:matherr.obj
 0001:00016c41       ?value@?$dual_state_global@P6AHPAU_exception@@@Z@__crt_state_management@@QAEAAP6AHPAU_exception@@@ZXZ 00417c41 f i libucrt:matherr.obj
 0001:00016c44       ___acrt_has_user_matherr   00417c44 f   libucrt:matherr.obj
 0001:00016c68       ___acrt_initialize_user_matherr 00417c68 f   libucrt:matherr.obj
 0001:00016c7a       ___acrt_invoke_user_matherr 00417c7a f   libucrt:matherr.obj
 0001:00016cbd       ___setusermatherr          00417cbd f   libucrt:matherr.obj
 0001:00016cd7       ??$?RE@__crt_internal_free_policy@@QBEXQBE@Z 00417cd7 f i libucrt:argv_parsing.obj
 0001:00016ced       ??$?RPAD@__crt_internal_free_policy@@QBEXQBQAD@Z 00417ced f i libucrt:argv_parsing.obj
 0001:00016d03       ??$?RPA_W@__crt_internal_free_policy@@QBEXQBQA_W@Z 00417d03 f i libucrt:argv_parsing.obj
 0001:00017028       ??$get_module_file_name@$$TAAY0BAF@DH@?$__crt_char_traits@D@@SAK$$QA$$TAAY0BAF@D$$QAH@Z 00418028 f i libucrt:argv_parsing.obj
 0001:0001704b       ??$get_module_file_name@$$TAAY0BAF@_WH@?$__crt_char_traits@_W@@SAK$$QA$$TAAY0BAF@_W$$QAH@Z 0041804b f i libucrt:argv_parsing.obj
 0001:00017445       ??$set_program_name@PAD@?$__crt_char_traits@D@@SAX$$QAPAD@Z 00418445 f i libucrt:argv_parsing.obj
 0001:0001745a       ??$set_program_name@PA_W@?$__crt_char_traits@_W@@SAX$$QAPA_W@Z 0041845a f i libucrt:argv_parsing.obj
 0001:00017497       ??0?$__crt_unique_heap_ptr@EU__crt_internal_free_policy@@@@QAE@QAE@Z 00418497 f i libucrt:argv_parsing.obj
 0001:000174ab       ??0?$__crt_unique_heap_ptr@PADU__crt_internal_free_policy@@@@QAE@QAPAD@Z 004184ab f i libucrt:argv_parsing.obj
 0001:000174bf       ??0?$__crt_unique_heap_ptr@PA_WU__crt_internal_free_policy@@@@QAE@QAPA_W@Z 004184bf f i libucrt:argv_parsing.obj
 0001:000174d3       ??1?$__crt_unique_heap_ptr@EU__crt_internal_free_policy@@@@QAE@XZ 004184d3 f i libucrt:argv_parsing.obj
 0001:000174e9       ??1?$__crt_unique_heap_ptr@PADU__crt_internal_free_policy@@@@QAE@XZ 004184e9 f i libucrt:argv_parsing.obj
 0001:000174ff       ??1?$__crt_unique_heap_ptr@PA_WU__crt_internal_free_policy@@@@QAE@XZ 004184ff f i libucrt:argv_parsing.obj
 0001:00017515       ??B?$__crt_unique_heap_ptr@EU__crt_internal_free_policy@@@@QBE_NXZ 00418515 f i libucrt:argv_parsing.obj
 0001:00017552       ?detach@?$__crt_unique_heap_ptr@EU__crt_internal_free_policy@@@@QAEPAEXZ 00418552 f i libucrt:argv_parsing.obj
 0001:00017558       ?detach@?$__crt_unique_heap_ptr@PADU__crt_internal_free_policy@@@@QAEPAPADXZ 00418558 f i libucrt:argv_parsing.obj
 0001:0001755e       ?detach@?$__crt_unique_heap_ptr@PA_WU__crt_internal_free_policy@@@@QAEPAPA_WXZ 0041855e f i libucrt:argv_parsing.obj
 0001:00017586       ?get@?$__crt_unique_heap_ptr@EU__crt_internal_free_policy@@@@QBEPAEXZ 00418586 f i libucrt:argv_parsing.obj
 0001:00017589       ?get@?$__crt_unique_heap_ptr@PADU__crt_internal_free_policy@@@@QBEPAPADXZ 00418589 f i libucrt:argv_parsing.obj
 0001:0001758c       ?get@?$__crt_unique_heap_ptr@PA_WU__crt_internal_free_policy@@@@QBEPAPA_WXZ 0041858c f i libucrt:argv_parsing.obj
 0001:0001758f       ?get_address_of@?$__crt_unique_heap_ptr@PADU__crt_internal_free_policy@@@@QAEPAPAPADXZ 0041858f f i libucrt:argv_parsing.obj
 0001:00017592       ?get_address_of@?$__crt_unique_heap_ptr@PA_WU__crt_internal_free_policy@@@@QAEPAPAPA_WXZ 00418592 f i libucrt:argv_parsing.obj
 0001:000175ad       ?is_valid@?$__crt_unique_heap_ptr@EU__crt_internal_free_policy@@@@QBE_NXZ 004185ad f i libucrt:argv_parsing.obj
 0001:000175b4       ?release@?$__crt_unique_heap_ptr@EU__crt_internal_free_policy@@@@QAEXXZ 004185b4 f i libucrt:argv_parsing.obj
 0001:000175ca       ?release@?$__crt_unique_heap_ptr@PADU__crt_internal_free_policy@@@@QAEXXZ 004185ca f i libucrt:argv_parsing.obj
 0001:000175e0       ?release@?$__crt_unique_heap_ptr@PA_WU__crt_internal_free_policy@@@@QAEXXZ 004185e0 f i libucrt:argv_parsing.obj
 0001:00017615       ___acrt_allocate_buffer_for_argv 00418615 f   libucrt:argv_parsing.obj
 0001:00017677       __configure_narrow_argv    00418677 f   libucrt:argv_parsing.obj
 0001:00017684       __configure_wide_argv      00418684 f   libucrt:argv_parsing.obj
 0001:00017691       __set_pgmptr               00418691 f i libucrt:argv_parsing.obj
 0001:000176a3       __set_wpgmptr              004186a3 f i libucrt:argv_parsing.obj
 0001:000176b5       ??$?R_W@__crt_internal_free_policy@@QBEXQB_W@Z 004186b5 f i libucrt:environment_initialization.obj
 0001:00017bd4       ??$get_environment_from_os@$$V@?$__crt_char_traits@D@@SAPADXZ 00418bd4 f i libucrt:environment_initialization.obj
 0001:00017bd9       ??$get_environment_from_os@$$V@?$__crt_char_traits@_W@@SAPA_WXZ 00418bd9 f i libucrt:environment_initialization.obj
 0001:00017d22       ??$set_variable_in_environment_nolock@PADH@?$__crt_char_traits@D@@SAH$$QAPAD$$QAH@Z 00418d22 f i libucrt:environment_initialization.obj
 0001:00017d40       ??$set_variable_in_environment_nolock@PA_WH@?$__crt_char_traits@_W@@SAH$$QAPA_W$$QAH@Z 00418d40 f i libucrt:environment_initialization.obj
 0001:00017d5e       ??$tcscpy_s@PADABIAAPAD@?$__crt_char_traits@D@@SAH$$QAPADABIAAPAD@Z 00418d5e f i libucrt:environment_initialization.obj
 0001:00017d83       ??$tcscpy_s@PA_WABIAAPA_W@?$__crt_char_traits@_W@@SAH$$QAPA_WABIAAPA_W@Z 00418d83 f i libucrt:environment_initialization.obj
 0001:00017da8       ??$tcslen@AAPAD@?$__crt_char_traits@D@@SAIAAPAD@Z 00418da8 f i libucrt:environment_initialization.obj
 0001:00017dc6       ??$tcslen@AAPA_W@?$__crt_char_traits@_W@@SAIAAPA_W@Z 00418dc6 f i libucrt:environment_initialization.obj
 0001:00017deb       ??$uninitialize@A6AXAAPAPAD@_E@?$dual_state_global@PAPAD@__crt_state_management@@QAEXA6AXAAPAPAD@_E@Z 00418deb f i libucrt:environment_initialization.obj
 0001:00017e59       ??$uninitialize@A6AXAAPAPA_W@_E@?$dual_state_global@PAPA_W@__crt_state_management@@QAEXA6AXAAPAPA_W@_E@Z 00418e59 f i libucrt:environment_initialization.obj
 0001:00017f09       ??0?$__crt_unique_heap_ptr@_WU__crt_internal_free_policy@@@@QAE@QA_W@Z 00418f09 f i libucrt:environment_initialization.obj
 0001:00017f1d       ??1?$__crt_unique_heap_ptr@_WU__crt_internal_free_policy@@@@QAE@XZ 00418f1d f i libucrt:environment_initialization.obj
 0001:00017f33       ??B?$__crt_unique_heap_ptr@PADU__crt_internal_free_policy@@@@QBE_NXZ 00418f33 f i libucrt:environment_initialization.obj
 0001:00017f3a       ??B?$__crt_unique_heap_ptr@PA_WU__crt_internal_free_policy@@@@QBE_NXZ 00418f3a f i libucrt:environment_initialization.obj
 0001:00017f41       ??B?$__crt_unique_heap_ptr@_WU__crt_internal_free_policy@@@@QBE_NXZ 00418f41 f i libucrt:environment_initialization.obj
 0001:00017f48       ?__crt_compute_required_transform_buffer_count@@YAIIQBD@Z 00418f48 f i libucrt:environment_initialization.obj
 0001:00017f6b       ?__crt_compute_required_transform_buffer_count@@YAIIQB_W@Z 00418f6b f i libucrt:environment_initialization.obj
 0001:00017f90       ?__crt_transform_string@@YAIIQBDQA_WI@Z 00418f90 f i libucrt:environment_initialization.obj
 0001:00017fb6       ?__crt_transform_string@@YAIIQB_WQADI@Z 00418fb6 f i libucrt:environment_initialization.obj
 0001:00017fe0       ?detach@?$__crt_unique_heap_ptr@DU__crt_internal_free_policy@@@@QAEPADXZ 00418fe0 f i libucrt:environment_initialization.obj
 0001:00017fe6       ?detach@?$__crt_unique_heap_ptr@_WU__crt_internal_free_policy@@@@QAEPA_WXZ 00418fe6 f i libucrt:environment_initialization.obj
 0001:00017fec       ?get@?$__crt_unique_heap_ptr@_WU__crt_internal_free_policy@@@@QBEPA_WXZ 00418fec f i libucrt:environment_initialization.obj
 0001:00018013       ?initialize@?$dual_state_global@PAPAD@__crt_state_management@@QAEXQAPAD@Z 00419013 f i libucrt:environment_initialization.obj
 0001:00018036       ?initialize@?$dual_state_global@PAPA_W@__crt_state_management@@QAEXQAPA_W@Z 00419036 f i libucrt:environment_initialization.obj
 0001:00018059       ?is_valid@?$__crt_unique_heap_ptr@PADU__crt_internal_free_policy@@@@QBE_NXZ 00419059 f i libucrt:environment_initialization.obj
 0001:00018060       ?is_valid@?$__crt_unique_heap_ptr@PA_WU__crt_internal_free_policy@@@@QBE_NXZ 00419060 f i libucrt:environment_initialization.obj
 0001:00018067       ?is_valid@?$__crt_unique_heap_ptr@_WU__crt_internal_free_policy@@@@QBE_NXZ 00419067 f i libucrt:environment_initialization.obj
 0001:00018076       ?release@?$__crt_unique_heap_ptr@_WU__crt_internal_free_policy@@@@QAEXXZ 00419076 f i libucrt:environment_initialization.obj
 0001:0001808c       ?value@?$dual_state_global@PAPAD@__crt_state_management@@QAEAAPAPADXZ 0041908c f i libucrt:environment_initialization.obj
 0001:0001808f       ?value@?$dual_state_global@PAPA_W@__crt_state_management@@QAEAAPAPA_WXZ 0041908f f i libucrt:environment_initialization.obj
 0001:00018092       ___dcrt_get_or_create_narrow_environment_nolock 00419092 f   libucrt:environment_initialization.obj
 0001:00018097       ___dcrt_get_or_create_wide_environment_nolock 00419097 f   libucrt:environment_initialization.obj
 0001:0001809c       ___dcrt_uninitialize_environments_nolock 0041909c f   libucrt:environment_initialization.obj
 0001:00018101       ___p__environ              00419101 f   libucrt:environment_initialization.obj
 0001:00018107       ___p__wenviron             00419107 f   libucrt:environment_initialization.obj
 0001:0001810d       __get_initial_narrow_environment 0041910d f   libucrt:environment_initialization.obj
 0001:00018126       __get_initial_wide_environment 00419126 f   libucrt:environment_initialization.obj
 0001:0001813f       __initialize_narrow_environment 0041913f f   libucrt:environment_initialization.obj
 0001:00018144       __initialize_wide_environment 00419144 f   libucrt:environment_initialization.obj
 0001:00018149       __initterm                 00419149 f   libucrt:initterm.obj
 0001:0001817e       __initterm_e               0041917e f   libucrt:initterm.obj
 0001:000181b7       ??$?B$$A6GXPAXK0@Z@__crt_fast_encoded_nullptr_t@@QBEP6GXPAXK0@ZXZ 004191b7 f i libucrt:exit.obj
 0001:00018287       ??$__crt_fast_decode_pointer@P6GXPAXK0@Z@@YAP6GXPAXK0@ZQ6GX0K0@Z@Z 00419287 f i libucrt:exit.obj
 0001:000182a8       ??$__crt_fast_encode_pointer@P6GXPAXK0@Z@@YAP6GXPAXK0@ZQ6GX0K0@Z@Z 004192a8 f i libucrt:exit.obj
 0001:000182ce       ??$__crt_get_proc_address@P6GXI@Z@@YAP6GXI@ZQAUHINSTANCE__@@QBD@Z 004192ce f i libucrt:exit.obj
 0001:00018334       ??0?$__crt_unique_handle_t@U__crt_hmodule_traits@@@@QAE@QAUHINSTANCE__@@@Z 00419334 f i libucrt:exit.obj
 0001:00018348       ??1?$__crt_unique_handle_t@U__crt_hmodule_traits@@@@QAE@XZ 00419348 f i libucrt:exit.obj
 0001:0001849c       ?__acrt_select_exit_lock@@YA?AW4__acrt_lock_id@@XZ 0041949c f i libucrt:exit.obj
 0001:000184a0       ?__crt_fast_encode_pointer@@YA?AU__crt_fast_encoded_nullptr_t@@$$T@Z 004194a0 f i libucrt:exit.obj
 0001:000184c4       ?close@?$__crt_unique_handle_t@U__crt_hmodule_traits@@@@QAEXXZ 004194c4 f i libucrt:exit.obj
 0001:000184e0       ?close@__crt_hmodule_traits@@SA_NPAUHINSTANCE__@@@Z 004194e0 f i libucrt:exit.obj
 0001:000185f3       ?get@?$__crt_unique_handle_t@U__crt_hmodule_traits@@@@QBEPAUHINSTANCE__@@XZ 004195f3 f i libucrt:exit.obj
 0001:000185f6       ?get_address_of@?$__crt_unique_handle_t@U__crt_hmodule_traits@@@@QAEPAPAUHINSTANCE__@@XZ 004195f6 f i libucrt:exit.obj
 0001:000185f9       ?get_invalid_value@__crt_hmodule_traits@@SAPAUHINSTANCE__@@XZ 004195f9 f i libucrt:exit.obj
 0001:0001870f       __Exit                     0041970f f   libucrt:exit.obj
 0001:0001872a       ___acrt_initialize_thread_local_exit_callback 0041972a f   libucrt:exit.obj
 0001:0001873c       __c_exit                   0041973c f   libucrt:exit.obj
 0001:0001874e       __cexit                    0041974e f   libucrt:exit.obj
 0001:00018760       __exit                     00419760 f   libucrt:exit.obj
 0001:0001877b       __is_c_termination_complete 0041977b f   libucrt:exit.obj
 0001:00018782       __register_thread_local_exe_atexit_callback 00419782 f   libucrt:exit.obj
 0001:000187b1       _exit                      004197b1 f   libucrt:exit.obj
 0001:000187cc       _quick_exit                004197cc f   libucrt:exit.obj
 0001:000187e7       ??$__crt_interlocked_read@H@@YAHPDH@Z 004197e7 f i libucrt:setmode.obj
 0001:000187f7       ?value@?$dual_state_global@H@__crt_state_management@@QAEAAHXZ 004197f7 f i libucrt:setmode.obj
 0001:000187fa       __get_fmode                004197fa f   libucrt:setmode.obj
 0001:00018832       __set_fmode                00419832 f   libucrt:setmode.obj
 0001:0001887e       __setmode                  0041987e f   libucrt:setmode.obj
 0001:000189e6       __setmode_nolock           004199e6 f   libucrt:setmode.obj
 0001:00018ae8       ___acrt_initialize_command_line 00419ae8 f   libucrt:argv_data.obj
 0001:00018b07       ___acrt_uninitialize_command_line 00419b07 f   libucrt:argv_data.obj
 0001:00018b0a       ___p___argc                00419b0a f   libucrt:argv_data.obj
 0001:00018b10       ___p___argv                00419b10 f   libucrt:argv_data.obj
 0001:00018b16       ___p___wargv               00419b16 f   libucrt:argv_data.obj
 0001:00018b1c       ___p__acmdln               00419b1c f   libucrt:argv_data.obj
 0001:00018b22       ___p__pgmptr               00419b22 f   libucrt:argv_data.obj
 0001:00018b28       ___p__wcmdln               00419b28 f   libucrt:argv_data.obj
 0001:00018b2e       ___p__wpgmptr              00419b2e f   libucrt:argv_data.obj
 0001:00018b34       __get_pgmptr               00419b34 f   libucrt:argv_data.obj
 0001:00018b71       __get_wpgmptr              00419b71 f   libucrt:argv_data.obj
 0001:00018bb1       ??$?RU__crt_locale_data@@@__crt_internal_free_policy@@QBEXQBU__crt_locale_data@@@Z 00419bb1 f i libucrt:wsetlocale.obj
 0001:00018bc7       ??$?RU__crt_locale_pointers@@@__crt_internal_free_policy@@QBEXQBU__crt_locale_pointers@@@Z 00419bc7 f i libucrt:wsetlocale.obj
 0001:00018bdd       ??$?RU__crt_multibyte_data@@@__crt_internal_free_policy@@QBEXQBU__crt_multibyte_data@@@Z 00419bdd f i libucrt:wsetlocale.obj
 0001:00019067       ??0?$__crt_unique_heap_ptr@U__crt_locale_data@@U__crt_internal_free_policy@@@@QAE@QAU__crt_locale_data@@@Z 0041a067 f i libucrt:wsetlocale.obj
 0001:0001907b       ??0?$__crt_unique_heap_ptr@U__crt_locale_pointers@@U__crt_internal_free_policy@@@@QAE@QAU__crt_locale_pointers@@@Z 0041a07b f i libucrt:wsetlocale.obj
 0001:0001908f       ??0?$__crt_unique_heap_ptr@U__crt_multibyte_data@@U__crt_internal_free_policy@@@@QAE@QAU__crt_multibyte_data@@@Z 0041a08f f i libucrt:wsetlocale.obj
 0001:000190a3       ??0_expandlocale_locale_name_cache@@QAE@QA_WIQAU__crt_qualified_locale_data@@@Z 0041a0a3 f i libucrt:wsetlocale.obj
 0001:000190ff       ??1?$__crt_unique_heap_ptr@U__crt_locale_data@@U__crt_internal_free_policy@@@@QAE@XZ 0041a0ff f i libucrt:wsetlocale.obj
 0001:00019115       ??1?$__crt_unique_heap_ptr@U__crt_locale_pointers@@U__crt_internal_free_policy@@@@QAE@XZ 0041a115 f i libucrt:wsetlocale.obj
 0001:0001912b       ??1?$__crt_unique_heap_ptr@U__crt_multibyte_data@@U__crt_internal_free_policy@@@@QAE@XZ 0041a12b f i libucrt:wsetlocale.obj
 0001:00019141       ??1_expandlocale_locale_name_cache@@QAE@XZ 0041a141 f i libucrt:wsetlocale.obj
 0001:0001917d       ??B?$__crt_unique_heap_ptr@U__crt_locale_data@@U__crt_internal_free_policy@@@@QBE_NXZ 0041a17d f i libucrt:wsetlocale.obj
 0001:00019184       ??B?$__crt_unique_heap_ptr@U__crt_locale_pointers@@U__crt_internal_free_policy@@@@QBE_NXZ 0041a184 f i libucrt:wsetlocale.obj
 0001:0001918b       ??B?$__crt_unique_heap_ptr@U__crt_multibyte_data@@U__crt_internal_free_policy@@@@QBE_NXZ 0041a18b f i libucrt:wsetlocale.obj
 0001:0001942c       ?commit_locale_name@_expandlocale_locale_name_cache@@QAEXQB_WI@Z 0041a42c f i libucrt:wsetlocale.obj
 0001:00019481       ?commit_locale_name_cache_already_updated@_expandlocale_locale_name_cache@@QAEXQB_WI@Z 0041a481 f i libucrt:wsetlocale.obj
 0001:000194c3       ?detach@?$__crt_unique_heap_ptr@U__crt_locale_data@@U__crt_internal_free_policy@@@@QAEPAU__crt_locale_data@@XZ 0041a4c3 f i libucrt:wsetlocale.obj
 0001:000194c9       ?detach@?$__crt_unique_heap_ptr@U__crt_locale_pointers@@U__crt_internal_free_policy@@@@QAEPAU__crt_locale_pointers@@XZ 0041a4c9 f i libucrt:wsetlocale.obj
 0001:000194cf       ?detach@?$__crt_unique_heap_ptr@U__crt_multibyte_data@@U__crt_internal_free_policy@@@@QAEPAU__crt_multibyte_data@@XZ 0041a4cf f i libucrt:wsetlocale.obj
 0001:000194d5       ?get@?$__crt_unique_heap_ptr@U__crt_locale_data@@U__crt_internal_free_policy@@@@QBEPAU__crt_locale_data@@XZ 0041a4d5 f i libucrt:wsetlocale.obj
 0001:000194d8       ?get@?$__crt_unique_heap_ptr@U__crt_locale_pointers@@U__crt_internal_free_policy@@@@QBEPAU__crt_locale_pointers@@XZ 0041a4d8 f i libucrt:wsetlocale.obj
 0001:000194db       ?get@?$__crt_unique_heap_ptr@U__crt_multibyte_data@@U__crt_internal_free_policy@@@@QBEPAU__crt_multibyte_data@@XZ 0041a4db f i libucrt:wsetlocale.obj
 0001:000194de       ?is_valid@?$__crt_unique_heap_ptr@U__crt_locale_data@@U__crt_internal_free_policy@@@@QBE_NXZ 0041a4de f i libucrt:wsetlocale.obj
 0001:000194e5       ?is_valid@?$__crt_unique_heap_ptr@U__crt_locale_pointers@@U__crt_internal_free_policy@@@@QBE_NXZ 0041a4e5 f i libucrt:wsetlocale.obj
 0001:000194ec       ?is_valid@?$__crt_unique_heap_ptr@U__crt_multibyte_data@@U__crt_internal_free_policy@@@@QBE_NXZ 0041a4ec f i libucrt:wsetlocale.obj
 0001:000194f3       ?release@?$__crt_unique_heap_ptr@U__crt_locale_data@@U__crt_internal_free_policy@@@@QAEXXZ 0041a4f3 f i libucrt:wsetlocale.obj
 0001:00019509       ?release@?$__crt_unique_heap_ptr@U__crt_locale_pointers@@U__crt_internal_free_policy@@@@QAEXXZ 0041a509 f i libucrt:wsetlocale.obj
 0001:0001951f       ?release@?$__crt_unique_heap_ptr@U__crt_multibyte_data@@U__crt_internal_free_policy@@@@QAEXXZ 0041a51f f i libucrt:wsetlocale.obj
 0001:00019535       ?value@?$dual_state_global@PAU__crt_locale_data@@@__crt_state_management@@QAEAAPAU__crt_locale_data@@XZ 0041a535 f i libucrt:wsetlocale.obj
 0001:00019538       ___acrt_copy_locale_name   0041a538 f   libucrt:wsetlocale.obj
 0001:000195b0       ___acrt_disable_global_locale_sync 0041a5b0 f i libucrt:wsetlocale.obj
 0001:000195c7       ___acrt_set_locale_changed 0041a5c7 f   libucrt:wsetlocale.obj
 0001:000195d4       ___acrt_uninitialize_locale 0041a5d4 f   libucrt:wsetlocale.obj
 0001:00019604       ___ascii_tolower           0041a604 f i libucrt:wsetlocale.obj
 0001:00019620       ___ascii_towlower          0041a620 f i libucrt:wsetlocale.obj
 0001:0001963c       ___lc_lctowcs              0041a63c f   libucrt:wsetlocale.obj
 0001:000196c8       ___lc_wcstolc              0041a6c8 f   libucrt:wsetlocale.obj
 0001:00019854       __configthreadlocale       0041a854 f   libucrt:wsetlocale.obj
 0001:00019908       __create_locale            0041a908 f   libucrt:wsetlocale.obj
 0001:00019e3c       __free_locale              0041ae3c f   libucrt:wsetlocale.obj
 0001:00019f2e       __get_current_locale       0041af2e f   libucrt:wsetlocale.obj
 0001:00019fef       __wcreate_locale           0041afef f   libucrt:wsetlocale.obj
 0001:0001a137       __wcscats                  0041b137 f   libucrt:wsetlocale.obj
 0001:0001a188       __wsetlocale               0041b188 f   libucrt:wsetlocale.obj
 0001:0001b25f       ?value@?$dual_state_global@J@__crt_state_management@@QAEAAJXZ 0041c25f f i libucrt:new_mode.obj
 0001:0001b262       __query_new_mode           0041c262 f   libucrt:new_mode.obj
 0001:0001b269       __set_new_mode             0041c269 f   libucrt:new_mode.obj
 0001:0001b2a3       ___p__commode              0041c2a3 f   libucrt:ncommode.obj
 0001:0001b2a9       ??$?B$$A6AXXZ@__crt_fast_encoded_nullptr_t@@QBEP6AXXZXZ 0041c2a9 f i libucrt:onexit.obj
 0001:0001b2af       ??$?BP6AXXZ@__crt_fast_encoded_nullptr_t@@QBEPAP6AXXZXZ 0041c2af f i libucrt:onexit.obj
 0001:0001b2b5       ??$?RP6AXXZ@__crt_internal_free_policy@@QBEXQBQ6AXXZ@Z 0041c2b5 f i libucrt:onexit.obj
 0001:0001b446       ??$__crt_fast_decode_pointer@P6AXXZ@@YAP6AXXZQ6AXXZ@Z 0041c446 f i libucrt:onexit.obj
 0001:0001b467       ??$__crt_fast_decode_pointer@PAP6AXXZ@@YAPAP6AXXZQAP6AXXZ@Z 0041c467 f i libucrt:onexit.obj
 0001:0001b488       ??$__crt_fast_encode_pointer@P6AHXZ@@YAP6AHXZQ6AHXZ@Z 0041c488 f i libucrt:onexit.obj
 0001:0001b4ae       ??$__crt_fast_encode_pointer@P6AXXZ@@YAP6AXXZQ6AXXZ@Z 0041c4ae f i libucrt:onexit.obj
 0001:0001b4d4       ??$__crt_fast_encode_pointer@PAP6AXXZ@@YAPAP6AXXZQAP6AXXZ@Z 0041c4d4 f i libucrt:onexit.obj
 0001:0001b581       ??0?$__crt_unique_heap_ptr@P6AXXZU__crt_internal_free_policy@@@@QAE@QAP6AXXZ@Z 0041c581 f i libucrt:onexit.obj
 0001:0001b595       ??1?$__crt_unique_heap_ptr@P6AXXZU__crt_internal_free_policy@@@@QAE@XZ 0041c595 f i libucrt:onexit.obj
 0001:0001b5ab       ??1scoped_global_state_reset@__crt_state_management@@QAE@XZ 0041c5ab f i libucrt:onexit.obj
 0001:0001b82c       ?detach@?$__crt_unique_heap_ptr@P6AXXZU__crt_internal_free_policy@@@@QAEPAP6AXXZXZ 0041c82c f i libucrt:onexit.obj
 0001:0001b832       ?release@?$__crt_unique_heap_ptr@P6AXXZU__crt_internal_free_policy@@@@QAEXXZ 0041c832 f i libucrt:onexit.obj
 0001:0001b848       __crt_at_quick_exit        0041c848 f   libucrt:onexit.obj
 0001:0001b863       __crt_atexit               0041c863 f   libucrt:onexit.obj
 0001:0001b87e       __execute_onexit_table     0041c87e f   libucrt:onexit.obj
 0001:0001b8cb       __initialize_onexit_table  0041c8cb f   libucrt:onexit.obj
 0001:0001b8fe       __register_onexit_function 0041c8fe f   libucrt:onexit.obj
 0001:0001ba4a       ??$?BX@__crt_fast_encoded_nullptr_t@@QBEPAXXZ 0041ca4a f i libucrt:initialization.obj
 0001:0001ba50       ??$__crt_fast_encode_pointer@PAX@@YAPAXQAX@Z 0041ca50 f i libucrt:initialization.obj
 0001:0001badc       ?__acrt_stdio_is_initialized@@YA_NXZ 0041cadc f i libucrt:initialization.obj
 0001:0001bae9       ?initialize@?$dual_state_global@PAU__crt_locale_data@@@__crt_state_management@@QAEXQAU__crt_locale_data@@@Z 0041cae9 f i libucrt:initialization.obj
 0001:0001bb0c       ___acrt_initialize         0041cb0c f   libucrt:initialization.obj
 0001:0001bb22       ___acrt_thread_attach      0041cb22 f   libucrt:initialization.obj
 0001:0001bb2f       ___acrt_thread_detach      0041cb2f f   libucrt:initialization.obj
 0001:0001bb39       ___acrt_uninitialize       0041cb39 f   libucrt:initialization.obj
 0001:0001bb75       ___acrt_uninitialize_critical 0041cb75 f   libucrt:initialization.obj
 0001:0001bb8b       __controlfp_s              0041cb8b f   libucrt:contrlfp.obj
 0001:0001bc1c       __get_terminate            0041cc1c f   libucrt:terminate.obj
 0001:0001bc32       _set_terminate             0041cc32 f   libucrt:terminate.obj
 0001:0001bc5a       _terminate                 0041cc5a f   libucrt:terminate.obj
 0001:0001bca5       _free                      0041cca5 f   libucrt:free.obj
 0001:0001bcc6       _malloc                    0041ccc6 f   libucrt:malloc.obj
 0001:0001bd43       _strcpy_s                  0041cd43 f   libucrt:strcpy_s.obj
 0001:0001bdb3       __set_abort_behavior       0041cdb3 f   libucrt:abort.obj
 0001:0001bddc       _abort                     0041cddc f   libucrt:abort.obj
 0001:0001be31       _calloc                    0041ce31 f   libucrt:calloc.obj
 0001:0001be3e       ??$?0ABV?$stream_output_adapter@D@__crt_stdio_output@@AB_KABQBDAAV__crt_cached_ptd_host@@ABQAD@?$format_validation_base@DV?$stream_output_adapter@D@__crt_stdio_output@@@__crt_stdio_output@@IAE@ABV?$stream_output_adapter@D@1@AB_KABQBDAAV__crt_cached_ptd_host@@ABQAD@Z 0041ce3e f i libucrt:output.obj
 0001:0001be69       ??$?0ABV?$stream_output_adapter@D@__crt_stdio_output@@AB_KABQBDAAV__crt_cached_ptd_host@@ABQAD@?$positional_parameter_base@DV?$stream_output_adapter@D@__crt_stdio_output@@@__crt_stdio_output@@IAE@ABV?$stream_output_adapter@D@1@AB_KABQBDAAV__crt_cached_ptd_host@@ABQAD@Z 0041ce69 f i libucrt:output.obj
 0001:0001bec3       ??$?0ABV?$stream_output_adapter@D@__crt_stdio_output@@AB_KABQBDAAV__crt_cached_ptd_host@@ABQAD@?$standard_base@DV?$stream_output_adapter@D@__crt_stdio_output@@@__crt_stdio_output@@IAE@ABV?$stream_output_adapter@D@1@AB_KABQBDAAV__crt_cached_ptd_host@@ABQAD@Z 0041cec3 f i libucrt:output.obj
 0001:0001bf02       ??$?0ABV?$stream_output_adapter@_W@__crt_stdio_output@@AB_KABQB_WAAV__crt_cached_ptd_host@@ABQAD@?$format_validation_base@_WV?$stream_output_adapter@_W@__crt_stdio_output@@@__crt_stdio_output@@IAE@ABV?$stream_output_adapter@_W@1@AB_KABQB_WAAV__crt_cached_ptd_host@@ABQAD@Z 0041cf02 f i libucrt:output.obj
 0001:0001bf2d       ??$?0ABV?$stream_output_adapter@_W@__crt_stdio_output@@AB_KABQB_WAAV__crt_cached_ptd_host@@ABQAD@?$positional_parameter_base@_WV?$stream_output_adapter@_W@__crt_stdio_output@@@__crt_stdio_output@@IAE@ABV?$stream_output_adapter@_W@1@AB_KABQB_WAAV__crt_cached_ptd_host@@ABQAD@Z 0041cf2d f i libucrt:output.obj
 0001:0001bf87       ??$?0ABV?$stream_output_adapter@_W@__crt_stdio_output@@AB_KABQB_WAAV__crt_cached_ptd_host@@ABQAD@?$standard_base@_WV?$stream_output_adapter@_W@__crt_stdio_output@@@__crt_stdio_output@@IAE@ABV?$stream_output_adapter@_W@1@AB_KABQB_WAAV__crt_cached_ptd_host@@ABQAD@Z 0041cf87 f i libucrt:output.obj
 0001:0001bfc6       ??$?0ABV?$string_output_adapter@D@__crt_stdio_output@@AB_KABQBDAAV__crt_cached_ptd_host@@ABQAD@?$format_validation_base@DV?$string_output_adapter@D@__crt_stdio_output@@@__crt_stdio_output@@IAE@ABV?$string_output_adapter@D@1@AB_KABQBDAAV__crt_cached_ptd_host@@ABQAD@Z 0041cfc6 f i libucrt:output.obj
 0001:0001bff1       ??$?0ABV?$string_output_adapter@D@__crt_stdio_output@@AB_KABQBDAAV__crt_cached_ptd_host@@ABQAD@?$positional_parameter_base@DV?$string_output_adapter@D@__crt_stdio_output@@@__crt_stdio_output@@IAE@ABV?$string_output_adapter@D@1@AB_KABQBDAAV__crt_cached_ptd_host@@ABQAD@Z 0041cff1 f i libucrt:output.obj
 0001:0001c04b       ??$?0ABV?$string_output_adapter@D@__crt_stdio_output@@AB_KABQBDAAV__crt_cached_ptd_host@@ABQAD@?$standard_base@DV?$string_output_adapter@D@__crt_stdio_output@@@__crt_stdio_output@@IAE@ABV?$string_output_adapter@D@1@AB_KABQBDAAV__crt_cached_ptd_host@@ABQAD@Z 0041d04b f i libucrt:output.obj
 0001:0001c08a       ??$?0ABV?$string_output_adapter@_W@__crt_stdio_output@@AB_KABQB_WAAV__crt_cached_ptd_host@@ABQAD@?$format_validation_base@_WV?$string_output_adapter@_W@__crt_stdio_output@@@__crt_stdio_output@@IAE@ABV?$string_output_adapter@_W@1@AB_KABQB_WAAV__crt_cached_ptd_host@@ABQAD@Z 0041d08a f i libucrt:output.obj
 0001:0001c0b5       ??$?0ABV?$string_output_adapter@_W@__crt_stdio_output@@AB_KABQB_WAAV__crt_cached_ptd_host@@ABQAD@?$positional_parameter_base@_WV?$string_output_adapter@_W@__crt_stdio_output@@@__crt_stdio_output@@IAE@ABV?$string_output_adapter@_W@1@AB_KABQB_WAAV__crt_cached_ptd_host@@ABQAD@Z 0041d0b5 f i libucrt:output.obj
 0001:0001c10f       ??$?0ABV?$string_output_adapter@_W@__crt_stdio_output@@AB_KABQB_WAAV__crt_cached_ptd_host@@ABQAD@?$standard_base@_WV?$string_output_adapter@_W@__crt_stdio_output@@@__crt_stdio_output@@IAE@ABV?$string_output_adapter@_W@1@AB_KABQB_WAAV__crt_cached_ptd_host@@ABQAD@Z 0041d10f f i libucrt:output.obj
 0001:0001c50e       ??$_tcstol_internal@DPAPAD$0A@@@YAJAAV__crt_cached_ptd_host@@QBDQAPADH@Z 0041d50e f i libucrt:output.obj
 0001:0001c543       ??$_tcstol_internal@_WPAPA_W$0A@@@YAJAAV__crt_cached_ptd_host@@QB_WQAPA_WH@Z 0041d543 f i libucrt:output.obj
 0001:0001d86c       ??$count@D@formatting_buffer@__crt_stdio_output@@QBEIXZ 0041e86c f i libucrt:output.obj
 0001:0001d88a       ??$count@_W@formatting_buffer@__crt_stdio_output@@QBEIXZ 0041e88a f i libucrt:output.obj
 0001:0001d8a9       ??$data@D@formatting_buffer@__crt_stdio_output@@QAEPADXZ 0041e8a9 f i libucrt:output.obj
 0001:0001d8b9       ??$data@_W@formatting_buffer@__crt_stdio_output@@QAEPA_WXZ 0041e8b9 f i libucrt:output.obj
 0001:0001d8c9       ??$ensure_buffer_is_big_enough@D@formatting_buffer@__crt_stdio_output@@QAE_NIAAV__crt_cached_ptd_host@@@Z 0041e8c9 f i libucrt:output.obj
 0001:0001d96a       ??$ensure_buffer_is_big_enough@_W@formatting_buffer@__crt_stdio_output@@QAE_NIAAV__crt_cached_ptd_host@@@Z 0041e96a f i libucrt:output.obj
 0001:0001da0c       ??$extract_argument_from_va_list@C_J@?$positional_parameter_base@DV?$stream_output_adapter@D@__crt_stdio_output@@@__crt_stdio_output@@IAE_NAA_J@Z 0041ea0c f i libucrt:output.obj
 0001:0001dabe       ??$extract_argument_from_va_list@C_J@?$positional_parameter_base@DV?$string_output_adapter@D@__crt_stdio_output@@@__crt_stdio_output@@IAE_NAA_J@Z 0041eabe f i libucrt:output.obj
 0001:0001db70       ??$extract_argument_from_va_list@C_J@?$positional_parameter_base@_WV?$stream_output_adapter@_W@__crt_stdio_output@@@__crt_stdio_output@@IAE_NAA_J@Z 0041eb70 f i libucrt:output.obj
 0001:0001dc24       ??$extract_argument_from_va_list@C_J@?$positional_parameter_base@_WV?$string_output_adapter@_W@__crt_stdio_output@@@__crt_stdio_output@@IAE_NAA_J@Z 0041ec24 f i libucrt:output.obj
 0001:0001dcd8       ??$extract_argument_from_va_list@C_J@?$standard_base@DV?$stream_output_adapter@D@__crt_stdio_output@@@__crt_stdio_output@@IAE_NAA_J@Z 0041ecd8 f i libucrt:output.obj
 0001:0001dd00       ??$extract_argument_from_va_list@C_J@?$standard_base@DV?$string_output_adapter@D@__crt_stdio_output@@@__crt_stdio_output@@IAE_NAA_J@Z 0041ed00 f i libucrt:output.obj
 0001:0001dd28       ??$extract_argument_from_va_list@C_J@?$standard_base@_WV?$stream_output_adapter@_W@__crt_stdio_output@@@__crt_stdio_output@@IAE_NAA_J@Z 0041ed28 f i libucrt:output.obj
 0001:0001dd50       ??$extract_argument_from_va_list@C_J@?$standard_base@_WV?$string_output_adapter@_W@__crt_stdio_output@@@__crt_stdio_output@@IAE_NAA_J@Z 0041ed50 f i libucrt:output.obj
 0001:0001dd78       ??$extract_argument_from_va_list@E_J@?$positional_parameter_base@DV?$stream_output_adapter@D@__crt_stdio_output@@@__crt_stdio_output@@IAE_NAA_J@Z 0041ed78 f i libucrt:output.obj
 0001:0001de2a       ??$extract_argument_from_va_list@E_J@?$positional_parameter_base@DV?$string_output_adapter@D@__crt_stdio_output@@@__crt_stdio_output@@IAE_NAA_J@Z 0041ee2a f i libucrt:output.obj
 0001:0001dedc       ??$extract_argument_from_va_list@E_J@?$positional_parameter_base@_WV?$stream_output_adapter@_W@__crt_stdio_output@@@__crt_stdio_output@@IAE_NAA_J@Z 0041eedc f i libucrt:output.obj
 0001:0001df90       ??$extract_argument_from_va_list@E_J@?$positional_parameter_base@_WV?$string_output_adapter@_W@__crt_stdio_output@@@__crt_stdio_output@@IAE_NAA_J@Z 0041ef90 f i libucrt:output.obj
 0001:0001e044       ??$extract_argument_from_va_list@E_J@?$standard_base@DV?$stream_output_adapter@D@__crt_stdio_output@@@__crt_stdio_output@@IAE_NAA_J@Z 0041f044 f i libucrt:output.obj
 0001:0001e06c       ??$extract_argument_from_va_list@E_J@?$standard_base@DV?$string_output_adapter@D@__crt_stdio_output@@@__crt_stdio_output@@IAE_NAA_J@Z 0041f06c f i libucrt:output.obj
 0001:0001e094       ??$extract_argument_from_va_list@E_J@?$standard_base@_WV?$stream_output_adapter@_W@__crt_stdio_output@@@__crt_stdio_output@@IAE_NAA_J@Z 0041f094 f i libucrt:output.obj
 0001:0001e0bc       ??$extract_argument_from_va_list@E_J@?$standard_base@_WV?$string_output_adapter@_W@__crt_stdio_output@@@__crt_stdio_output@@IAE_NAA_J@Z 0041f0bc f i libucrt:output.obj
 0001:0001e0e4       ??$extract_argument_from_va_list@F_J@?$positional_parameter_base@DV?$stream_output_adapter@D@__crt_stdio_output@@@__crt_stdio_output@@IAE_NAA_J@Z 0041f0e4 f i libucrt:output.obj
 0001:0001e196       ??$extract_argument_from_va_list@F_J@?$positional_parameter_base@DV?$string_output_adapter@D@__crt_stdio_output@@@__crt_stdio_output@@IAE_NAA_J@Z 0041f196 f i libucrt:output.obj
 0001:0001e248       ??$extract_argument_from_va_list@F_J@?$positional_parameter_base@_WV?$stream_output_adapter@_W@__crt_stdio_output@@@__crt_stdio_output@@IAE_NAA_J@Z 0041f248 f i libucrt:output.obj
 0001:0001e2fc       ??$extract_argument_from_va_list@F_J@?$positional_parameter_base@_WV?$string_output_adapter@_W@__crt_stdio_output@@@__crt_stdio_output@@IAE_NAA_J@Z 0041f2fc f i libucrt:output.obj
 0001:0001e3b0       ??$extract_argument_from_va_list@F_J@?$standard_base@DV?$stream_output_adapter@D@__crt_stdio_output@@@__crt_stdio_output@@IAE_NAA_J@Z 0041f3b0 f i libucrt:output.obj
 0001:0001e3d8       ??$extract_argument_from_va_list@F_J@?$standard_base@DV?$string_output_adapter@D@__crt_stdio_output@@@__crt_stdio_output@@IAE_NAA_J@Z 0041f3d8 f i libucrt:output.obj
 0001:0001e400       ??$extract_argument_from_va_list@F_J@?$standard_base@_WV?$stream_output_adapter@_W@__crt_stdio_output@@@__crt_stdio_output@@IAE_NAA_J@Z 0041f400 f i libucrt:output.obj
 0001:0001e428       ??$extract_argument_from_va_list@F_J@?$standard_base@_WV?$string_output_adapter@_W@__crt_stdio_output@@@__crt_stdio_output@@IAE_NAA_J@Z 0041f428 f i libucrt:output.obj
 0001:0001e450       ??$extract_argument_from_va_list@GD@?$positional_parameter_base@DV?$stream_output_adapter@D@__crt_stdio_output@@@__crt_stdio_output@@IAE_NAAD@Z 0041f450 f i libucrt:output.obj
 0001:0001e501       ??$extract_argument_from_va_list@GD@?$positional_parameter_base@DV?$string_output_adapter@D@__crt_stdio_output@@@__crt_stdio_output@@IAE_NAAD@Z 0041f501 f i libucrt:output.obj
 0001:0001e5b2       ??$extract_argument_from_va_list@GD@?$standard_base@DV?$stream_output_adapter@D@__crt_stdio_output@@@__crt_stdio_output@@IAE_NAAD@Z 0041f5b2 f i libucrt:output.obj
 0001:0001e5d3       ??$extract_argument_from_va_list@GD@?$standard_base@DV?$string_output_adapter@D@__crt_stdio_output@@@__crt_stdio_output@@IAE_NAAD@Z 0041f5d3 f i libucrt:output.obj
 0001:0001e5f4       ??$extract_argument_from_va_list@G_J@?$positional_parameter_base@DV?$stream_output_adapter@D@__crt_stdio_output@@@__crt_stdio_output@@IAE_NAA_J@Z 0041f5f4 f i libucrt:output.obj
 0001:0001e6a6       ??$extract_argument_from_va_list@G_J@?$positional_parameter_base@DV?$string_output_adapter@D@__crt_stdio_output@@@__crt_stdio_output@@IAE_NAA_J@Z 0041f6a6 f i libucrt:output.obj
 0001:0001e758       ??$extract_argument_from_va_list@G_J@?$positional_parameter_base@_WV?$stream_output_adapter@_W@__crt_stdio_output@@@__crt_stdio_output@@IAE_NAA_J@Z 0041f758 f i libucrt:output.obj
 0001:0001e80c       ??$extract_argument_from_va_list@G_J@?$positional_parameter_base@_WV?$string_output_adapter@_W@__crt_stdio_output@@@__crt_stdio_output@@IAE_NAA_J@Z 0041f80c f i libucrt:output.obj
 0001:0001e8c0       ??$extract_argument_from_va_list@G_J@?$standard_base@DV?$stream_output_adapter@D@__crt_stdio_output@@@__crt_stdio_output@@IAE_NAA_J@Z 0041f8c0 f i libucrt:output.obj
 0001:0001e8e8       ??$extract_argument_from_va_list@G_J@?$standard_base@DV?$string_output_adapter@D@__crt_stdio_output@@@__crt_stdio_output@@IAE_NAA_J@Z 0041f8e8 f i libucrt:output.obj
 0001:0001e910       ??$extract_argument_from_va_list@G_J@?$standard_base@_WV?$stream_output_adapter@_W@__crt_stdio_output@@@__crt_stdio_output@@IAE_NAA_J@Z 0041f910 f i libucrt:output.obj
 0001:0001e938       ??$extract_argument_from_va_list@G_J@?$standard_base@_WV?$string_output_adapter@_W@__crt_stdio_output@@@__crt_stdio_output@@IAE_NAA_J@Z 0041f938 f i libucrt:output.obj
 0001:0001e960       ??$extract_argument_from_va_list@H_J@?$positional_parameter_base@DV?$stream_output_adapter@D@__crt_stdio_output@@@__crt_stdio_output@@IAE_NAA_J@Z 0041f960 f i libucrt:output.obj
 0001:0001ea0b       ??$extract_argument_from_va_list@H_J@?$positional_parameter_base@DV?$string_output_adapter@D@__crt_stdio_output@@@__crt_stdio_output@@IAE_NAA_J@Z 0041fa0b f i libucrt:output.obj
 0001:0001eab6       ??$extract_argument_from_va_list@H_J@?$positional_parameter_base@_WV?$stream_output_adapter@_W@__crt_stdio_output@@@__crt_stdio_output@@IAE_NAA_J@Z 0041fab6 f i libucrt:output.obj
 0001:0001eb62       ??$extract_argument_from_va_list@H_J@?$positional_parameter_base@_WV?$string_output_adapter@_W@__crt_stdio_output@@@__crt_stdio_output@@IAE_NAA_J@Z 0041fb62 f i libucrt:output.obj
 0001:0001ec0e       ??$extract_argument_from_va_list@H_J@?$standard_base@DV?$stream_output_adapter@D@__crt_stdio_output@@@__crt_stdio_output@@IAE_NAA_J@Z 0041fc0e f i libucrt:output.obj
 0001:0001ec34       ??$extract_argument_from_va_list@H_J@?$standard_base@DV?$string_output_adapter@D@__crt_stdio_output@@@__crt_stdio_output@@IAE_NAA_J@Z 0041fc34 f i libucrt:output.obj
 0001:0001ec5a       ??$extract_argument_from_va_list@H_J@?$standard_base@_WV?$stream_output_adapter@_W@__crt_stdio_output@@@__crt_stdio_output@@IAE_NAA_J@Z 0041fc5a f i libucrt:output.obj
 0001:0001ec80       ??$extract_argument_from_va_list@H_J@?$standard_base@_WV?$string_output_adapter@_W@__crt_stdio_output@@@__crt_stdio_output@@IAE_NAA_J@Z 0041fc80 f i libucrt:output.obj
 0001:0001eca6       ??$extract_argument_from_va_list@I_J@?$positional_parameter_base@DV?$stream_output_adapter@D@__crt_stdio_output@@@__crt_stdio_output@@IAE_NAA_J@Z 0041fca6 f i libucrt:output.obj
 0001:0001ed61       ??$extract_argument_from_va_list@I_J@?$positional_parameter_base@DV?$string_output_adapter@D@__crt_stdio_output@@@__crt_stdio_output@@IAE_NAA_J@Z 0041fd61 f i libucrt:output.obj
 0001:0001ee1c       ??$extract_argument_from_va_list@I_J@?$positional_parameter_base@_WV?$stream_output_adapter@_W@__crt_stdio_output@@@__crt_stdio_output@@IAE_NAA_J@Z 0041fe1c f i libucrt:output.obj
 0001:0001eed8       ??$extract_argument_from_va_list@I_J@?$positional_parameter_base@_WV?$string_output_adapter@_W@__crt_stdio_output@@@__crt_stdio_output@@IAE_NAA_J@Z 0041fed8 f i libucrt:output.obj
 0001:0001ef94       ??$extract_argument_from_va_list@I_J@?$standard_base@DV?$stream_output_adapter@D@__crt_stdio_output@@@__crt_stdio_output@@IAE_NAA_J@Z 0041ff94 f i libucrt:output.obj
 0001:0001efba       ??$extract_argument_from_va_list@I_J@?$standard_base@DV?$string_output_adapter@D@__crt_stdio_output@@@__crt_stdio_output@@IAE_NAA_J@Z 0041ffba f i libucrt:output.obj
 0001:0001efe0       ??$extract_argument_from_va_list@I_J@?$standard_base@_WV?$stream_output_adapter@_W@__crt_stdio_output@@@__crt_stdio_output@@IAE_NAA_J@Z 0041ffe0 f i libucrt:output.obj
 0001:0001f006       ??$extract_argument_from_va_list@I_J@?$standard_base@_WV?$string_output_adapter@_W@__crt_stdio_output@@@__crt_stdio_output@@IAE_NAA_J@Z 00420006 f i libucrt:output.obj
 0001:0001f02c       ??$extract_argument_from_va_list@PADPAD@?$positional_parameter_base@DV?$stream_output_adapter@D@__crt_stdio_output@@@__crt_stdio_output@@IAE_NAAPAD@Z 0042002c f i libucrt:output.obj
 0001:0001f0dd       ??$extract_argument_from_va_list@PADPAD@?$positional_parameter_base@DV?$string_output_adapter@D@__crt_stdio_output@@@__crt_stdio_output@@IAE_NAAPAD@Z 004200dd f i libucrt:output.obj
 0001:0001f18e       ??$extract_argument_from_va_list@PADPAD@?$positional_parameter_base@_WV?$stream_output_adapter@_W@__crt_stdio_output@@@__crt_stdio_output@@IAE_NAAPAD@Z 0042018e f i libucrt:output.obj
 0001:0001f240       ??$extract_argument_from_va_list@PADPAD@?$positional_parameter_base@_WV?$string_output_adapter@_W@__crt_stdio_output@@@__crt_stdio_output@@IAE_NAAPAD@Z 00420240 f i libucrt:output.obj
 0001:0001f2f2       ??$extract_argument_from_va_list@PADPAD@?$standard_base@DV?$stream_output_adapter@D@__crt_stdio_output@@@__crt_stdio_output@@IAE_NAAPAD@Z 004202f2 f i libucrt:output.obj
 0001:0001f316       ??$extract_argument_from_va_list@PADPAD@?$standard_base@DV?$string_output_adapter@D@__crt_stdio_output@@@__crt_stdio_output@@IAE_NAAPAD@Z 00420316 f i libucrt:output.obj
 0001:0001f33a       ??$extract_argument_from_va_list@PADPAD@?$standard_base@_WV?$stream_output_adapter@_W@__crt_stdio_output@@@__crt_stdio_output@@IAE_NAAPAD@Z 0042033a f i libucrt:output.obj
 0001:0001f35e       ??$extract_argument_from_va_list@PADPAD@?$standard_base@_WV?$string_output_adapter@_W@__crt_stdio_output@@@__crt_stdio_output@@IAE_NAAPAD@Z 0042035e f i libucrt:output.obj
 0001:0001f382       ??$extract_argument_from_va_list@PAUansi_string@?1??type_case_Z@?$output_processor@DV?$stream_output_adapter@D@__crt_stdio_output@@V?$format_validation_base@DV?$stream_output_adapter@D@__crt_stdio_output@@@2@@__crt_stdio_output@@AAE_NXZ@PAU1?1??234@AAE_NXZ@@?$standard_base@DV?$stream_output_adapter@D@__crt_stdio_output@@@__crt_stdio_output@@IAE_NAAPAUansi_string@?1??type_case_Z@?$output_processor@DV?$stream_output_adapter@D@__crt_stdio_output@@V?$format_validation_base@DV?$stream_output_adapter@D@__crt_stdio_output@@@2@@1@AAE_NXZ@@Z 00420382 f i libucrt:output.obj
 0001:0001f3a6       ??$extract_argument_from_va_list@PAUansi_string@?1??type_case_Z@?$output_processor@DV?$stream_output_adapter@D@__crt_stdio_output@@V?$positional_parameter_base@DV?$stream_output_adapter@D@__crt_stdio_output@@@2@@__crt_stdio_output@@AAE_NXZ@PAU1?1??234@AAE_NXZ@@?$positional_parameter_base@DV?$stream_output_adapter@D@__crt_stdio_output@@@__crt_stdio_output@@IAE_NAAPAUansi_string@?1??type_case_Z@?$output_processor@DV?$stream_output_adapter@D@__crt_stdio_output@@V?$positional_parameter_base@DV?$stream_output_adapter@D@__crt_stdio_output@@@2@@1@AAE_NXZ@@Z 004203a6 f i libucrt:output.obj
 0001:0001f457       ??$extract_argument_from_va_list@PAUansi_string@?1??type_case_Z@?$output_processor@DV?$stream_output_adapter@D@__crt_stdio_output@@V?$positional_parameter_base@DV?$stream_output_adapter@D@__crt_stdio_output@@@2@@__crt_stdio_output@@AAE_NXZ@PAU1?1??234@AAE_NXZ@@?$standard_base@DV?$stream_output_adapter@D@__crt_stdio_output@@@__crt_stdio_output@@IAE_NAAPAUansi_string@?1??type_case_Z@?$output_processor@DV?$stream_output_adapter@D@__crt_stdio_output@@V?$positional_parameter_base@DV?$stream_output_adapter@D@__crt_stdio_output@@@2@@1@AAE_NXZ@@Z 00420457 f i libucrt:output.obj
 0001:0001f47b       ??$extract_argument_from_va_list@PAUansi_string@?1??type_case_Z@?$output_processor@DV?$stream_output_adapter@D@__crt_stdio_output@@V?$standard_base@DV?$stream_output_adapter@D@__crt_stdio_output@@@2@@__crt_stdio_output@@AAE_NXZ@PAU1?1??234@AAE_NXZ@@?$standard_base@DV?$stream_output_adapter@D@__crt_stdio_output@@@__crt_stdio_output@@IAE_NAAPAUansi_string@?1??type_case_Z@?$output_processor@DV?$stream_output_adapter@D@__crt_stdio_output@@V?$standard_base@DV?$stream_output_adapter@D@__crt_stdio_output@@@2@@1@AAE_NXZ@@Z 0042047b f i libucrt:output.obj
 0001:0001f49f       ??$extract_argument_from_va_list@PAUansi_string@?1??type_case_Z@?$output_processor@DV?$string_output_adapter@D@__crt_stdio_output@@V?$format_validation_base@DV?$string_output_adapter@D@__crt_stdio_output@@@2@@__crt_stdio_output@@AAE_NXZ@PAU1?1??234@AAE_NXZ@@?$standard_base@DV?$string_output_adapter@D@__crt_stdio_output@@@__crt_stdio_output@@IAE_NAAPAUansi_string@?1??type_case_Z@?$output_processor@DV?$string_output_adapter@D@__crt_stdio_output@@V?$format_validation_base@DV?$string_output_adapter@D@__crt_stdio_output@@@2@@1@AAE_NXZ@@Z 0042049f f i libucrt:output.obj
 0001:0001f4c3       ??$extract_argument_from_va_list@PAUansi_string@?1??type_case_Z@?$output_processor@DV?$string_output_adapter@D@__crt_stdio_output@@V?$positional_parameter_base@DV?$string_output_adapter@D@__crt_stdio_output@@@2@@__crt_stdio_output@@AAE_NXZ@PAU1?1??234@AAE_NXZ@@?$positional_parameter_base@DV?$string_output_adapter@D@__crt_stdio_output@@@__crt_stdio_output@@IAE_NAAPAUansi_string@?1??type_case_Z@?$output_processor@DV?$string_output_adapter@D@__crt_stdio_output@@V?$positional_parameter_base@DV?$string_output_adapter@D@__crt_stdio_output@@@2@@1@AAE_NXZ@@Z 004204c3 f i libucrt:output.obj
 0001:0001f574       ??$extract_argument_from_va_list@PAUansi_string@?1??type_case_Z@?$output_processor@DV?$string_output_adapter@D@__crt_stdio_output@@V?$positional_parameter_base@DV?$string_output_adapter@D@__crt_stdio_output@@@2@@__crt_stdio_output@@AAE_NXZ@PAU1?1??234@AAE_NXZ@@?$standard_base@DV?$string_output_adapter@D@__crt_stdio_output@@@__crt_stdio_output@@IAE_NAAPAUansi_string@?1??type_case_Z@?$output_processor@DV?$string_output_adapter@D@__crt_stdio_output@@V?$positional_parameter_base@DV?$string_output_adapter@D@__crt_stdio_output@@@2@@1@AAE_NXZ@@Z 00420574 f i libucrt:output.obj
 0001:0001f598       ??$extract_argument_from_va_list@PAUansi_string@?1??type_case_Z@?$output_processor@DV?$string_output_adapter@D@__crt_stdio_output@@V?$standard_base@DV?$string_output_adapter@D@__crt_stdio_output@@@2@@__crt_stdio_output@@AAE_NXZ@PAU1?1??234@AAE_NXZ@@?$standard_base@DV?$string_output_adapter@D@__crt_stdio_output@@@__crt_stdio_output@@IAE_NAAPAUansi_string@?1??type_case_Z@?$output_processor@DV?$string_output_adapter@D@__crt_stdio_output@@V?$standard_base@DV?$string_output_adapter@D@__crt_stdio_output@@@2@@1@AAE_NXZ@@Z 00420598 f i libucrt:output.obj
 0001:0001f5bc       ??$extract_argument_from_va_list@PAUansi_string@?1??type_case_Z@?$output_processor@_WV?$stream_output_adapter@_W@__crt_stdio_output@@V?$format_validation_base@_WV?$stream_output_adapter@_W@__crt_stdio_output@@@2@@__crt_stdio_output@@AAE_NXZ@PAU1?1??234@AAE_NXZ@@?$standard_base@_WV?$stream_output_adapter@_W@__crt_stdio_output@@@__crt_stdio_output@@IAE_NAAPAUansi_string@?1??type_case_Z@?$output_processor@_WV?$stream_output_adapter@_W@__crt_stdio_output@@V?$format_validation_base@_WV?$stream_output_adapter@_W@__crt_stdio_output@@@2@@1@AAE_NXZ@@Z 004205bc f i libucrt:output.obj
 0001:0001f5e0       ??$extract_argument_from_va_list@PAUansi_string@?1??type_case_Z@?$output_processor@_WV?$stream_output_adapter@_W@__crt_stdio_output@@V?$positional_parameter_base@_WV?$stream_output_adapter@_W@__crt_stdio_output@@@2@@__crt_stdio_output@@AAE_NXZ@PAU1?1??234@AAE_NXZ@@?$positional_parameter_base@_WV?$stream_output_adapter@_W@__crt_stdio_output@@@__crt_stdio_output@@IAE_NAAPAUansi_string@?1??type_case_Z@?$output_processor@_WV?$stream_output_adapter@_W@__crt_stdio_output@@V?$positional_parameter_base@_WV?$stream_output_adapter@_W@__crt_stdio_output@@@2@@1@AAE_NXZ@@Z 004205e0 f i libucrt:output.obj
 0001:0001f692       ??$extract_argument_from_va_list@PAUansi_string@?1??type_case_Z@?$output_processor@_WV?$stream_output_adapter@_W@__crt_stdio_output@@V?$positional_parameter_base@_WV?$stream_output_adapter@_W@__crt_stdio_output@@@2@@__crt_stdio_output@@AAE_NXZ@PAU1?1??234@AAE_NXZ@@?$standard_base@_WV?$stream_output_adapter@_W@__crt_stdio_output@@@__crt_stdio_output@@IAE_NAAPAUansi_string@?1??type_case_Z@?$output_processor@_WV?$stream_output_adapter@_W@__crt_stdio_output@@V?$positional_parameter_base@_WV?$stream_output_adapter@_W@__crt_stdio_output@@@2@@1@AAE_NXZ@@Z 00420692 f i libucrt:output.obj
 0001:0001f6b6       ??$extract_argument_from_va_list@PAUansi_string@?1??type_case_Z@?$output_processor@_WV?$stream_output_adapter@_W@__crt_stdio_output@@V?$standard_base@_WV?$stream_output_adapter@_W@__crt_stdio_output@@@2@@__crt_stdio_output@@AAE_NXZ@PAU1?1??234@AAE_NXZ@@?$standard_base@_WV?$stream_output_adapter@_W@__crt_stdio_output@@@__crt_stdio_output@@IAE_NAAPAUansi_string@?1??type_case_Z@?$output_processor@_WV?$stream_output_adapter@_W@__crt_stdio_output@@V?$standard_base@_WV?$stream_output_adapter@_W@__crt_stdio_output@@@2@@1@AAE_NXZ@@Z 004206b6 f i libucrt:output.obj
 0001:0001f6da       ??$extract_argument_from_va_list@PAUansi_string@?1??type_case_Z@?$output_processor@_WV?$string_output_adapter@_W@__crt_stdio_output@@V?$format_validation_base@_WV?$string_output_adapter@_W@__crt_stdio_output@@@2@@__crt_stdio_output@@AAE_NXZ@PAU1?1??234@AAE_NXZ@@?$standard_base@_WV?$string_output_adapter@_W@__crt_stdio_output@@@__crt_stdio_output@@IAE_NAAPAUansi_string@?1??type_case_Z@?$output_processor@_WV?$string_output_adapter@_W@__crt_stdio_output@@V?$format_validation_base@_WV?$string_output_adapter@_W@__crt_stdio_output@@@2@@1@AAE_NXZ@@Z 004206da f i libucrt:output.obj
 0001:0001f6fe       ??$extract_argument_from_va_list@PAUansi_string@?1??type_case_Z@?$output_processor@_WV?$string_output_adapter@_W@__crt_stdio_output@@V?$positional_parameter_base@_WV?$string_output_adapter@_W@__crt_stdio_output@@@2@@__crt_stdio_output@@AAE_NXZ@PAU1?1??234@AAE_NXZ@@?$positional_parameter_base@_WV?$string_output_adapter@_W@__crt_stdio_output@@@__crt_stdio_output@@IAE_NAAPAUansi_string@?1??type_case_Z@?$output_processor@_WV?$string_output_adapter@_W@__crt_stdio_output@@V?$positional_parameter_base@_WV?$string_output_adapter@_W@__crt_stdio_output@@@2@@1@AAE_NXZ@@Z 004206fe f i libucrt:output.obj
 0001:0001f7b0       ??$extract_argument_from_va_list@PAUansi_string@?1??type_case_Z@?$output_processor@_WV?$string_output_adapter@_W@__crt_stdio_output@@V?$positional_parameter_base@_WV?$string_output_adapter@_W@__crt_stdio_output@@@2@@__crt_stdio_output@@AAE_NXZ@PAU1?1??234@AAE_NXZ@@?$standard_base@_WV?$string_output_adapter@_W@__crt_stdio_output@@@__crt_stdio_output@@IAE_NAAPAUansi_string@?1??type_case_Z@?$output_processor@_WV?$string_output_adapter@_W@__crt_stdio_output@@V?$positional_parameter_base@_WV?$string_output_adapter@_W@__crt_stdio_output@@@2@@1@AAE_NXZ@@Z 004207b0 f i libucrt:output.obj
 0001:0001f7d4       ??$extract_argument_from_va_list@PAUansi_string@?1??type_case_Z@?$output_processor@_WV?$string_output_adapter@_W@__crt_stdio_output@@V?$standard_base@_WV?$string_output_adapter@_W@__crt_stdio_output@@@2@@__crt_stdio_output@@AAE_NXZ@PAU1?1??234@AAE_NXZ@@?$standard_base@_WV?$string_output_adapter@_W@__crt_stdio_output@@@__crt_stdio_output@@IAE_NAAPAUansi_string@?1??type_case_Z@?$output_processor@_WV?$string_output_adapter@_W@__crt_stdio_output@@V?$standard_base@_WV?$string_output_adapter@_W@__crt_stdio_output@@@2@@1@AAE_NXZ@@Z 004207d4 f i libucrt:output.obj
 0001:0001f7f8       ??$extract_argument_from_va_list@PAXPAX@?$positional_parameter_base@DV?$stream_output_adapter@D@__crt_stdio_output@@@__crt_stdio_output@@IAE_NAAPAX@Z 004207f8 f i libucrt:output.obj
 0001:0001f8a9       ??$extract_argument_from_va_list@PAXPAX@?$positional_parameter_base@DV?$string_output_adapter@D@__crt_stdio_output@@@__crt_stdio_output@@IAE_NAAPAX@Z 004208a9 f i libucrt:output.obj
 0001:0001f95a       ??$extract_argument_from_va_list@PAXPAX@?$positional_parameter_base@_WV?$stream_output_adapter@_W@__crt_stdio_output@@@__crt_stdio_output@@IAE_NAAPAX@Z 0042095a f i libucrt:output.obj
 0001:0001fa0c       ??$extract_argument_from_va_list@PAXPAX@?$positional_parameter_base@_WV?$string_output_adapter@_W@__crt_stdio_output@@@__crt_stdio_output@@IAE_NAAPAX@Z 00420a0c f i libucrt:output.obj
 0001:0001fabe       ??$extract_argument_from_va_list@PAXPAX@?$standard_base@DV?$stream_output_adapter@D@__crt_stdio_output@@@__crt_stdio_output@@IAE_NAAPAX@Z 00420abe f i libucrt:output.obj
 0001:0001fae2       ??$extract_argument_from_va_list@PAXPAX@?$standard_base@DV?$string_output_adapter@D@__crt_stdio_output@@@__crt_stdio_output@@IAE_NAAPAX@Z 00420ae2 f i libucrt:output.obj
 0001:0001fb06       ??$extract_argument_from_va_list@PAXPAX@?$standard_base@_WV?$stream_output_adapter@_W@__crt_stdio_output@@@__crt_stdio_output@@IAE_NAAPAX@Z 00420b06 f i libucrt:output.obj
 0001:0001fb2a       ??$extract_argument_from_va_list@PAXPAX@?$standard_base@_WV?$string_output_adapter@_W@__crt_stdio_output@@@__crt_stdio_output@@IAE_NAAPAX@Z 00420b2a f i libucrt:output.obj
 0001:0001fb4e       ??$extract_argument_from_va_list@U_CRT_DOUBLE@@U1@@?$positional_parameter_base@DV?$stream_output_adapter@D@__crt_stdio_output@@@__crt_stdio_output@@IAE_NAAU_CRT_DOUBLE@@@Z 00420b4e f i libucrt:output.obj
 0001:0001fc09       ??$extract_argument_from_va_list@U_CRT_DOUBLE@@U1@@?$positional_parameter_base@DV?$string_output_adapter@D@__crt_stdio_output@@@__crt_stdio_output@@IAE_NAAU_CRT_DOUBLE@@@Z 00420c09 f i libucrt:output.obj
 0001:0001fcc4       ??$extract_argument_from_va_list@U_CRT_DOUBLE@@U1@@?$positional_parameter_base@_WV?$stream_output_adapter@_W@__crt_stdio_output@@@__crt_stdio_output@@IAE_NAAU_CRT_DOUBLE@@@Z 00420cc4 f i libucrt:output.obj
 0001:0001fd80       ??$extract_argument_from_va_list@U_CRT_DOUBLE@@U1@@?$positional_parameter_base@_WV?$string_output_adapter@_W@__crt_stdio_output@@@__crt_stdio_output@@IAE_NAAU_CRT_DOUBLE@@@Z 00420d80 f i libucrt:output.obj
 0001:0001fe3c       ??$extract_argument_from_va_list@U_CRT_DOUBLE@@U1@@?$standard_base@DV?$stream_output_adapter@D@__crt_stdio_output@@@__crt_stdio_output@@IAE_NAAU_CRT_DOUBLE@@@Z 00420e3c f i libucrt:output.obj
 0001:0001fe65       ??$extract_argument_from_va_list@U_CRT_DOUBLE@@U1@@?$standard_base@DV?$string_output_adapter@D@__crt_stdio_output@@@__crt_stdio_output@@IAE_NAAU_CRT_DOUBLE@@@Z 00420e65 f i libucrt:output.obj
 0001:0001fe8e       ??$extract_argument_from_va_list@U_CRT_DOUBLE@@U1@@?$standard_base@_WV?$stream_output_adapter@_W@__crt_stdio_output@@@__crt_stdio_output@@IAE_NAAU_CRT_DOUBLE@@@Z 00420e8e f i libucrt:output.obj
 0001:0001feb7       ??$extract_argument_from_va_list@U_CRT_DOUBLE@@U1@@?$standard_base@_WV?$string_output_adapter@_W@__crt_stdio_output@@@__crt_stdio_output@@IAE_NAAU_CRT_DOUBLE@@@Z 00420eb7 f i libucrt:output.obj
 0001:0001fee0       ??$extract_argument_from_va_list@_J_J@?$positional_parameter_base@DV?$stream_output_adapter@D@__crt_stdio_output@@@__crt_stdio_output@@IAE_NAA_J@Z 00420ee0 f i libucrt:output.obj
 0001:0001ffa0       ??$extract_argument_from_va_list@_J_J@?$positional_parameter_base@DV?$string_output_adapter@D@__crt_stdio_output@@@__crt_stdio_output@@IAE_NAA_J@Z 00420fa0 f i libucrt:output.obj
 0001:00020060       ??$extract_argument_from_va_list@_J_J@?$positional_parameter_base@_WV?$stream_output_adapter@_W@__crt_stdio_output@@@__crt_stdio_output@@IAE_NAA_J@Z 00421060 f i libucrt:output.obj
 0001:00020121       ??$extract_argument_from_va_list@_J_J@?$positional_parameter_base@_WV?$string_output_adapter@_W@__crt_stdio_output@@@__crt_stdio_output@@IAE_NAA_J@Z 00421121 f i libucrt:output.obj
 0001:000201e2       ??$extract_argument_from_va_list@_J_J@?$standard_base@DV?$stream_output_adapter@D@__crt_stdio_output@@@__crt_stdio_output@@IAE_NAA_J@Z 004211e2 f i libucrt:output.obj
 0001:0002020b       ??$extract_argument_from_va_list@_J_J@?$standard_base@DV?$string_output_adapter@D@__crt_stdio_output@@@__crt_stdio_output@@IAE_NAA_J@Z 0042120b f i libucrt:output.obj
 0001:00020234       ??$extract_argument_from_va_list@_J_J@?$standard_base@_WV?$stream_output_adapter@_W@__crt_stdio_output@@@__crt_stdio_output@@IAE_NAA_J@Z 00421234 f i libucrt:output.obj
 0001:0002025d       ??$extract_argument_from_va_list@_J_J@?$standard_base@_WV?$string_output_adapter@_W@__crt_stdio_output@@@__crt_stdio_output@@IAE_NAA_J@Z 0042125d f i libucrt:output.obj
 0001:00020286       ??$extract_argument_from_va_list@_K_J@?$positional_parameter_base@DV?$stream_output_adapter@D@__crt_stdio_output@@@__crt_stdio_output@@IAE_NAA_J@Z 00421286 f i libucrt:output.obj
 0001:00020346       ??$extract_argument_from_va_list@_K_J@?$positional_parameter_base@DV?$string_output_adapter@D@__crt_stdio_output@@@__crt_stdio_output@@IAE_NAA_J@Z 00421346 f i libucrt:output.obj
 0001:00020406       ??$extract_argument_from_va_list@_K_J@?$positional_parameter_base@_WV?$stream_output_adapter@_W@__crt_stdio_output@@@__crt_stdio_output@@IAE_NAA_J@Z 00421406 f i libucrt:output.obj
 0001:000204c7       ??$extract_argument_from_va_list@_K_J@?$positional_parameter_base@_WV?$string_output_adapter@_W@__crt_stdio_output@@@__crt_stdio_output@@IAE_NAA_J@Z 004214c7 f i libucrt:output.obj
 0001:00020588       ??$extract_argument_from_va_list@_K_J@?$standard_base@DV?$stream_output_adapter@D@__crt_stdio_output@@@__crt_stdio_output@@IAE_NAA_J@Z 00421588 f i libucrt:output.obj
 0001:000205b1       ??$extract_argument_from_va_list@_K_J@?$standard_base@DV?$string_output_adapter@D@__crt_stdio_output@@@__crt_stdio_output@@IAE_NAA_J@Z 004215b1 f i libucrt:output.obj
 0001:000205da       ??$extract_argument_from_va_list@_K_J@?$standard_base@_WV?$stream_output_adapter@_W@__crt_stdio_output@@@__crt_stdio_output@@IAE_NAA_J@Z 004215da f i libucrt:output.obj
 0001:00020603       ??$extract_argument_from_va_list@_K_J@?$standard_base@_WV?$string_output_adapter@_W@__crt_stdio_output@@@__crt_stdio_output@@IAE_NAA_J@Z 00421603 f i libucrt:output.obj
 0001:0002062c       ??$extract_argument_from_va_list@_W_W@?$positional_parameter_base@DV?$stream_output_adapter@D@__crt_stdio_output@@@__crt_stdio_output@@IAE_NAA_W@Z 0042162c f i libucrt:output.obj
 0001:000206e2       ??$extract_argument_from_va_list@_W_W@?$positional_parameter_base@DV?$string_output_adapter@D@__crt_stdio_output@@@__crt_stdio_output@@IAE_NAA_W@Z 004216e2 f i libucrt:output.obj
 0001:00020798       ??$extract_argument_from_va_list@_W_W@?$positional_parameter_base@_WV?$stream_output_adapter@_W@__crt_stdio_output@@@__crt_stdio_output@@IAE_NAA_W@Z 00421798 f i libucrt:output.obj
 0001:0002084f       ??$extract_argument_from_va_list@_W_W@?$positional_parameter_base@_WV?$string_output_adapter@_W@__crt_stdio_output@@@__crt_stdio_output@@IAE_NAA_W@Z 0042184f f i libucrt:output.obj
 0001:00020906       ??$extract_argument_from_va_list@_W_W@?$standard_base@DV?$stream_output_adapter@D@__crt_stdio_output@@@__crt_stdio_output@@IAE_NAA_W@Z 00421906 f i libucrt:output.obj
 0001:0002092a       ??$extract_argument_from_va_list@_W_W@?$standard_base@DV?$string_output_adapter@D@__crt_stdio_output@@@__crt_stdio_output@@IAE_NAA_W@Z 0042192a f i libucrt:output.obj
 0001:0002094e       ??$extract_argument_from_va_list@_W_W@?$standard_base@_WV?$stream_output_adapter@_W@__crt_stdio_output@@@__crt_stdio_output@@IAE_NAA_W@Z 0042194e f i libucrt:output.obj
 0001:00020972       ??$extract_argument_from_va_list@_W_W@?$standard_base@_WV?$string_output_adapter@_W@__crt_stdio_output@@@__crt_stdio_output@@IAE_NAA_W@Z 00421972 f i libucrt:output.obj
 0001:00020996       ??$get_parameter_type@D@?$positional_parameter_base@DV?$stream_output_adapter@D@__crt_stdio_output@@@__crt_stdio_output@@CA?AW4parameter_type@01@PAD@Z 00421996 f i libucrt:output.obj
 0001:0002099a       ??$get_parameter_type@D@?$positional_parameter_base@DV?$string_output_adapter@D@__crt_stdio_output@@@__crt_stdio_output@@CA?AW4parameter_type@01@PAD@Z 0042199a f i libucrt:output.obj
 0001:0002099e       ??$get_parameter_type@D@?$positional_parameter_base@_WV?$stream_output_adapter@_W@__crt_stdio_output@@@__crt_stdio_output@@CA?AW4parameter_type@01@PAD@Z 0042199e f i libucrt:output.obj
 0001:000209a2       ??$get_parameter_type@D@?$positional_parameter_base@_WV?$string_output_adapter@_W@__crt_stdio_output@@@__crt_stdio_output@@CA?AW4parameter_type@01@PAD@Z 004219a2 f i libucrt:output.obj
 0001:000209a6       ??$get_parameter_type@Uansi_string@?1??type_case_Z@?$output_processor@DV?$stream_output_adapter@D@__crt_stdio_output@@V?$positional_parameter_base@DV?$stream_output_adapter@D@__crt_stdio_output@@@2@@__crt_stdio_output@@AAE_NXZ@@?$positional_parameter_base@DV?$stream_output_adapter@D@__crt_stdio_output@@@__crt_stdio_output@@CA?AW4parameter_type@01@PAUansi_string@?1??type_case_Z@?$output_processor@DV?$stream_output_adapter@D@__crt_stdio_output@@V?$positional_parameter_base@DV?$stream_output_adapter@D@__crt_stdio_output@@@2@@1@AAE_NXZ@@Z 004219a6 f i libucrt:output.obj
 0001:000209aa       ??$get_parameter_type@Uansi_string@?1??type_case_Z@?$output_processor@DV?$string_output_adapter@D@__crt_stdio_output@@V?$positional_parameter_base@DV?$string_output_adapter@D@__crt_stdio_output@@@2@@__crt_stdio_output@@AAE_NXZ@@?$positional_parameter_base@DV?$string_output_adapter@D@__crt_stdio_output@@@__crt_stdio_output@@CA?AW4parameter_type@01@PAUansi_string@?1??type_case_Z@?$output_processor@DV?$string_output_adapter@D@__crt_stdio_output@@V?$positional_parameter_base@DV?$string_output_adapter@D@__crt_stdio_output@@@2@@1@AAE_NXZ@@Z 004219aa f i libucrt:output.obj
 0001:000209ae       ??$get_parameter_type@Uansi_string@?1??type_case_Z@?$output_processor@_WV?$stream_output_adapter@_W@__crt_stdio_output@@V?$positional_parameter_base@_WV?$stream_output_adapter@_W@__crt_stdio_output@@@2@@__crt_stdio_output@@AAE_NXZ@@?$positional_parameter_base@_WV?$stream_output_adapter@_W@__crt_stdio_output@@@__crt_stdio_output@@CA?AW4parameter_type@01@PAUansi_string@?1??type_case_Z@?$output_processor@_WV?$stream_output_adapter@_W@__crt_stdio_output@@V?$positional_parameter_base@_WV?$stream_output_adapter@_W@__crt_stdio_output@@@2@@1@AAE_NXZ@@Z 004219ae f i libucrt:output.obj
 0001:000209b2       ??$get_parameter_type@Uansi_string@?1??type_case_Z@?$output_processor@_WV?$string_output_adapter@_W@__crt_stdio_output@@V?$positional_parameter_base@_WV?$string_output_adapter@_W@__crt_stdio_output@@@2@@__crt_stdio_output@@AAE_NXZ@@?$positional_parameter_base@_WV?$string_output_adapter@_W@__crt_stdio_output@@@__crt_stdio_output@@CA?AW4parameter_type@01@PAUansi_string@?1??type_case_Z@?$output_processor@_WV?$string_output_adapter@_W@__crt_stdio_output@@V?$positional_parameter_base@_WV?$string_output_adapter@_W@__crt_stdio_output@@@2@@1@AAE_NXZ@@Z 004219b2 f i libucrt:output.obj
 0001:000209b6       ??$get_parameter_type@X@?$positional_parameter_base@DV?$stream_output_adapter@D@__crt_stdio_output@@@__crt_stdio_output@@CA?AW4parameter_type@01@PAX@Z 004219b6 f i libucrt:output.obj
 0001:000209ba       ??$get_parameter_type@X@?$positional_parameter_base@DV?$string_output_adapter@D@__crt_stdio_output@@@__crt_stdio_output@@CA?AW4parameter_type@01@PAX@Z 004219ba f i libucrt:output.obj
 0001:000209be       ??$get_parameter_type@X@?$positional_parameter_base@_WV?$stream_output_adapter@_W@__crt_stdio_output@@@__crt_stdio_output@@CA?AW4parameter_type@01@PAX@Z 004219be f i libucrt:output.obj
 0001:000209c2       ??$get_parameter_type@X@?$positional_parameter_base@_WV?$string_output_adapter@_W@__crt_stdio_output@@@__crt_stdio_output@@CA?AW4parameter_type@01@PAX@Z 004219c2 f i libucrt:output.obj
 0001:000209c6       ??$is_character_specifier@D@?$positional_parameter_base@DV?$stream_output_adapter@D@__crt_stdio_output@@@__crt_stdio_output@@CA_ND@Z 004219c6 f i libucrt:output.obj
 0001:000209e4       ??$is_character_specifier@D@?$positional_parameter_base@DV?$string_output_adapter@D@__crt_stdio_output@@@__crt_stdio_output@@CA_ND@Z 004219e4 f i libucrt:output.obj
 0001:00020a02       ??$is_character_specifier@_W@?$positional_parameter_base@_WV?$stream_output_adapter@_W@__crt_stdio_output@@@__crt_stdio_output@@CA_N_W@Z 00421a02 f i libucrt:output.obj
 0001:00020a23       ??$is_character_specifier@_W@?$positional_parameter_base@_WV?$string_output_adapter@_W@__crt_stdio_output@@@__crt_stdio_output@@CA_N_W@Z 00421a23 f i libucrt:output.obj
 0001:00020a44       ??$is_integral_specifier@D@?$positional_parameter_base@DV?$stream_output_adapter@D@__crt_stdio_output@@@__crt_stdio_output@@CA_ND@Z 00421a44 f i libucrt:output.obj
 0001:00020a7b       ??$is_integral_specifier@D@?$positional_parameter_base@DV?$string_output_adapter@D@__crt_stdio_output@@@__crt_stdio_output@@CA_ND@Z 00421a7b f i libucrt:output.obj
 0001:00020ab2       ??$is_integral_specifier@_W@?$positional_parameter_base@_WV?$stream_output_adapter@_W@__crt_stdio_output@@@__crt_stdio_output@@CA_N_W@Z 00421ab2 f i libucrt:output.obj
 0001:00020afb       ??$is_integral_specifier@_W@?$positional_parameter_base@_WV?$string_output_adapter@_W@__crt_stdio_output@@@__crt_stdio_output@@CA_N_W@Z 00421afb f i libucrt:output.obj
 0001:00020b44       ??$is_overflow_condition@K@__crt_strtox@@YA_NIK@Z 00421b44 f i libucrt:output.obj
 0001:00020b85       ??$is_pointer_specifier@D@?$positional_parameter_base@DV?$stream_output_adapter@D@__crt_stdio_output@@@__crt_stdio_output@@CA_ND@Z 00421b85 f i libucrt:output.obj
 0001:00020b96       ??$is_pointer_specifier@D@?$positional_parameter_base@DV?$string_output_adapter@D@__crt_stdio_output@@@__crt_stdio_output@@CA_ND@Z 00421b96 f i libucrt:output.obj
 0001:00020ba7       ??$is_pointer_specifier@_W@?$positional_parameter_base@_WV?$stream_output_adapter@_W@__crt_stdio_output@@@__crt_stdio_output@@CA_N_W@Z 00421ba7 f i libucrt:output.obj
 0001:00020bb9       ??$is_pointer_specifier@_W@?$positional_parameter_base@_WV?$string_output_adapter@_W@__crt_stdio_output@@@__crt_stdio_output@@CA_N_W@Z 00421bb9 f i libucrt:output.obj
 0001:00020bcb       ??$is_string_specifier@D@?$positional_parameter_base@DV?$stream_output_adapter@D@__crt_stdio_output@@@__crt_stdio_output@@CA_ND@Z 00421bcb f i libucrt:output.obj
 0001:00020be9       ??$is_string_specifier@D@?$positional_parameter_base@DV?$string_output_adapter@D@__crt_stdio_output@@@__crt_stdio_output@@CA_ND@Z 00421be9 f i libucrt:output.obj
 0001:00020c07       ??$is_string_specifier@_W@?$positional_parameter_base@_WV?$stream_output_adapter@_W@__crt_stdio_output@@@__crt_stdio_output@@CA_N_W@Z 00421c07 f i libucrt:output.obj
 0001:00020c28       ??$is_string_specifier@_W@?$positional_parameter_base@_WV?$string_output_adapter@_W@__crt_stdio_output@@@__crt_stdio_output@@CA_N_W@Z 00421c28 f i libucrt:output.obj
 0001:00020c49       ??$is_wide_character_specifier@D@__crt_stdio_output@@YA_N_KDW4length_modifier@0@@Z 00421c49 f i libucrt:output.obj
 0001:00020c86       ??$is_wide_character_specifier@_W@__crt_stdio_output@@YA_N_K_WW4length_modifier@0@@Z 00421c86 f i libucrt:output.obj
 0001:00020ce7       ??$make_c_string_character_source@DPAPAD@__crt_strtox@@YA?AV?$c_string_character_source@D@0@QBDQAPAD@Z 00421ce7 f i libucrt:output.obj
 0001:00020d08       ??$make_c_string_character_source@_WPAPA_W@__crt_strtox@@YA?AV?$c_string_character_source@_W@0@QB_WQAPA_W@Z 00421d08 f i libucrt:output.obj
 0001:00020d29       ??$parse_integer@KV?$c_string_character_source@D@__crt_strtox@@$0A@@__crt_strtox@@YAKAAV__crt_cached_ptd_host@@V?$c_string_character_source@D@0@H_N@Z 00421d29 f i libucrt:output.obj
 0001:00020fbb       ??$parse_integer@KV?$c_string_character_source@_W@__crt_strtox@@$0A@@__crt_strtox@@YAKAAV__crt_cached_ptd_host@@V?$c_string_character_source@_W@0@H_N@Z 00421fbb f i libucrt:output.obj
 0001:00021702       ??$peek_va_arg@C@__crt_stdio_output@@YACPAD@Z 00422702 f i libucrt:output.obj
 0001:00021711       ??$peek_va_arg@E@__crt_stdio_output@@YAEPAD@Z 00422711 f i libucrt:output.obj
 0001:00021720       ??$peek_va_arg@F@__crt_stdio_output@@YAFPAD@Z 00422720 f i libucrt:output.obj
 0001:00021730       ??$peek_va_arg@G@__crt_stdio_output@@YAGPAD@Z 00422730 f i libucrt:output.obj
 0001:00021740       ??$peek_va_arg@H@__crt_stdio_output@@YAHPAD@Z 00422740 f i libucrt:output.obj
 0001:0002174f       ??$peek_va_arg@I@__crt_stdio_output@@YAIPAD@Z 0042274f f i libucrt:output.obj
 0001:0002175e       ??$peek_va_arg@PAD@__crt_stdio_output@@YAPADPAD@Z 0042275e f i libucrt:output.obj
 0001:0002176d       ??$peek_va_arg@PAUansi_string@?1??type_case_Z@?$output_processor@DV?$stream_output_adapter@D@__crt_stdio_output@@V?$positional_parameter_base@DV?$stream_output_adapter@D@__crt_stdio_output@@@2@@__crt_stdio_output@@AAE_NXZ@@__crt_stdio_output@@YAPAUansi_string@?1??type_case_Z@?$output_processor@DV?$stream_output_adapter@D@__crt_stdio_output@@V?$positional_parameter_base@DV?$stream_output_adapter@D@__crt_stdio_output@@@2@@0@AAE_NXZ@PAD@Z 0042276d f i libucrt:output.obj
 0001:0002177c       ??$peek_va_arg@PAUansi_string@?1??type_case_Z@?$output_processor@DV?$string_output_adapter@D@__crt_stdio_output@@V?$positional_parameter_base@DV?$string_output_adapter@D@__crt_stdio_output@@@2@@__crt_stdio_output@@AAE_NXZ@@__crt_stdio_output@@YAPAUansi_string@?1??type_case_Z@?$output_processor@DV?$string_output_adapter@D@__crt_stdio_output@@V?$positional_parameter_base@DV?$string_output_adapter@D@__crt_stdio_output@@@2@@0@AAE_NXZ@PAD@Z 0042277c f i libucrt:output.obj
 0001:0002178b       ??$peek_va_arg@PAUansi_string@?1??type_case_Z@?$output_processor@_WV?$stream_output_adapter@_W@__crt_stdio_output@@V?$positional_parameter_base@_WV?$stream_output_adapter@_W@__crt_stdio_output@@@2@@__crt_stdio_output@@AAE_NXZ@@__crt_stdio_output@@YAPAUansi_string@?1??type_case_Z@?$output_processor@_WV?$stream_output_adapter@_W@__crt_stdio_output@@V?$positional_parameter_base@_WV?$stream_output_adapter@_W@__crt_stdio_output@@@2@@0@AAE_NXZ@PAD@Z 0042278b f i libucrt:output.obj
 0001:0002179a       ??$peek_va_arg@PAUansi_string@?1??type_case_Z@?$output_processor@_WV?$string_output_adapter@_W@__crt_stdio_output@@V?$positional_parameter_base@_WV?$string_output_adapter@_W@__crt_stdio_output@@@2@@__crt_stdio_output@@AAE_NXZ@@__crt_stdio_output@@YAPAUansi_string@?1??type_case_Z@?$output_processor@_WV?$string_output_adapter@_W@__crt_stdio_output@@V?$positional_parameter_base@_WV?$string_output_adapter@_W@__crt_stdio_output@@@2@@0@AAE_NXZ@PAD@Z 0042279a f i libucrt:output.obj
 0001:000217a9       ??$peek_va_arg@PAX@__crt_stdio_output@@YAPAXPAD@Z 004227a9 f i libucrt:output.obj
 0001:000217b8       ??$peek_va_arg@U_CRT_DOUBLE@@@__crt_stdio_output@@YA?AU_CRT_DOUBLE@@PAD@Z 004227b8 f i libucrt:output.obj
 0001:000217ca       ??$peek_va_arg@_J@__crt_stdio_output@@YA_JPAD@Z 004227ca f i libucrt:output.obj
 0001:000217dc       ??$peek_va_arg@_K@__crt_stdio_output@@YA_KPAD@Z 004227dc f i libucrt:output.obj
 0001:000217ee       ??$peek_va_arg@_W@__crt_stdio_output@@YA_WPAD@Z 004227ee f i libucrt:output.obj
 0001:000217fe       ??$puttc_nolock_internal@ABDPAU_iobuf@@AAV__crt_cached_ptd_host@@@?$__crt_char_traits@D@@SAHABD$$QAPAU_iobuf@@AAV__crt_cached_ptd_host@@@Z 004227fe f i libucrt:output.obj
 0001:00021823       ??$puttc_nolock_internal@AB_WPAU_iobuf@@AAV__crt_cached_ptd_host@@@?$__crt_char_traits@_W@@SAGAB_W$$QAPAU_iobuf@@AAV__crt_cached_ptd_host@@@Z 00422823 f i libucrt:output.obj
 0001:00021848       ??$read_va_arg@C@__crt_stdio_output@@YACAAPAD@Z 00422848 f i libucrt:output.obj
 0001:0002185f       ??$read_va_arg@E@__crt_stdio_output@@YAEAAPAD@Z 0042285f f i libucrt:output.obj
 0001:00021876       ??$read_va_arg@F@__crt_stdio_output@@YAFAAPAD@Z 00422876 f i libucrt:output.obj
 0001:0002188f       ??$read_va_arg@G@__crt_stdio_output@@YAGAAPAD@Z 0042288f f i libucrt:output.obj
 0001:000218a8       ??$read_va_arg@H@__crt_stdio_output@@YAHAAPAD@Z 004228a8 f i libucrt:output.obj
 0001:000218bf       ??$read_va_arg@I@__crt_stdio_output@@YAIAAPAD@Z 004228bf f i libucrt:output.obj
 0001:000218d6       ??$read_va_arg@PAD@__crt_stdio_output@@YAPADAAPAD@Z 004228d6 f i libucrt:output.obj
 0001:000218ed       ??$read_va_arg@PAUansi_string@?1??type_case_Z@?$output_processor@DV?$stream_output_adapter@D@__crt_stdio_output@@V?$format_validation_base@DV?$stream_output_adapter@D@__crt_stdio_output@@@2@@__crt_stdio_output@@AAE_NXZ@@__crt_stdio_output@@YAPAUansi_string@?1??type_case_Z@?$output_processor@DV?$stream_output_adapter@D@__crt_stdio_output@@V?$format_validation_base@DV?$stream_output_adapter@D@__crt_stdio_output@@@2@@0@AAE_NXZ@AAPAD@Z 004228ed f i libucrt:output.obj
 0001:00021904       ??$read_va_arg@PAUansi_string@?1??type_case_Z@?$output_processor@DV?$stream_output_adapter@D@__crt_stdio_output@@V?$positional_parameter_base@DV?$stream_output_adapter@D@__crt_stdio_output@@@2@@__crt_stdio_output@@AAE_NXZ@@__crt_stdio_output@@YAPAUansi_string@?1??type_case_Z@?$output_processor@DV?$stream_output_adapter@D@__crt_stdio_output@@V?$positional_parameter_base@DV?$stream_output_adapter@D@__crt_stdio_output@@@2@@0@AAE_NXZ@AAPAD@Z 00422904 f i libucrt:output.obj
 0001:0002191b       ??$read_va_arg@PAUansi_string@?1??type_case_Z@?$output_processor@DV?$stream_output_adapter@D@__crt_stdio_output@@V?$standard_base@DV?$stream_output_adapter@D@__crt_stdio_output@@@2@@__crt_stdio_output@@AAE_NXZ@@__crt_stdio_output@@YAPAUansi_string@?1??type_case_Z@?$output_processor@DV?$stream_output_adapter@D@__crt_stdio_output@@V?$standard_base@DV?$stream_output_adapter@D@__crt_stdio_output@@@2@@0@AAE_NXZ@AAPAD@Z 0042291b f i libucrt:output.obj
 0001:00021932       ??$read_va_arg@PAUansi_string@?1??type_case_Z@?$output_processor@DV?$string_output_adapter@D@__crt_stdio_output@@V?$format_validation_base@DV?$string_output_adapter@D@__crt_stdio_output@@@2@@__crt_stdio_output@@AAE_NXZ@@__crt_stdio_output@@YAPAUansi_string@?1??type_case_Z@?$output_processor@DV?$string_output_adapter@D@__crt_stdio_output@@V?$format_validation_base@DV?$string_output_adapter@D@__crt_stdio_output@@@2@@0@AAE_NXZ@AAPAD@Z 00422932 f i libucrt:output.obj
 0001:00021949       ??$read_va_arg@PAUansi_string@?1??type_case_Z@?$output_processor@DV?$string_output_adapter@D@__crt_stdio_output@@V?$positional_parameter_base@DV?$string_output_adapter@D@__crt_stdio_output@@@2@@__crt_stdio_output@@AAE_NXZ@@__crt_stdio_output@@YAPAUansi_string@?1??type_case_Z@?$output_processor@DV?$string_output_adapter@D@__crt_stdio_output@@V?$positional_parameter_base@DV?$string_output_adapter@D@__crt_stdio_output@@@2@@0@AAE_NXZ@AAPAD@Z 00422949 f i libucrt:output.obj
 0001:00021960       ??$read_va_arg@PAUansi_string@?1??type_case_Z@?$output_processor@DV?$string_output_adapter@D@__crt_stdio_output@@V?$standard_base@DV?$string_output_adapter@D@__crt_stdio_output@@@2@@__crt_stdio_output@@AAE_NXZ@@__crt_stdio_output@@YAPAUansi_string@?1??type_case_Z@?$output_processor@DV?$string_output_adapter@D@__crt_stdio_output@@V?$standard_base@DV?$string_output_adapter@D@__crt_stdio_output@@@2@@0@AAE_NXZ@AAPAD@Z 00422960 f i libucrt:output.obj
 0001:00021977       ??$read_va_arg@PAUansi_string@?1??type_case_Z@?$output_processor@_WV?$stream_output_adapter@_W@__crt_stdio_output@@V?$format_validation_base@_WV?$stream_output_adapter@_W@__crt_stdio_output@@@2@@__crt_stdio_output@@AAE_NXZ@@__crt_stdio_output@@YAPAUansi_string@?1??type_case_Z@?$output_processor@_WV?$stream_output_adapter@_W@__crt_stdio_output@@V?$format_validation_base@_WV?$stream_output_adapter@_W@__crt_stdio_output@@@2@@0@AAE_NXZ@AAPAD@Z 00422977 f i libucrt:output.obj
 0001:0002198e       ??$read_va_arg@PAUansi_string@?1??type_case_Z@?$output_processor@_WV?$stream_output_adapter@_W@__crt_stdio_output@@V?$positional_parameter_base@_WV?$stream_output_adapter@_W@__crt_stdio_output@@@2@@__crt_stdio_output@@AAE_NXZ@@__crt_stdio_output@@YAPAUansi_string@?1??type_case_Z@?$output_processor@_WV?$stream_output_adapter@_W@__crt_stdio_output@@V?$positional_parameter_base@_WV?$stream_output_adapter@_W@__crt_stdio_output@@@2@@0@AAE_NXZ@AAPAD@Z 0042298e f i libucrt:output.obj
 0001:000219a5       ??$read_va_arg@PAUansi_string@?1??type_case_Z@?$output_processor@_WV?$stream_output_adapter@_W@__crt_stdio_output@@V?$standard_base@_WV?$stream_output_adapter@_W@__crt_stdio_output@@@2@@__crt_stdio_output@@AAE_NXZ@@__crt_stdio_output@@YAPAUansi_string@?1??type_case_Z@?$output_processor@_WV?$stream_output_adapter@_W@__crt_stdio_output@@V?$standard_base@_WV?$stream_output_adapter@_W@__crt_stdio_output@@@2@@0@AAE_NXZ@AAPAD@Z 004229a5 f i libucrt:output.obj
 0001:000219bc       ??$read_va_arg@PAUansi_string@?1??type_case_Z@?$output_processor@_WV?$string_output_adapter@_W@__crt_stdio_output@@V?$format_validation_base@_WV?$string_output_adapter@_W@__crt_stdio_output@@@2@@__crt_stdio_output@@AAE_NXZ@@__crt_stdio_output@@YAPAUansi_string@?1??type_case_Z@?$output_processor@_WV?$string_output_adapter@_W@__crt_stdio_output@@V?$format_validation_base@_WV?$string_output_adapter@_W@__crt_stdio_output@@@2@@0@AAE_NXZ@AAPAD@Z 004229bc f i libucrt:output.obj
 0001:000219d3       ??$read_va_arg@PAUansi_string@?1??type_case_Z@?$output_processor@_WV?$string_output_adapter@_W@__crt_stdio_output@@V?$positional_parameter_base@_WV?$string_output_adapter@_W@__crt_stdio_output@@@2@@__crt_stdio_output@@AAE_NXZ@@__crt_stdio_output@@YAPAUansi_string@?1??type_case_Z@?$output_processor@_WV?$string_output_adapter@_W@__crt_stdio_output@@V?$positional_parameter_base@_WV?$string_output_adapter@_W@__crt_stdio_output@@@2@@0@AAE_NXZ@AAPAD@Z 004229d3 f i libucrt:output.obj
 0001:000219ea       ??$read_va_arg@PAUansi_string@?1??type_case_Z@?$output_processor@_WV?$string_output_adapter@_W@__crt_stdio_output@@V?$standard_base@_WV?$string_output_adapter@_W@__crt_stdio_output@@@2@@__crt_stdio_output@@AAE_NXZ@@__crt_stdio_output@@YAPAUansi_string@?1??type_case_Z@?$output_processor@_WV?$string_output_adapter@_W@__crt_stdio_output@@V?$standard_base@_WV?$string_output_adapter@_W@__crt_stdio_output@@@2@@0@AAE_NXZ@AAPAD@Z 004229ea f i libucrt:output.obj
 0001:00021a01       ??$read_va_arg@PAX@__crt_stdio_output@@YAPAXAAPAD@Z 00422a01 f i libucrt:output.obj
 0001:00021a18       ??$read_va_arg@U_CRT_DOUBLE@@@__crt_stdio_output@@YA?AU_CRT_DOUBLE@@AAPAD@Z 00422a18 f i libucrt:output.obj
 0001:00021a33       ??$read_va_arg@_J@__crt_stdio_output@@YA_JAAPAD@Z 00422a33 f i libucrt:output.obj
 0001:00021a4e       ??$read_va_arg@_K@__crt_stdio_output@@YA_KAAPAD@Z 00422a4e f i libucrt:output.obj
 0001:00021a69       ??$read_va_arg@_W@__crt_stdio_output@@YA_WAAPAD@Z 00422a69 f i libucrt:output.obj
 0001:00021a82       ??$scratch_count@D@formatting_buffer@__crt_stdio_output@@QBEIXZ 00422a82 f i libucrt:output.obj
 0001:00021a87       ??$scratch_data@D@formatting_buffer@__crt_stdio_output@@QAEPADXZ 00422a87 f i libucrt:output.obj
 0001:00021aac       ??$type_case_integer@$07@?$output_processor@DV?$stream_output_adapter@D@__crt_stdio_output@@V?$format_validation_base@DV?$stream_output_adapter@D@__crt_stdio_output@@@2@@__crt_stdio_output@@AAE_N_N@Z 00422aac f i libucrt:output.obj
 0001:00021c9c       ??$type_case_integer@$07@?$output_processor@DV?$stream_output_adapter@D@__crt_stdio_output@@V?$positional_parameter_base@DV?$stream_output_adapter@D@__crt_stdio_output@@@2@@__crt_stdio_output@@AAE_N_N@Z 00422c9c f i libucrt:output.obj
 0001:00021e9f       ??$type_case_integer@$07@?$output_processor@DV?$stream_output_adapter@D@__crt_stdio_output@@V?$standard_base@DV?$stream_output_adapter@D@__crt_stdio_output@@@2@@__crt_stdio_output@@AAE_N_N@Z 00422e9f f i libucrt:output.obj
 0001:0002208f       ??$type_case_integer@$07@?$output_processor@DV?$string_output_adapter@D@__crt_stdio_output@@V?$format_validation_base@DV?$string_output_adapter@D@__crt_stdio_output@@@2@@__crt_stdio_output@@AAE_N_N@Z 0042308f f i libucrt:output.obj
 0001:0002227f       ??$type_case_integer@$07@?$output_processor@DV?$string_output_adapter@D@__crt_stdio_output@@V?$positional_parameter_base@DV?$string_output_adapter@D@__crt_stdio_output@@@2@@__crt_stdio_output@@AAE_N_N@Z 0042327f f i libucrt:output.obj
 0001:00022482       ??$type_case_integer@$07@?$output_processor@DV?$string_output_adapter@D@__crt_stdio_output@@V?$standard_base@DV?$string_output_adapter@D@__crt_stdio_output@@@2@@__crt_stdio_output@@AAE_N_N@Z 00423482 f i libucrt:output.obj
 0001:00022672       ??$type_case_integer@$07@?$output_processor@_WV?$stream_output_adapter@_W@__crt_stdio_output@@V?$format_validation_base@_WV?$stream_output_adapter@_W@__crt_stdio_output@@@2@@__crt_stdio_output@@AAE_N_N@Z 00423672 f i libucrt:output.obj
 0001:00022868       ??$type_case_integer@$07@?$output_processor@_WV?$stream_output_adapter@_W@__crt_stdio_output@@V?$positional_parameter_base@_WV?$stream_output_adapter@_W@__crt_stdio_output@@@2@@__crt_stdio_output@@AAE_N_N@Z 00423868 f i libucrt:output.obj
 0001:00022a70       ??$type_case_integer@$07@?$output_processor@_WV?$stream_output_adapter@_W@__crt_stdio_output@@V?$standard_base@_WV?$stream_output_adapter@_W@__crt_stdio_output@@@2@@__crt_stdio_output@@AAE_N_N@Z 00423a70 f i libucrt:output.obj
 0001:00022c66       ??$type_case_integer@$07@?$output_processor@_WV?$string_output_adapter@_W@__crt_stdio_output@@V?$format_validation_base@_WV?$string_output_adapter@_W@__crt_stdio_output@@@2@@__crt_stdio_output@@AAE_N_N@Z 00423c66 f i libucrt:output.obj
 0001:00022e5c       ??$type_case_integer@$07@?$output_processor@_WV?$string_output_adapter@_W@__crt_stdio_output@@V?$positional_parameter_base@_WV?$string_output_adapter@_W@__crt_stdio_output@@@2@@__crt_stdio_output@@AAE_N_N@Z 00423e5c f i libucrt:output.obj
 0001:00023064       ??$type_case_integer@$07@?$output_processor@_WV?$string_output_adapter@_W@__crt_stdio_output@@V?$standard_base@_WV?$string_output_adapter@_W@__crt_stdio_output@@@2@@__crt_stdio_output@@AAE_N_N@Z 00424064 f i libucrt:output.obj
 0001:0002325a       ??$type_case_integer@$09@?$output_processor@DV?$stream_output_adapter@D@__crt_stdio_output@@V?$format_validation_base@DV?$stream_output_adapter@D@__crt_stdio_output@@@2@@__crt_stdio_output@@AAE_N_N@Z 0042425a f i libucrt:output.obj
 0001:0002344a       ??$type_case_integer@$09@?$output_processor@DV?$stream_output_adapter@D@__crt_stdio_output@@V?$positional_parameter_base@DV?$stream_output_adapter@D@__crt_stdio_output@@@2@@__crt_stdio_output@@AAE_N_N@Z 0042444a f i libucrt:output.obj
 0001:0002364d       ??$type_case_integer@$09@?$output_processor@DV?$stream_output_adapter@D@__crt_stdio_output@@V?$standard_base@DV?$stream_output_adapter@D@__crt_stdio_output@@@2@@__crt_stdio_output@@AAE_N_N@Z 0042464d f i libucrt:output.obj
 0001:0002383d       ??$type_case_integer@$09@?$output_processor@DV?$string_output_adapter@D@__crt_stdio_output@@V?$format_validation_base@DV?$string_output_adapter@D@__crt_stdio_output@@@2@@__crt_stdio_output@@AAE_N_N@Z 0042483d f i libucrt:output.obj
 0001:00023a2d       ??$type_case_integer@$09@?$output_processor@DV?$string_output_adapter@D@__crt_stdio_output@@V?$positional_parameter_base@DV?$string_output_adapter@D@__crt_stdio_output@@@2@@__crt_stdio_output@@AAE_N_N@Z 00424a2d f i libucrt:output.obj
 0001:00023c30       ??$type_case_integer@$09@?$output_processor@DV?$string_output_adapter@D@__crt_stdio_output@@V?$standard_base@DV?$string_output_adapter@D@__crt_stdio_output@@@2@@__crt_stdio_output@@AAE_N_N@Z 00424c30 f i libucrt:output.obj
 0001:00023e20       ??$type_case_integer@$09@?$output_processor@_WV?$stream_output_adapter@_W@__crt_stdio_output@@V?$format_validation_base@_WV?$stream_output_adapter@_W@__crt_stdio_output@@@2@@__crt_stdio_output@@AAE_N_N@Z 00424e20 f i libucrt:output.obj
 0001:00024016       ??$type_case_integer@$09@?$output_processor@_WV?$stream_output_adapter@_W@__crt_stdio_output@@V?$positional_parameter_base@_WV?$stream_output_adapter@_W@__crt_stdio_output@@@2@@__crt_stdio_output@@AAE_N_N@Z 00425016 f i libucrt:output.obj
 0001:0002421e       ??$type_case_integer@$09@?$output_processor@_WV?$stream_output_adapter@_W@__crt_stdio_output@@V?$standard_base@_WV?$stream_output_adapter@_W@__crt_stdio_output@@@2@@__crt_stdio_output@@AAE_N_N@Z 0042521e f i libucrt:output.obj
 0001:00024414       ??$type_case_integer@$09@?$output_processor@_WV?$string_output_adapter@_W@__crt_stdio_output@@V?$format_validation_base@_WV?$string_output_adapter@_W@__crt_stdio_output@@@2@@__crt_stdio_output@@AAE_N_N@Z 00425414 f i libucrt:output.obj
 0001:0002460a       ??$type_case_integer@$09@?$output_processor@_WV?$string_output_adapter@_W@__crt_stdio_output@@V?$positional_parameter_base@_WV?$string_output_adapter@_W@__crt_stdio_output@@@2@@__crt_stdio_output@@AAE_N_N@Z 0042560a f i libucrt:output.obj
 0001:00024812       ??$type_case_integer@$09@?$output_processor@_WV?$string_output_adapter@_W@__crt_stdio_output@@V?$standard_base@_WV?$string_output_adapter@_W@__crt_stdio_output@@@2@@__crt_stdio_output@@AAE_N_N@Z 00425812 f i libucrt:output.obj
 0001:00024a08       ??$type_case_integer@$0BA@@?$output_processor@DV?$stream_output_adapter@D@__crt_stdio_output@@V?$format_validation_base@DV?$stream_output_adapter@D@__crt_stdio_output@@@2@@__crt_stdio_output@@AAE_N_N@Z 00425a08 f i libucrt:output.obj
 0001:00024bf8       ??$type_case_integer@$0BA@@?$output_processor@DV?$stream_output_adapter@D@__crt_stdio_output@@V?$positional_parameter_base@DV?$stream_output_adapter@D@__crt_stdio_output@@@2@@__crt_stdio_output@@AAE_N_N@Z 00425bf8 f i libucrt:output.obj
 0001:00024dfb       ??$type_case_integer@$0BA@@?$output_processor@DV?$stream_output_adapter@D@__crt_stdio_output@@V?$standard_base@DV?$stream_output_adapter@D@__crt_stdio_output@@@2@@__crt_stdio_output@@AAE_N_N@Z 00425dfb f i libucrt:output.obj
 0001:00024feb       ??$type_case_integer@$0BA@@?$output_processor@DV?$string_output_adapter@D@__crt_stdio_output@@V?$format_validation_base@DV?$string_output_adapter@D@__crt_stdio_output@@@2@@__crt_stdio_output@@AAE_N_N@Z 00425feb f i libucrt:output.obj
 0001:000251db       ??$type_case_integer@$0BA@@?$output_processor@DV?$string_output_adapter@D@__crt_stdio_output@@V?$positional_parameter_base@DV?$string_output_adapter@D@__crt_stdio_output@@@2@@__crt_stdio_output@@AAE_N_N@Z 004261db f i libucrt:output.obj
 0001:000253de       ??$type_case_integer@$0BA@@?$output_processor@DV?$string_output_adapter@D@__crt_stdio_output@@V?$standard_base@DV?$string_output_adapter@D@__crt_stdio_output@@@2@@__crt_stdio_output@@AAE_N_N@Z 004263de f i libucrt:output.obj
 0001:000255ce       ??$type_case_integer@$0BA@@?$output_processor@_WV?$stream_output_adapter@_W@__crt_stdio_output@@V?$format_validation_base@_WV?$stream_output_adapter@_W@__crt_stdio_output@@@2@@__crt_stdio_output@@AAE_N_N@Z 004265ce f i libucrt:output.obj
 0001:000257c4       ??$type_case_integer@$0BA@@?$output_processor@_WV?$stream_output_adapter@_W@__crt_stdio_output@@V?$positional_parameter_base@_WV?$stream_output_adapter@_W@__crt_stdio_output@@@2@@__crt_stdio_output@@AAE_N_N@Z 004267c4 f i libucrt:output.obj
 0001:000259cc       ??$type_case_integer@$0BA@@?$output_processor@_WV?$stream_output_adapter@_W@__crt_stdio_output@@V?$standard_base@_WV?$stream_output_adapter@_W@__crt_stdio_output@@@2@@__crt_stdio_output@@AAE_N_N@Z 004269cc f i libucrt:output.obj
 0001:00025bc2       ??$type_case_integer@$0BA@@?$output_processor@_WV?$string_output_adapter@_W@__crt_stdio_output@@V?$format_validation_base@_WV?$string_output_adapter@_W@__crt_stdio_output@@@2@@__crt_stdio_output@@AAE_N_N@Z 00426bc2 f i libucrt:output.obj
 0001:00025db8       ??$type_case_integer@$0BA@@?$output_processor@_WV?$string_output_adapter@_W@__crt_stdio_output@@V?$positional_parameter_base@_WV?$string_output_adapter@_W@__crt_stdio_output@@@2@@__crt_stdio_output@@AAE_N_N@Z 00426db8 f i libucrt:output.obj
 0001:00025fc0       ??$type_case_integer@$0BA@@?$output_processor@_WV?$string_output_adapter@_W@__crt_stdio_output@@V?$standard_base@_WV?$string_output_adapter@_W@__crt_stdio_output@@@2@@__crt_stdio_output@@AAE_N_N@Z 00426fc0 f i libucrt:output.obj
 0001:000261b6       ??$type_case_integer_parse_into_buffer@I$07@?$output_processor@DV?$stream_output_adapter@D@__crt_stdio_output@@V?$format_validation_base@DV?$stream_output_adapter@D@__crt_stdio_output@@@2@@__crt_stdio_output@@AAEXI_N@Z 004271b6 f i libucrt:output.obj
 0001:00026231       ??$type_case_integer_parse_into_buffer@I$07@?$output_processor@DV?$stream_output_adapter@D@__crt_stdio_output@@V?$positional_parameter_base@DV?$stream_output_adapter@D@__crt_stdio_output@@@2@@__crt_stdio_output@@AAEXI_N@Z 00427231 f i libucrt:output.obj
 0001:000262ac       ??$type_case_integer_parse_into_buffer@I$07@?$output_processor@DV?$stream_output_adapter@D@__crt_stdio_output@@V?$standard_base@DV?$stream_output_adapter@D@__crt_stdio_output@@@2@@__crt_stdio_output@@AAEXI_N@Z 004272ac f i libucrt:output.obj
 0001:00026327       ??$type_case_integer_parse_into_buffer@I$07@?$output_processor@DV?$string_output_adapter@D@__crt_stdio_output@@V?$format_validation_base@DV?$string_output_adapter@D@__crt_stdio_output@@@2@@__crt_stdio_output@@AAEXI_N@Z 00427327 f i libucrt:output.obj
 0001:000263a2       ??$type_case_integer_parse_into_buffer@I$07@?$output_processor@DV?$string_output_adapter@D@__crt_stdio_output@@V?$positional_parameter_base@DV?$string_output_adapter@D@__crt_stdio_output@@@2@@__crt_stdio_output@@AAEXI_N@Z 004273a2 f i libucrt:output.obj
 0001:0002641d       ??$type_case_integer_parse_into_buffer@I$07@?$output_processor@DV?$string_output_adapter@D@__crt_stdio_output@@V?$standard_base@DV?$string_output_adapter@D@__crt_stdio_output@@@2@@__crt_stdio_output@@AAEXI_N@Z 0042741d f i libucrt:output.obj
 0001:00026498       ??$type_case_integer_parse_into_buffer@I$07@?$output_processor@_WV?$stream_output_adapter@_W@__crt_stdio_output@@V?$format_validation_base@_WV?$stream_output_adapter@_W@__crt_stdio_output@@@2@@__crt_stdio_output@@AAEXI_N@Z 00427498 f i libucrt:output.obj
 0001:00026527       ??$type_case_integer_parse_into_buffer@I$07@?$output_processor@_WV?$stream_output_adapter@_W@__crt_stdio_output@@V?$positional_parameter_base@_WV?$stream_output_adapter@_W@__crt_stdio_output@@@2@@__crt_stdio_output@@AAEXI_N@Z 00427527 f i libucrt:output.obj
 0001:000265b6       ??$type_case_integer_parse_into_buffer@I$07@?$output_processor@_WV?$stream_output_adapter@_W@__crt_stdio_output@@V?$standard_base@_WV?$stream_output_adapter@_W@__crt_stdio_output@@@2@@__crt_stdio_output@@AAEXI_N@Z 004275b6 f i libucrt:output.obj
 0001:00026645       ??$type_case_integer_parse_into_buffer@I$07@?$output_processor@_WV?$string_output_adapter@_W@__crt_stdio_output@@V?$format_validation_base@_WV?$string_output_adapter@_W@__crt_stdio_output@@@2@@__crt_stdio_output@@AAEXI_N@Z 00427645 f i libucrt:output.obj
 0001:000266d4       ??$type_case_integer_parse_into_buffer@I$07@?$output_processor@_WV?$string_output_adapter@_W@__crt_stdio_output@@V?$positional_parameter_base@_WV?$string_output_adapter@_W@__crt_stdio_output@@@2@@__crt_stdio_output@@AAEXI_N@Z 004276d4 f i libucrt:output.obj
 0001:00026763       ??$type_case_integer_parse_into_buffer@I$07@?$output_processor@_WV?$string_output_adapter@_W@__crt_stdio_output@@V?$standard_base@_WV?$string_output_adapter@_W@__crt_stdio_output@@@2@@__crt_stdio_output@@AAEXI_N@Z 00427763 f i libucrt:output.obj
 0001:000267f2       ??$type_case_integer_parse_into_buffer@I$09@?$output_processor@DV?$stream_output_adapter@D@__crt_stdio_output@@V?$format_validation_base@DV?$stream_output_adapter@D@__crt_stdio_output@@@2@@__crt_stdio_output@@AAEXI_N@Z 004277f2 f i libucrt:output.obj
 0001:0002689a       ??$type_case_integer_parse_into_buffer@I$09@?$output_processor@DV?$stream_output_adapter@D@__crt_stdio_output@@V?$positional_parameter_base@DV?$stream_output_adapter@D@__crt_stdio_output@@@2@@__crt_stdio_output@@AAEXI_N@Z 0042789a f i libucrt:output.obj
 0001:00026942       ??$type_case_integer_parse_into_buffer@I$09@?$output_processor@DV?$stream_output_adapter@D@__crt_stdio_output@@V?$standard_base@DV?$stream_output_adapter@D@__crt_stdio_output@@@2@@__crt_stdio_output@@AAEXI_N@Z 00427942 f i libucrt:output.obj
 0001:000269ea       ??$type_case_integer_parse_into_buffer@I$09@?$output_processor@DV?$string_output_adapter@D@__crt_stdio_output@@V?$format_validation_base@DV?$string_output_adapter@D@__crt_stdio_output@@@2@@__crt_stdio_output@@AAEXI_N@Z 004279ea f i libucrt:output.obj
 0001:00026a92       ??$type_case_integer_parse_into_buffer@I$09@?$output_processor@DV?$string_output_adapter@D@__crt_stdio_output@@V?$positional_parameter_base@DV?$string_output_adapter@D@__crt_stdio_output@@@2@@__crt_stdio_output@@AAEXI_N@Z 00427a92 f i libucrt:output.obj
 0001:00026b3a       ??$type_case_integer_parse_into_buffer@I$09@?$output_processor@DV?$string_output_adapter@D@__crt_stdio_output@@V?$standard_base@DV?$string_output_adapter@D@__crt_stdio_output@@@2@@__crt_stdio_output@@AAEXI_N@Z 00427b3a f i libucrt:output.obj
 0001:00026be2       ??$type_case_integer_parse_into_buffer@I$09@?$output_processor@_WV?$stream_output_adapter@_W@__crt_stdio_output@@V?$format_validation_base@_WV?$stream_output_adapter@_W@__crt_stdio_output@@@2@@__crt_stdio_output@@AAEXI_N@Z 00427be2 f i libucrt:output.obj
 0001:00026ca5       ??$type_case_integer_parse_into_buffer@I$09@?$output_processor@_WV?$stream_output_adapter@_W@__crt_stdio_output@@V?$positional_parameter_base@_WV?$stream_output_adapter@_W@__crt_stdio_output@@@2@@__crt_stdio_output@@AAEXI_N@Z 00427ca5 f i libucrt:output.obj
 0001:00026d68       ??$type_case_integer_parse_into_buffer@I$09@?$output_processor@_WV?$stream_output_adapter@_W@__crt_stdio_output@@V?$standard_base@_WV?$stream_output_adapter@_W@__crt_stdio_output@@@2@@__crt_stdio_output@@AAEXI_N@Z 00427d68 f i libucrt:output.obj
 0001:00026e2b       ??$type_case_integer_parse_into_buffer@I$09@?$output_processor@_WV?$string_output_adapter@_W@__crt_stdio_output@@V?$format_validation_base@_WV?$string_output_adapter@_W@__crt_stdio_output@@@2@@__crt_stdio_output@@AAEXI_N@Z 00427e2b f i libucrt:output.obj
 0001:00026eee       ??$type_case_integer_parse_into_buffer@I$09@?$output_processor@_WV?$string_output_adapter@_W@__crt_stdio_output@@V?$positional_parameter_base@_WV?$string_output_adapter@_W@__crt_stdio_output@@@2@@__crt_stdio_output@@AAEXI_N@Z 00427eee f i libucrt:output.obj
 0001:00026fb1       ??$type_case_integer_parse_into_buffer@I$09@?$output_processor@_WV?$string_output_adapter@_W@__crt_stdio_output@@V?$standard_base@_WV?$string_output_adapter@_W@__crt_stdio_output@@@2@@__crt_stdio_output@@AAEXI_N@Z 00427fb1 f i libucrt:output.obj
 0001:00027074       ??$type_case_integer_parse_into_buffer@I$0BA@@?$output_processor@DV?$stream_output_adapter@D@__crt_stdio_output@@V?$format_validation_base@DV?$stream_output_adapter@D@__crt_stdio_output@@@2@@__crt_stdio_output@@AAEXI_N@Z 00428074 f i libucrt:output.obj
 0001:00027110       ??$type_case_integer_parse_into_buffer@I$0BA@@?$output_processor@DV?$stream_output_adapter@D@__crt_stdio_output@@V?$positional_parameter_base@DV?$stream_output_adapter@D@__crt_stdio_output@@@2@@__crt_stdio_output@@AAEXI_N@Z 00428110 f i libucrt:output.obj
 0001:000271ac       ??$type_case_integer_parse_into_buffer@I$0BA@@?$output_processor@DV?$stream_output_adapter@D@__crt_stdio_output@@V?$standard_base@DV?$stream_output_adapter@D@__crt_stdio_output@@@2@@__crt_stdio_output@@AAEXI_N@Z 004281ac f i libucrt:output.obj
 0001:00027248       ??$type_case_integer_parse_into_buffer@I$0BA@@?$output_processor@DV?$string_output_adapter@D@__crt_stdio_output@@V?$format_validation_base@DV?$string_output_adapter@D@__crt_stdio_output@@@2@@__crt_stdio_output@@AAEXI_N@Z 00428248 f i libucrt:output.obj
 0001:000272e4       ??$type_case_integer_parse_into_buffer@I$0BA@@?$output_processor@DV?$string_output_adapter@D@__crt_stdio_output@@V?$positional_parameter_base@DV?$string_output_adapter@D@__crt_stdio_output@@@2@@__crt_stdio_output@@AAEXI_N@Z 004282e4 f i libucrt:output.obj
 0001:00027380       ??$type_case_integer_parse_into_buffer@I$0BA@@?$output_processor@DV?$string_output_adapter@D@__crt_stdio_output@@V?$standard_base@DV?$string_output_adapter@D@__crt_stdio_output@@@2@@__crt_stdio_output@@AAEXI_N@Z 00428380 f i libucrt:output.obj
 0001:0002741c       ??$type_case_integer_parse_into_buffer@I$0BA@@?$output_processor@_WV?$stream_output_adapter@_W@__crt_stdio_output@@V?$format_validation_base@_WV?$stream_output_adapter@_W@__crt_stdio_output@@@2@@__crt_stdio_output@@AAEXI_N@Z 0042841c f i libucrt:output.obj
 0001:000274c8       ??$type_case_integer_parse_into_buffer@I$0BA@@?$output_processor@_WV?$stream_output_adapter@_W@__crt_stdio_output@@V?$positional_parameter_base@_WV?$stream_output_adapter@_W@__crt_stdio_output@@@2@@__crt_stdio_output@@AAEXI_N@Z 004284c8 f i libucrt:output.obj
 0001:00027574       ??$type_case_integer_parse_into_buffer@I$0BA@@?$output_processor@_WV?$stream_output_adapter@_W@__crt_stdio_output@@V?$standard_base@_WV?$stream_output_adapter@_W@__crt_stdio_output@@@2@@__crt_stdio_output@@AAEXI_N@Z 00428574 f i libucrt:output.obj
 0001:00027620       ??$type_case_integer_parse_into_buffer@I$0BA@@?$output_processor@_WV?$string_output_adapter@_W@__crt_stdio_output@@V?$format_validation_base@_WV?$string_output_adapter@_W@__crt_stdio_output@@@2@@__crt_stdio_output@@AAEXI_N@Z 00428620 f i libucrt:output.obj
 0001:000276cc       ??$type_case_integer_parse_into_buffer@I$0BA@@?$output_processor@_WV?$string_output_adapter@_W@__crt_stdio_output@@V?$positional_parameter_base@_WV?$string_output_adapter@_W@__crt_stdio_output@@@2@@__crt_stdio_output@@AAEXI_N@Z 004286cc f i libucrt:output.obj
 0001:00027778       ??$type_case_integer_parse_into_buffer@I$0BA@@?$output_processor@_WV?$string_output_adapter@_W@__crt_stdio_output@@V?$standard_base@_WV?$string_output_adapter@_W@__crt_stdio_output@@@2@@__crt_stdio_output@@AAEXI_N@Z 00428778 f i libucrt:output.obj
 0001:00027824       ??$type_case_integer_parse_into_buffer@_K$07@?$output_processor@DV?$stream_output_adapter@D@__crt_stdio_output@@V?$format_validation_base@DV?$stream_output_adapter@D@__crt_stdio_output@@@2@@__crt_stdio_output@@AAEX_K_N@Z 00428824 f i libucrt:output.obj
 0001:000278ba       ??$type_case_integer_parse_into_buffer@_K$07@?$output_processor@DV?$stream_output_adapter@D@__crt_stdio_output@@V?$positional_parameter_base@DV?$stream_output_adapter@D@__crt_stdio_output@@@2@@__crt_stdio_output@@AAEX_K_N@Z 004288ba f i libucrt:output.obj
 0001:00027950       ??$type_case_integer_parse_into_buffer@_K$07@?$output_processor@DV?$stream_output_adapter@D@__crt_stdio_output@@V?$standard_base@DV?$stream_output_adapter@D@__crt_stdio_output@@@2@@__crt_stdio_output@@AAEX_K_N@Z 00428950 f i libucrt:output.obj
 0001:000279e6       ??$type_case_integer_parse_into_buffer@_K$07@?$output_processor@DV?$string_output_adapter@D@__crt_stdio_output@@V?$format_validation_base@DV?$string_output_adapter@D@__crt_stdio_output@@@2@@__crt_stdio_output@@AAEX_K_N@Z 004289e6 f i libucrt:output.obj
 0001:00027a7c       ??$type_case_integer_parse_into_buffer@_K$07@?$output_processor@DV?$string_output_adapter@D@__crt_stdio_output@@V?$positional_parameter_base@DV?$string_output_adapter@D@__crt_stdio_output@@@2@@__crt_stdio_output@@AAEX_K_N@Z 00428a7c f i libucrt:output.obj
 0001:00027b12       ??$type_case_integer_parse_into_buffer@_K$07@?$output_processor@DV?$string_output_adapter@D@__crt_stdio_output@@V?$standard_base@DV?$string_output_adapter@D@__crt_stdio_output@@@2@@__crt_stdio_output@@AAEX_K_N@Z 00428b12 f i libucrt:output.obj
 0001:00027ba8       ??$type_case_integer_parse_into_buffer@_K$07@?$output_processor@_WV?$stream_output_adapter@_W@__crt_stdio_output@@V?$format_validation_base@_WV?$stream_output_adapter@_W@__crt_stdio_output@@@2@@__crt_stdio_output@@AAEX_K_N@Z 00428ba8 f i libucrt:output.obj
 0001:00027c50       ??$type_case_integer_parse_into_buffer@_K$07@?$output_processor@_WV?$stream_output_adapter@_W@__crt_stdio_output@@V?$positional_parameter_base@_WV?$stream_output_adapter@_W@__crt_stdio_output@@@2@@__crt_stdio_output@@AAEX_K_N@Z 00428c50 f i libucrt:output.obj
 0001:00027cf8       ??$type_case_integer_parse_into_buffer@_K$07@?$output_processor@_WV?$stream_output_adapter@_W@__crt_stdio_output@@V?$standard_base@_WV?$stream_output_adapter@_W@__crt_stdio_output@@@2@@__crt_stdio_output@@AAEX_K_N@Z 00428cf8 f i libucrt:output.obj
 0001:00027da0       ??$type_case_integer_parse_into_buffer@_K$07@?$output_processor@_WV?$string_output_adapter@_W@__crt_stdio_output@@V?$format_validation_base@_WV?$string_output_adapter@_W@__crt_stdio_output@@@2@@__crt_stdio_output@@AAEX_K_N@Z 00428da0 f i libucrt:output.obj
 0001:00027e48       ??$type_case_integer_parse_into_buffer@_K$07@?$output_processor@_WV?$string_output_adapter@_W@__crt_stdio_output@@V?$positional_parameter_base@_WV?$string_output_adapter@_W@__crt_stdio_output@@@2@@__crt_stdio_output@@AAEX_K_N@Z 00428e48 f i libucrt:output.obj
 0001:00027ef0       ??$type_case_integer_parse_into_buffer@_K$07@?$output_processor@_WV?$string_output_adapter@_W@__crt_stdio_output@@V?$standard_base@_WV?$string_output_adapter@_W@__crt_stdio_output@@@2@@__crt_stdio_output@@AAEX_K_N@Z 00428ef0 f i libucrt:output.obj
 0001:00027f98       ??$type_case_integer_parse_into_buffer@_K$09@?$output_processor@DV?$stream_output_adapter@D@__crt_stdio_output@@V?$format_validation_base@DV?$stream_output_adapter@D@__crt_stdio_output@@@2@@__crt_stdio_output@@AAEX_K_N@Z 00428f98 f i libucrt:output.obj
 0001:00028068       ??$type_case_integer_parse_into_buffer@_K$09@?$output_processor@DV?$stream_output_adapter@D@__crt_stdio_output@@V?$positional_parameter_base@DV?$stream_output_adapter@D@__crt_stdio_output@@@2@@__crt_stdio_output@@AAEX_K_N@Z 00429068 f i libucrt:output.obj
 0001:00028138       ??$type_case_integer_parse_into_buffer@_K$09@?$output_processor@DV?$stream_output_adapter@D@__crt_stdio_output@@V?$standard_base@DV?$stream_output_adapter@D@__crt_stdio_output@@@2@@__crt_stdio_output@@AAEX_K_N@Z 00429138 f i libucrt:output.obj
 0001:00028208       ??$type_case_integer_parse_into_buffer@_K$09@?$output_processor@DV?$string_output_adapter@D@__crt_stdio_output@@V?$format_validation_base@DV?$string_output_adapter@D@__crt_stdio_output@@@2@@__crt_stdio_output@@AAEX_K_N@Z 00429208 f i libucrt:output.obj
 0001:000282d8       ??$type_case_integer_parse_into_buffer@_K$09@?$output_processor@DV?$string_output_adapter@D@__crt_stdio_output@@V?$positional_parameter_base@DV?$string_output_adapter@D@__crt_stdio_output@@@2@@__crt_stdio_output@@AAEX_K_N@Z 004292d8 f i libucrt:output.obj
 0001:000283a8       ??$type_case_integer_parse_into_buffer@_K$09@?$output_processor@DV?$string_output_adapter@D@__crt_stdio_output@@V?$standard_base@DV?$string_output_adapter@D@__crt_stdio_output@@@2@@__crt_stdio_output@@AAEX_K_N@Z 004293a8 f i libucrt:output.obj
 0001:00028478       ??$type_case_integer_parse_into_buffer@_K$09@?$output_processor@_WV?$stream_output_adapter@_W@__crt_stdio_output@@V?$format_validation_base@_WV?$stream_output_adapter@_W@__crt_stdio_output@@@2@@__crt_stdio_output@@AAEX_K_N@Z 00429478 f i libucrt:output.obj
 0001:00028564       ??$type_case_integer_parse_into_buffer@_K$09@?$output_processor@_WV?$stream_output_adapter@_W@__crt_stdio_output@@V?$positional_parameter_base@_WV?$stream_output_adapter@_W@__crt_stdio_output@@@2@@__crt_stdio_output@@AAEX_K_N@Z 00429564 f i libucrt:output.obj
 0001:00028650       ??$type_case_integer_parse_into_buffer@_K$09@?$output_processor@_WV?$stream_output_adapter@_W@__crt_stdio_output@@V?$standard_base@_WV?$stream_output_adapter@_W@__crt_stdio_output@@@2@@__crt_stdio_output@@AAEX_K_N@Z 00429650 f i libucrt:output.obj
 0001:0002873c       ??$type_case_integer_parse_into_buffer@_K$09@?$output_processor@_WV?$string_output_adapter@_W@__crt_stdio_output@@V?$format_validation_base@_WV?$string_output_adapter@_W@__crt_stdio_output@@@2@@__crt_stdio_output@@AAEX_K_N@Z 0042973c f i libucrt:output.obj
 0001:00028828       ??$type_case_integer_parse_into_buffer@_K$09@?$output_processor@_WV?$string_output_adapter@_W@__crt_stdio_output@@V?$positional_parameter_base@_WV?$string_output_adapter@_W@__crt_stdio_output@@@2@@__crt_stdio_output@@AAEX_K_N@Z 00429828 f i libucrt:output.obj
 0001:00028914       ??$type_case_integer_parse_into_buffer@_K$09@?$output_processor@_WV?$string_output_adapter@_W@__crt_stdio_output@@V?$standard_base@_WV?$string_output_adapter@_W@__crt_stdio_output@@@2@@__crt_stdio_output@@AAEX_K_N@Z 00429914 f i libucrt:output.obj
 0001:00028a00       ??$type_case_integer_parse_into_buffer@_K$0BA@@?$output_processor@DV?$stream_output_adapter@D@__crt_stdio_output@@V?$format_validation_base@DV?$stream_output_adapter@D@__crt_stdio_output@@@2@@__crt_stdio_output@@AAEX_K_N@Z 00429a00 f i libucrt:output.obj
 0001:00028aac       ??$type_case_integer_parse_into_buffer@_K$0BA@@?$output_processor@DV?$stream_output_adapter@D@__crt_stdio_output@@V?$positional_parameter_base@DV?$stream_output_adapter@D@__crt_stdio_output@@@2@@__crt_stdio_output@@AAEX_K_N@Z 00429aac f i libucrt:output.obj
 0001:00028b58       ??$type_case_integer_parse_into_buffer@_K$0BA@@?$output_processor@DV?$stream_output_adapter@D@__crt_stdio_output@@V?$standard_base@DV?$stream_output_adapter@D@__crt_stdio_output@@@2@@__crt_stdio_output@@AAEX_K_N@Z 00429b58 f i libucrt:output.obj
 0001:00028c04       ??$type_case_integer_parse_into_buffer@_K$0BA@@?$output_processor@DV?$string_output_adapter@D@__crt_stdio_output@@V?$format_validation_base@DV?$string_output_adapter@D@__crt_stdio_output@@@2@@__crt_stdio_output@@AAEX_K_N@Z 00429c04 f i libucrt:output.obj
 0001:00028cb0       ??$type_case_integer_parse_into_buffer@_K$0BA@@?$output_processor@DV?$string_output_adapter@D@__crt_stdio_output@@V?$positional_parameter_base@DV?$string_output_adapter@D@__crt_stdio_output@@@2@@__crt_stdio_output@@AAEX_K_N@Z 00429cb0 f i libucrt:output.obj
 0001:00028d5c       ??$type_case_integer_parse_into_buffer@_K$0BA@@?$output_processor@DV?$string_output_adapter@D@__crt_stdio_output@@V?$standard_base@DV?$string_output_adapter@D@__crt_stdio_output@@@2@@__crt_stdio_output@@AAEX_K_N@Z 00429d5c f i libucrt:output.obj
 0001:00028e08       ??$type_case_integer_parse_into_buffer@_K$0BA@@?$output_processor@_WV?$stream_output_adapter@_W@__crt_stdio_output@@V?$format_validation_base@_WV?$stream_output_adapter@_W@__crt_stdio_output@@@2@@__crt_stdio_output@@AAEX_K_N@Z 00429e08 f i libucrt:output.obj
 0001:00028ec3       ??$type_case_integer_parse_into_buffer@_K$0BA@@?$output_processor@_WV?$stream_output_adapter@_W@__crt_stdio_output@@V?$positional_parameter_base@_WV?$stream_output_adapter@_W@__crt_stdio_output@@@2@@__crt_stdio_output@@AAEX_K_N@Z 00429ec3 f i libucrt:output.obj
 0001:00028f7e       ??$type_case_integer_parse_into_buffer@_K$0BA@@?$output_processor@_WV?$stream_output_adapter@_W@__crt_stdio_output@@V?$standard_base@_WV?$stream_output_adapter@_W@__crt_stdio_output@@@2@@__crt_stdio_output@@AAEX_K_N@Z 00429f7e f i libucrt:output.obj
 0001:00029039       ??$type_case_integer_parse_into_buffer@_K$0BA@@?$output_processor@_WV?$string_output_adapter@_W@__crt_stdio_output@@V?$format_validation_base@_WV?$string_output_adapter@_W@__crt_stdio_output@@@2@@__crt_stdio_output@@AAEX_K_N@Z 0042a039 f i libucrt:output.obj
 0001:000290f4       ??$type_case_integer_parse_into_buffer@_K$0BA@@?$output_processor@_WV?$string_output_adapter@_W@__crt_stdio_output@@V?$positional_parameter_base@_WV?$string_output_adapter@_W@__crt_stdio_output@@@2@@__crt_stdio_output@@AAEX_K_N@Z 0042a0f4 f i libucrt:output.obj
 0001:000291af       ??$type_case_integer_parse_into_buffer@_K$0BA@@?$output_processor@_WV?$string_output_adapter@_W@__crt_stdio_output@@V?$standard_base@_WV?$string_output_adapter@_W@__crt_stdio_output@@@2@@__crt_stdio_output@@AAEX_K_N@Z 0042a1af f i libucrt:output.obj
 0001:0002926a       ??$write_multiple_characters@V?$stream_output_adapter@D@__crt_stdio_output@@D@__crt_stdio_output@@YAXABV?$stream_output_adapter@D@0@DHQAHAAV__crt_cached_ptd_host@@@Z 0042a26a f i libucrt:output.obj
 0001:000292a4       ??$write_multiple_characters@V?$stream_output_adapter@_W@__crt_stdio_output@@D@__crt_stdio_output@@YAXABV?$stream_output_adapter@_W@0@DHQAHAAV__crt_cached_ptd_host@@@Z 0042a2a4 f i libucrt:output.obj
 0001:000292e5       ??$write_multiple_characters@V?$string_output_adapter@D@__crt_stdio_output@@D@__crt_stdio_output@@YAXABV?$string_output_adapter@D@0@DHQAHAAV__crt_cached_ptd_host@@@Z 0042a2e5 f i libucrt:output.obj
 0001:00029360       ??$write_multiple_characters@V?$string_output_adapter@_W@__crt_stdio_output@@D@__crt_stdio_output@@YAXABV?$string_output_adapter@_W@0@DHQAHAAV__crt_cached_ptd_host@@@Z 0042a360 f i libucrt:output.obj
 0001:00029614       ??0?$c_string_character_source@D@__crt_strtox@@QAE@QBDQAPBD@Z 0042a614 f i libucrt:output.obj
 0001:00029637       ??0?$c_string_character_source@_W@__crt_strtox@@QAE@QB_WQAPB_W@Z 0042a637 f i libucrt:output.obj
 0001:0002965a       ??0?$common_data@D@__crt_stdio_output@@IAE@AAV__crt_cached_ptd_host@@@Z 0042a65a f i libucrt:output.obj
 0001:000296b2       ??0?$common_data@_W@__crt_stdio_output@@IAE@AAV__crt_cached_ptd_host@@@Z 0042a6b2 f i libucrt:output.obj
 0001:00029711       ??0?$output_adapter_data@DV?$stream_output_adapter@D@__crt_stdio_output@@@__crt_stdio_output@@IAE@ABV?$stream_output_adapter@D@1@_KQBDAAV__crt_cached_ptd_host@@QAD@Z 0042a711 f i libucrt:output.obj
 0001:00029791       ??0?$output_adapter_data@DV?$string_output_adapter@D@__crt_stdio_output@@@__crt_stdio_output@@IAE@ABV?$string_output_adapter@D@1@_KQBDAAV__crt_cached_ptd_host@@QAD@Z 0042a791 f i libucrt:output.obj
 0001:00029811       ??0?$output_adapter_data@_WV?$stream_output_adapter@_W@__crt_stdio_output@@@__crt_stdio_output@@IAE@ABV?$stream_output_adapter@_W@1@_KQB_WAAV__crt_cached_ptd_host@@QAD@Z 0042a811 f i libucrt:output.obj
 0001:00029898       ??0?$output_adapter_data@_WV?$string_output_adapter@_W@__crt_stdio_output@@@__crt_stdio_output@@IAE@ABV?$string_output_adapter@_W@1@_KQB_WAAV__crt_cached_ptd_host@@QAD@Z 0042a898 f i libucrt:output.obj
 0001:0002991f       ??0?$output_processor@DV?$stream_output_adapter@D@__crt_stdio_output@@V?$format_validation_base@DV?$stream_output_adapter@D@__crt_stdio_output@@@2@@__crt_stdio_output@@QAE@ABV?$stream_output_adapter@D@1@_KQBDAAV__crt_cached_ptd_host@@QAD@Z 0042a91f f i libucrt:output.obj
 0001:00029957       ??0?$output_processor@DV?$stream_output_adapter@D@__crt_stdio_output@@V?$positional_parameter_base@DV?$stream_output_adapter@D@__crt_stdio_output@@@2@@__crt_stdio_output@@QAE@ABV?$stream_output_adapter@D@1@_KQBDAAV__crt_cached_ptd_host@@QAD@Z 0042a957 f i libucrt:output.obj
 0001:00029986       ??0?$output_processor@DV?$stream_output_adapter@D@__crt_stdio_output@@V?$standard_base@DV?$stream_output_adapter@D@__crt_stdio_output@@@2@@__crt_stdio_output@@QAE@ABV?$stream_output_adapter@D@1@_KQBDAAV__crt_cached_ptd_host@@QAD@Z 0042a986 f i libucrt:output.obj
 0001:000299be       ??0?$output_processor@DV?$string_output_adapter@D@__crt_stdio_output@@V?$format_validation_base@DV?$string_output_adapter@D@__crt_stdio_output@@@2@@__crt_stdio_output@@QAE@ABV?$string_output_adapter@D@1@_KQBDAAV__crt_cached_ptd_host@@QAD@Z 0042a9be f i libucrt:output.obj
 0001:000299f6       ??0?$output_processor@DV?$string_output_adapter@D@__crt_stdio_output@@V?$positional_parameter_base@DV?$string_output_adapter@D@__crt_stdio_output@@@2@@__crt_stdio_output@@QAE@ABV?$string_output_adapter@D@1@_KQBDAAV__crt_cached_ptd_host@@QAD@Z 0042a9f6 f i libucrt:output.obj
 0001:00029a25       ??0?$output_processor@DV?$string_output_adapter@D@__crt_stdio_output@@V?$standard_base@DV?$string_output_adapter@D@__crt_stdio_output@@@2@@__crt_stdio_output@@QAE@ABV?$string_output_adapter@D@1@_KQBDAAV__crt_cached_ptd_host@@QAD@Z 0042aa25 f i libucrt:output.obj
 0001:00029a5d       ??0?$output_processor@_WV?$stream_output_adapter@_W@__crt_stdio_output@@V?$format_validation_base@_WV?$stream_output_adapter@_W@__crt_stdio_output@@@2@@__crt_stdio_output@@QAE@ABV?$stream_output_adapter@_W@1@_KQB_WAAV__crt_cached_ptd_host@@QAD@Z 0042aa5d f i libucrt:output.obj
 0001:00029a95       ??0?$output_processor@_WV?$stream_output_adapter@_W@__crt_stdio_output@@V?$positional_parameter_base@_WV?$stream_output_adapter@_W@__crt_stdio_output@@@2@@__crt_stdio_output@@QAE@ABV?$stream_output_adapter@_W@1@_KQB_WAAV__crt_cached_ptd_host@@QAD@Z 0042aa95 f i libucrt:output.obj
 0001:00029ac4       ??0?$output_processor@_WV?$stream_output_adapter@_W@__crt_stdio_output@@V?$standard_base@_WV?$stream_output_adapter@_W@__crt_stdio_output@@@2@@__crt_stdio_output@@QAE@ABV?$stream_output_adapter@_W@1@_KQB_WAAV__crt_cached_ptd_host@@QAD@Z 0042aac4 f i libucrt:output.obj
 0001:00029afc       ??0?$output_processor@_WV?$string_output_adapter@_W@__crt_stdio_output@@V?$format_validation_base@_WV?$string_output_adapter@_W@__crt_stdio_output@@@2@@__crt_stdio_output@@QAE@ABV?$string_output_adapter@_W@1@_KQB_WAAV__crt_cached_ptd_host@@QAD@Z 0042aafc f i libucrt:output.obj
 0001:00029b34       ??0?$output_processor@_WV?$string_output_adapter@_W@__crt_stdio_output@@V?$positional_parameter_base@_WV?$string_output_adapter@_W@__crt_stdio_output@@@2@@__crt_stdio_output@@QAE@ABV?$string_output_adapter@_W@1@_KQB_WAAV__crt_cached_ptd_host@@QAD@Z 0042ab34 f i libucrt:output.obj
 0001:00029b63       ??0?$output_processor@_WV?$string_output_adapter@_W@__crt_stdio_output@@V?$standard_base@_WV?$string_output_adapter@_W@__crt_stdio_output@@@2@@__crt_stdio_output@@QAE@ABV?$string_output_adapter@_W@1@_KQB_WAAV__crt_cached_ptd_host@@QAD@Z 0042ab63 f i libucrt:output.obj
 0001:00029b9b       ??0?$stream_output_adapter@D@__crt_stdio_output@@QAE@QAU_iobuf@@@Z 0042ab9b f i libucrt:output.obj
 0001:00029baf       ??0?$stream_output_adapter@_W@__crt_stdio_output@@QAE@QAU_iobuf@@@Z 0042abaf f i libucrt:output.obj
 0001:00029bc3       ??0?$string_output_adapter@D@__crt_stdio_output@@QAE@QAU?$string_output_adapter_context@D@1@@Z 0042abc3 f i libucrt:output.obj
 0001:00029bd7       ??0?$string_output_adapter@_W@__crt_stdio_output@@QAE@QAU?$string_output_adapter_context@_W@1@@Z 0042abd7 f i libucrt:output.obj
 0001:00029beb       ??0__acrt_stdio_temporary_buffering_guard@@QAE@QAU_iobuf@@AAV__crt_cached_ptd_host@@@Z 0042abeb f i libucrt:output.obj
 0001:00029c18       ??0formatting_buffer@__crt_stdio_output@@QAE@XZ 0042ac18 f i libucrt:output.obj
 0001:00029c2d       ??0guard@?$cached@H@__crt_cached_ptd_host@@QAE@AAU12@@Z 0042ac2d f i libucrt:output.obj
 0001:00029c53       ??1?$c_string_character_source@D@__crt_strtox@@QAE@XZ 0042ac53 f i libucrt:output.obj
 0001:00029c62       ??1?$c_string_character_source@_W@__crt_strtox@@QAE@XZ 0042ac62 f i libucrt:output.obj
 0001:00029c71       ??1?$common_data@D@__crt_stdio_output@@QAE@XZ 0042ac71 f i libucrt:output.obj
 0001:00029c7b       ??1?$common_data@_W@__crt_stdio_output@@QAE@XZ 0042ac7b f i libucrt:output.obj
 0001:00029c85       ??1?$format_validation_base@DV?$stream_output_adapter@D@__crt_stdio_output@@@__crt_stdio_output@@QAE@XZ 0042ac85 f i libucrt:output.obj
 0001:00029c8f       ??1?$format_validation_base@DV?$string_output_adapter@D@__crt_stdio_output@@@__crt_stdio_output@@QAE@XZ 0042ac8f f i libucrt:output.obj
 0001:00029c99       ??1?$format_validation_base@_WV?$stream_output_adapter@_W@__crt_stdio_output@@@__crt_stdio_output@@QAE@XZ 0042ac99 f i libucrt:output.obj
 0001:00029ca3       ??1?$format_validation_base@_WV?$string_output_adapter@_W@__crt_stdio_output@@@__crt_stdio_output@@QAE@XZ 0042aca3 f i libucrt:output.obj
 0001:00029cad       ??1?$output_adapter_data@DV?$stream_output_adapter@D@__crt_stdio_output@@@__crt_stdio_output@@QAE@XZ 0042acad f i libucrt:output.obj
 0001:00029cb7       ??1?$output_adapter_data@DV?$string_output_adapter@D@__crt_stdio_output@@@__crt_stdio_output@@QAE@XZ 0042acb7 f i libucrt:output.obj
 0001:00029cc1       ??1?$output_adapter_data@_WV?$stream_output_adapter@_W@__crt_stdio_output@@@__crt_stdio_output@@QAE@XZ 0042acc1 f i libucrt:output.obj
 0001:00029ccb       ??1?$output_adapter_data@_WV?$string_output_adapter@_W@__crt_stdio_output@@@__crt_stdio_output@@QAE@XZ 0042accb f i libucrt:output.obj
 0001:00029cd5       ??1?$output_processor@DV?$stream_output_adapter@D@__crt_stdio_output@@V?$format_validation_base@DV?$stream_output_adapter@D@__crt_stdio_output@@@2@@__crt_stdio_output@@QAE@XZ 0042acd5 f i libucrt:output.obj
 0001:00029cdf       ??1?$output_processor@DV?$stream_output_adapter@D@__crt_stdio_output@@V?$positional_parameter_base@DV?$stream_output_adapter@D@__crt_stdio_output@@@2@@__crt_stdio_output@@QAE@XZ 0042acdf f i libucrt:output.obj
 0001:00029ce9       ??1?$output_processor@DV?$stream_output_adapter@D@__crt_stdio_output@@V?$standard_base@DV?$stream_output_adapter@D@__crt_stdio_output@@@2@@__crt_stdio_output@@QAE@XZ 0042ace9 f i libucrt:output.obj
 0001:00029cf3       ??1?$output_processor@DV?$string_output_adapter@D@__crt_stdio_output@@V?$format_validation_base@DV?$string_output_adapter@D@__crt_stdio_output@@@2@@__crt_stdio_output@@QAE@XZ 0042acf3 f i libucrt:output.obj
 0001:00029cfd       ??1?$output_processor@DV?$string_output_adapter@D@__crt_stdio_output@@V?$positional_parameter_base@DV?$string_output_adapter@D@__crt_stdio_output@@@2@@__crt_stdio_output@@QAE@XZ 0042acfd f i libucrt:output.obj
 0001:00029d07       ??1?$output_processor@DV?$string_output_adapter@D@__crt_stdio_output@@V?$standard_base@DV?$string_output_adapter@D@__crt_stdio_output@@@2@@__crt_stdio_output@@QAE@XZ 0042ad07 f i libucrt:output.obj
 0001:00029d11       ??1?$output_processor@_WV?$stream_output_adapter@_W@__crt_stdio_output@@V?$format_validation_base@_WV?$stream_output_adapter@_W@__crt_stdio_output@@@2@@__crt_stdio_output@@QAE@XZ 0042ad11 f i libucrt:output.obj
 0001:00029d1b       ??1?$output_processor@_WV?$stream_output_adapter@_W@__crt_stdio_output@@V?$positional_parameter_base@_WV?$stream_output_adapter@_W@__crt_stdio_output@@@2@@__crt_stdio_output@@QAE@XZ 0042ad1b f i libucrt:output.obj
 0001:00029d25       ??1?$output_processor@_WV?$stream_output_adapter@_W@__crt_stdio_output@@V?$standard_base@_WV?$stream_output_adapter@_W@__crt_stdio_output@@@2@@__crt_stdio_output@@QAE@XZ 0042ad25 f i libucrt:output.obj
 0001:00029d2f       ??1?$output_processor@_WV?$string_output_adapter@_W@__crt_stdio_output@@V?$format_validation_base@_WV?$string_output_adapter@_W@__crt_stdio_output@@@2@@__crt_stdio_output@@QAE@XZ 0042ad2f f i libucrt:output.obj
 0001:00029d39       ??1?$output_processor@_WV?$string_output_adapter@_W@__crt_stdio_output@@V?$positional_parameter_base@_WV?$string_output_adapter@_W@__crt_stdio_output@@@2@@__crt_stdio_output@@QAE@XZ 0042ad39 f i libucrt:output.obj
 0001:00029d43       ??1?$output_processor@_WV?$string_output_adapter@_W@__crt_stdio_output@@V?$standard_base@_WV?$string_output_adapter@_W@__crt_stdio_output@@@2@@__crt_stdio_output@@QAE@XZ 0042ad43 f i libucrt:output.obj
 0001:00029d4d       ??1?$positional_parameter_base@DV?$stream_output_adapter@D@__crt_stdio_output@@@__crt_stdio_output@@QAE@XZ 0042ad4d f i libucrt:output.obj
 0001:00029d57       ??1?$positional_parameter_base@DV?$string_output_adapter@D@__crt_stdio_output@@@__crt_stdio_output@@QAE@XZ 0042ad57 f i libucrt:output.obj
 0001:00029d61       ??1?$positional_parameter_base@_WV?$stream_output_adapter@_W@__crt_stdio_output@@@__crt_stdio_output@@QAE@XZ 0042ad61 f i libucrt:output.obj
 0001:00029d6b       ??1?$positional_parameter_base@_WV?$string_output_adapter@_W@__crt_stdio_output@@@__crt_stdio_output@@QAE@XZ 0042ad6b f i libucrt:output.obj
 0001:00029d75       ??1?$standard_base@DV?$stream_output_adapter@D@__crt_stdio_output@@@__crt_stdio_output@@QAE@XZ 0042ad75 f i libucrt:output.obj
 0001:00029d7f       ??1?$standard_base@DV?$string_output_adapter@D@__crt_stdio_output@@@__crt_stdio_output@@QAE@XZ 0042ad7f f i libucrt:output.obj
 0001:00029d89       ??1?$standard_base@_WV?$stream_output_adapter@_W@__crt_stdio_output@@@__crt_stdio_output@@QAE@XZ 0042ad89 f i libucrt:output.obj
 0001:00029d93       ??1?$standard_base@_WV?$string_output_adapter@_W@__crt_stdio_output@@@__crt_stdio_output@@QAE@XZ 0042ad93 f i libucrt:output.obj
 0001:00029d9d       ??1__acrt_stdio_temporary_buffering_guard@@QAE@XZ 0042ad9d f i libucrt:output.obj
 0001:00029db4       ??1formatting_buffer@__crt_stdio_output@@QAE@XZ 0042adb4 f i libucrt:output.obj
 0001:00029dd4       ??1guard@?$cached@H@__crt_cached_ptd_host@@QAE@XZ 0042add4 f i libucrt:output.obj
 0001:00029def       ??4?$__crt_unique_heap_ptr@DU__crt_internal_free_policy@@@@QAEAAV0@$$QAV0@@Z 0042adef f i libucrt:output.obj
 0001:00029e1c       ??A?$spectre_mitigated_lookup_table@Ustate_transition_pair@__crt_stdio_output@@$0IA@@__crt_stdio_output@@QBEABUstate_transition_pair@1@I@Z 0042ae1c f i libucrt:output.obj
 0001:0002a3ae       ?adjust_hexit@?$output_processor@DV?$stream_output_adapter@D@__crt_stdio_output@@V?$format_validation_base@DV?$stream_output_adapter@D@__crt_stdio_output@@@2@@__crt_stdio_output@@CADH_N@Z 0042b3ae f i libucrt:output.obj
 0001:0002a3c7       ?adjust_hexit@?$output_processor@DV?$stream_output_adapter@D@__crt_stdio_output@@V?$positional_parameter_base@DV?$stream_output_adapter@D@__crt_stdio_output@@@2@@__crt_stdio_output@@CADH_N@Z 0042b3c7 f i libucrt:output.obj
 0001:0002a3e0       ?adjust_hexit@?$output_processor@DV?$stream_output_adapter@D@__crt_stdio_output@@V?$standard_base@DV?$stream_output_adapter@D@__crt_stdio_output@@@2@@__crt_stdio_output@@CADH_N@Z 0042b3e0 f i libucrt:output.obj
 0001:0002a3f9       ?adjust_hexit@?$output_processor@DV?$string_output_adapter@D@__crt_stdio_output@@V?$format_validation_base@DV?$string_output_adapter@D@__crt_stdio_output@@@2@@__crt_stdio_output@@CADH_N@Z 0042b3f9 f i libucrt:output.obj
 0001:0002a412       ?adjust_hexit@?$output_processor@DV?$string_output_adapter@D@__crt_stdio_output@@V?$positional_parameter_base@DV?$string_output_adapter@D@__crt_stdio_output@@@2@@__crt_stdio_output@@CADH_N@Z 0042b412 f i libucrt:output.obj
 0001:0002a42b       ?adjust_hexit@?$output_processor@DV?$string_output_adapter@D@__crt_stdio_output@@V?$standard_base@DV?$string_output_adapter@D@__crt_stdio_output@@@2@@__crt_stdio_output@@CADH_N@Z 0042b42b f i libucrt:output.obj
 0001:0002a444       ?adjust_hexit@?$output_processor@_WV?$stream_output_adapter@_W@__crt_stdio_output@@V?$format_validation_base@_WV?$stream_output_adapter@_W@__crt_stdio_output@@@2@@__crt_stdio_output@@CADH_N@Z 0042b444 f i libucrt:output.obj
 0001:0002a45d       ?adjust_hexit@?$output_processor@_WV?$stream_output_adapter@_W@__crt_stdio_output@@V?$positional_parameter_base@_WV?$stream_output_adapter@_W@__crt_stdio_output@@@2@@__crt_stdio_output@@CADH_N@Z 0042b45d f i libucrt:output.obj
 0001:0002a476       ?adjust_hexit@?$output_processor@_WV?$stream_output_adapter@_W@__crt_stdio_output@@V?$standard_base@_WV?$stream_output_adapter@_W@__crt_stdio_output@@@2@@__crt_stdio_output@@CADH_N@Z 0042b476 f i libucrt:output.obj
 0001:0002a48f       ?adjust_hexit@?$output_processor@_WV?$string_output_adapter@_W@__crt_stdio_output@@V?$format_validation_base@_WV?$string_output_adapter@_W@__crt_stdio_output@@@2@@__crt_stdio_output@@CADH_N@Z 0042b48f f i libucrt:output.obj
 0001:0002a4a8       ?adjust_hexit@?$output_processor@_WV?$string_output_adapter@_W@__crt_stdio_output@@V?$positional_parameter_base@_WV?$string_output_adapter@_W@__crt_stdio_output@@@2@@__crt_stdio_output@@CADH_N@Z 0042b4a8 f i libucrt:output.obj
 0001:0002a4c1       ?adjust_hexit@?$output_processor@_WV?$string_output_adapter@_W@__crt_stdio_output@@V?$standard_base@_WV?$string_output_adapter@_W@__crt_stdio_output@@@2@@__crt_stdio_output@@CADH_N@Z 0042b4c1 f i libucrt:output.obj
 0001:0002a4da       ?advance_to_next_pass@?$positional_parameter_base@DV?$stream_output_adapter@D@__crt_stdio_output@@@__crt_stdio_output@@IAE_NXZ 0042b4da f i libucrt:output.obj
 0001:0002a53b       ?advance_to_next_pass@?$positional_parameter_base@DV?$string_output_adapter@D@__crt_stdio_output@@@__crt_stdio_output@@IAE_NXZ 0042b53b f i libucrt:output.obj
 0001:0002a59c       ?advance_to_next_pass@?$positional_parameter_base@_WV?$stream_output_adapter@_W@__crt_stdio_output@@@__crt_stdio_output@@IAE_NXZ 0042b59c f i libucrt:output.obj
 0001:0002a5fd       ?advance_to_next_pass@?$positional_parameter_base@_WV?$string_output_adapter@_W@__crt_stdio_output@@@__crt_stdio_output@@IAE_NXZ 0042b5fd f i libucrt:output.obj
 0001:0002a65e       ?advance_to_next_pass@?$standard_base@DV?$stream_output_adapter@D@__crt_stdio_output@@@__crt_stdio_output@@IAE_NXZ 0042b65e f i libucrt:output.obj
 0001:0002a673       ?advance_to_next_pass@?$standard_base@DV?$string_output_adapter@D@__crt_stdio_output@@@__crt_stdio_output@@IAE_NXZ 0042b673 f i libucrt:output.obj
 0001:0002a688       ?advance_to_next_pass@?$standard_base@_WV?$stream_output_adapter@_W@__crt_stdio_output@@@__crt_stdio_output@@IAE_NXZ 0042b688 f i libucrt:output.obj
 0001:0002a69d       ?advance_to_next_pass@?$standard_base@_WV?$string_output_adapter@_W@__crt_stdio_output@@@__crt_stdio_output@@IAE_NXZ 0042b69d f i libucrt:output.obj
 0001:0002a6b2       ?check@?$cached@H@__crt_cached_ptd_host@@QBE_NH@Z 0042b6b2 f i libucrt:output.obj
 0001:0002a6d5       ?create_guard@?$cached@H@__crt_cached_ptd_host@@QAE?AVguard@12@XZ 0042b6d5 f i libucrt:output.obj
 0001:0002a6f9       ?crop_zeroes@__crt_stdio_output@@YAXPADQAU__crt_locale_pointers@@@Z 0042b6f9 f i libucrt:output.obj
 0001:0002a771       ?disable@guard@?$cached@H@__crt_cached_ptd_host@@QAEXXZ 0042b771 f i libucrt:output.obj
 0001:0002a776       ?enable@guard@?$cached@H@__crt_cached_ptd_host@@QAEXXZ 0042b776 f i libucrt:output.obj
 0001:0002a77b       ?find_next_state@?$output_processor@DV?$stream_output_adapter@D@__crt_stdio_output@@V?$format_validation_base@DV?$stream_output_adapter@D@__crt_stdio_output@@@2@@__crt_stdio_output@@ABE?AW4state@2@DW432@@Z 0042b77b f i libucrt:output.obj
 0001:0002a7c7       ?find_next_state@?$output_processor@DV?$stream_output_adapter@D@__crt_stdio_output@@V?$positional_parameter_base@DV?$stream_output_adapter@D@__crt_stdio_output@@@2@@__crt_stdio_output@@ABE?AW4state@2@DW432@@Z 0042b7c7 f i libucrt:output.obj
 0001:0002a813       ?find_next_state@?$output_processor@DV?$stream_output_adapter@D@__crt_stdio_output@@V?$standard_base@DV?$stream_output_adapter@D@__crt_stdio_output@@@2@@__crt_stdio_output@@ABE?AW4state@2@DW432@@Z 0042b813 f i libucrt:output.obj
 0001:0002a85c       ?find_next_state@?$output_processor@DV?$string_output_adapter@D@__crt_stdio_output@@V?$format_validation_base@DV?$string_output_adapter@D@__crt_stdio_output@@@2@@__crt_stdio_output@@ABE?AW4state@2@DW432@@Z 0042b85c f i libucrt:output.obj
 0001:0002a8a8       ?find_next_state@?$output_processor@DV?$string_output_adapter@D@__crt_stdio_output@@V?$positional_parameter_base@DV?$string_output_adapter@D@__crt_stdio_output@@@2@@__crt_stdio_output@@ABE?AW4state@2@DW432@@Z 0042b8a8 f i libucrt:output.obj
 0001:0002a8f4       ?find_next_state@?$output_processor@DV?$string_output_adapter@D@__crt_stdio_output@@V?$standard_base@DV?$string_output_adapter@D@__crt_stdio_output@@@2@@__crt_stdio_output@@ABE?AW4state@2@DW432@@Z 0042b8f4 f i libucrt:output.obj
 0001:0002a93d       ?find_next_state@?$output_processor@_WV?$stream_output_adapter@_W@__crt_stdio_output@@V?$format_validation_base@_WV?$stream_output_adapter@_W@__crt_stdio_output@@@2@@__crt_stdio_output@@ABE?AW4state@2@_WW432@@Z 0042b93d f i libucrt:output.obj
 0001:0002a988       ?find_next_state@?$output_processor@_WV?$stream_output_adapter@_W@__crt_stdio_output@@V?$positional_parameter_base@_WV?$stream_output_adapter@_W@__crt_stdio_output@@@2@@__crt_stdio_output@@ABE?AW4state@2@_WW432@@Z 0042b988 f i libucrt:output.obj
 0001:0002a9d3       ?find_next_state@?$output_processor@_WV?$stream_output_adapter@_W@__crt_stdio_output@@V?$standard_base@_WV?$stream_output_adapter@_W@__crt_stdio_output@@@2@@__crt_stdio_output@@ABE?AW4state@2@_WW432@@Z 0042b9d3 f i libucrt:output.obj
 0001:0002aa1b       ?find_next_state@?$output_processor@_WV?$string_output_adapter@_W@__crt_stdio_output@@V?$format_validation_base@_WV?$string_output_adapter@_W@__crt_stdio_output@@@2@@__crt_stdio_output@@ABE?AW4state@2@_WW432@@Z 0042ba1b f i libucrt:output.obj
 0001:0002aa66       ?find_next_state@?$output_processor@_WV?$string_output_adapter@_W@__crt_stdio_output@@V?$positional_parameter_base@_WV?$string_output_adapter@_W@__crt_stdio_output@@@2@@__crt_stdio_output@@ABE?AW4state@2@_WW432@@Z 0042ba66 f i libucrt:output.obj
 0001:0002aab1       ?find_next_state@?$output_processor@_WV?$string_output_adapter@_W@__crt_stdio_output@@V?$standard_base@_WV?$string_output_adapter@_W@__crt_stdio_output@@@2@@__crt_stdio_output@@ABE?AW4state@2@_WW432@@Z 0042bab1 f i libucrt:output.obj
 0001:0002aaf9       ?force_decimal_point@__crt_stdio_output@@YAXPADQAU__crt_locale_pointers@@@Z 0042baf9 f i libucrt:output.obj
 0001:0002ab6c       ?get@?$c_string_character_source@D@__crt_strtox@@QAEDXZ 0042bb6c f i libucrt:output.obj
 0001:0002ab76       ?get@?$c_string_character_source@_W@__crt_strtox@@QAE_WXZ 0042bb76 f i libucrt:output.obj
 0001:0002ab90       ?get_locale@__crt_cached_ptd_host@@QAEPAU__crt_locale_pointers@@XZ 0042bb90 f i libucrt:output.obj
 0001:0002abaa       ?get_parameter_type@?$positional_parameter_base@DV?$stream_output_adapter@D@__crt_stdio_output@@@__crt_stdio_output@@CA?AW4parameter_type@12@F@Z 0042bbaa f i libucrt:output.obj
 0001:0002abae       ?get_parameter_type@?$positional_parameter_base@DV?$stream_output_adapter@D@__crt_stdio_output@@@__crt_stdio_output@@CA?AW4parameter_type@12@G@Z 0042bbae f i libucrt:output.obj
 0001:0002abb2       ?get_parameter_type@?$positional_parameter_base@DV?$stream_output_adapter@D@__crt_stdio_output@@@__crt_stdio_output@@CA?AW4parameter_type@12@H@Z 0042bbb2 f i libucrt:output.obj
 0001:0002abb6       ?get_parameter_type@?$positional_parameter_base@DV?$stream_output_adapter@D@__crt_stdio_output@@@__crt_stdio_output@@CA?AW4parameter_type@12@I@Z 0042bbb6 f i libucrt:output.obj
 0001:0002abba       ?get_parameter_type@?$positional_parameter_base@DV?$stream_output_adapter@D@__crt_stdio_output@@@__crt_stdio_output@@CA?AW4parameter_type@12@U_CRT_DOUBLE@@@Z 0042bbba f i libucrt:output.obj
 0001:0002abbe       ?get_parameter_type@?$positional_parameter_base@DV?$stream_output_adapter@D@__crt_stdio_output@@@__crt_stdio_output@@CA?AW4parameter_type@12@_J@Z 0042bbbe f i libucrt:output.obj
 0001:0002abc2       ?get_parameter_type@?$positional_parameter_base@DV?$stream_output_adapter@D@__crt_stdio_output@@@__crt_stdio_output@@CA?AW4parameter_type@12@_K@Z 0042bbc2 f i libucrt:output.obj
 0001:0002abc6       ?get_parameter_type@?$positional_parameter_base@DV?$stream_output_adapter@D@__crt_stdio_output@@@__crt_stdio_output@@CA?AW4parameter_type@12@_W@Z 0042bbc6 f i libucrt:output.obj
 0001:0002abca       ?get_parameter_type@?$positional_parameter_base@DV?$string_output_adapter@D@__crt_stdio_output@@@__crt_stdio_output@@CA?AW4parameter_type@12@F@Z 0042bbca f i libucrt:output.obj
 0001:0002abce       ?get_parameter_type@?$positional_parameter_base@DV?$string_output_adapter@D@__crt_stdio_output@@@__crt_stdio_output@@CA?AW4parameter_type@12@G@Z 0042bbce f i libucrt:output.obj
 0001:0002abd2       ?get_parameter_type@?$positional_parameter_base@DV?$string_output_adapter@D@__crt_stdio_output@@@__crt_stdio_output@@CA?AW4parameter_type@12@H@Z 0042bbd2 f i libucrt:output.obj
 0001:0002abd6       ?get_parameter_type@?$positional_parameter_base@DV?$string_output_adapter@D@__crt_stdio_output@@@__crt_stdio_output@@CA?AW4parameter_type@12@I@Z 0042bbd6 f i libucrt:output.obj
 0001:0002abda       ?get_parameter_type@?$positional_parameter_base@DV?$string_output_adapter@D@__crt_stdio_output@@@__crt_stdio_output@@CA?AW4parameter_type@12@U_CRT_DOUBLE@@@Z 0042bbda f i libucrt:output.obj
 0001:0002abde       ?get_parameter_type@?$positional_parameter_base@DV?$string_output_adapter@D@__crt_stdio_output@@@__crt_stdio_output@@CA?AW4parameter_type@12@_J@Z 0042bbde f i libucrt:output.obj
 0001:0002abe2       ?get_parameter_type@?$positional_parameter_base@DV?$string_output_adapter@D@__crt_stdio_output@@@__crt_stdio_output@@CA?AW4parameter_type@12@_K@Z 0042bbe2 f i libucrt:output.obj
 0001:0002abe6       ?get_parameter_type@?$positional_parameter_base@DV?$string_output_adapter@D@__crt_stdio_output@@@__crt_stdio_output@@CA?AW4parameter_type@12@_W@Z 0042bbe6 f i libucrt:output.obj
 0001:0002abea       ?get_parameter_type@?$positional_parameter_base@_WV?$stream_output_adapter@_W@__crt_stdio_output@@@__crt_stdio_output@@CA?AW4parameter_type@12@F@Z 0042bbea f i libucrt:output.obj
 0001:0002abee       ?get_parameter_type@?$positional_parameter_base@_WV?$stream_output_adapter@_W@__crt_stdio_output@@@__crt_stdio_output@@CA?AW4parameter_type@12@G@Z 0042bbee f i libucrt:output.obj
 0001:0002abf2       ?get_parameter_type@?$positional_parameter_base@_WV?$stream_output_adapter@_W@__crt_stdio_output@@@__crt_stdio_output@@CA?AW4parameter_type@12@H@Z 0042bbf2 f i libucrt:output.obj
 0001:0002abf6       ?get_parameter_type@?$positional_parameter_base@_WV?$stream_output_adapter@_W@__crt_stdio_output@@@__crt_stdio_output@@CA?AW4parameter_type@12@I@Z 0042bbf6 f i libucrt:output.obj
 0001:0002abfa       ?get_parameter_type@?$positional_parameter_base@_WV?$stream_output_adapter@_W@__crt_stdio_output@@@__crt_stdio_output@@CA?AW4parameter_type@12@U_CRT_DOUBLE@@@Z 0042bbfa f i libucrt:output.obj
 0001:0002abfe       ?get_parameter_type@?$positional_parameter_base@_WV?$stream_output_adapter@_W@__crt_stdio_output@@@__crt_stdio_output@@CA?AW4parameter_type@12@_J@Z 0042bbfe f i libucrt:output.obj
 0001:0002ac02       ?get_parameter_type@?$positional_parameter_base@_WV?$stream_output_adapter@_W@__crt_stdio_output@@@__crt_stdio_output@@CA?AW4parameter_type@12@_K@Z 0042bc02 f i libucrt:output.obj
 0001:0002ac06       ?get_parameter_type@?$positional_parameter_base@_WV?$stream_output_adapter@_W@__crt_stdio_output@@@__crt_stdio_output@@CA?AW4parameter_type@12@_W@Z 0042bc06 f i libucrt:output.obj
 0001:0002ac0a       ?get_parameter_type@?$positional_parameter_base@_WV?$string_output_adapter@_W@__crt_stdio_output@@@__crt_stdio_output@@CA?AW4parameter_type@12@F@Z 0042bc0a f i libucrt:output.obj
 0001:0002ac0e       ?get_parameter_type@?$positional_parameter_base@_WV?$string_output_adapter@_W@__crt_stdio_output@@@__crt_stdio_output@@CA?AW4parameter_type@12@G@Z 0042bc0e f i libucrt:output.obj
 0001:0002ac12       ?get_parameter_type@?$positional_parameter_base@_WV?$string_output_adapter@_W@__crt_stdio_output@@@__crt_stdio_output@@CA?AW4parameter_type@12@H@Z 0042bc12 f i libucrt:output.obj
 0001:0002ac16       ?get_parameter_type@?$positional_parameter_base@_WV?$string_output_adapter@_W@__crt_stdio_output@@@__crt_stdio_output@@CA?AW4parameter_type@12@I@Z 0042bc16 f i libucrt:output.obj
 0001:0002ac1a       ?get_parameter_type@?$positional_parameter_base@_WV?$string_output_adapter@_W@__crt_stdio_output@@@__crt_stdio_output@@CA?AW4parameter_type@12@U_CRT_DOUBLE@@@Z 0042bc1a f i libucrt:output.obj
 0001:0002ac1e       ?get_parameter_type@?$positional_parameter_base@_WV?$string_output_adapter@_W@__crt_stdio_output@@@__crt_stdio_output@@CA?AW4parameter_type@12@_J@Z 0042bc1e f i libucrt:output.obj
 0001:0002ac22       ?get_parameter_type@?$positional_parameter_base@_WV?$string_output_adapter@_W@__crt_stdio_output@@@__crt_stdio_output@@CA?AW4parameter_type@12@_K@Z 0042bc22 f i libucrt:output.obj
 0001:0002ac26       ?get_parameter_type@?$positional_parameter_base@_WV?$string_output_adapter@_W@__crt_stdio_output@@@__crt_stdio_output@@CA?AW4parameter_type@12@_W@Z 0042bc26 f i libucrt:output.obj
 0001:0002ac2a       ?has_flag@?$output_processor@DV?$stream_output_adapter@D@__crt_stdio_output@@V?$format_validation_base@DV?$stream_output_adapter@D@__crt_stdio_output@@@2@@__crt_stdio_output@@ABE_NI@Z 0042bc2a f i libucrt:output.obj
 0001:0002ac40       ?has_flag@?$output_processor@DV?$stream_output_adapter@D@__crt_stdio_output@@V?$positional_parameter_base@DV?$stream_output_adapter@D@__crt_stdio_output@@@2@@__crt_stdio_output@@ABE_NI@Z 0042bc40 f i libucrt:output.obj
 0001:0002ac56       ?has_flag@?$output_processor@DV?$stream_output_adapter@D@__crt_stdio_output@@V?$standard_base@DV?$stream_output_adapter@D@__crt_stdio_output@@@2@@__crt_stdio_output@@ABE_NI@Z 0042bc56 f i libucrt:output.obj
 0001:0002ac6c       ?has_flag@?$output_processor@DV?$string_output_adapter@D@__crt_stdio_output@@V?$format_validation_base@DV?$string_output_adapter@D@__crt_stdio_output@@@2@@__crt_stdio_output@@ABE_NI@Z 0042bc6c f i libucrt:output.obj
 0001:0002ac82       ?has_flag@?$output_processor@DV?$string_output_adapter@D@__crt_stdio_output@@V?$positional_parameter_base@DV?$string_output_adapter@D@__crt_stdio_output@@@2@@__crt_stdio_output@@ABE_NI@Z 0042bc82 f i libucrt:output.obj
 0001:0002ac98       ?has_flag@?$output_processor@DV?$string_output_adapter@D@__crt_stdio_output@@V?$standard_base@DV?$string_output_adapter@D@__crt_stdio_output@@@2@@__crt_stdio_output@@ABE_NI@Z 0042bc98 f i libucrt:output.obj
 0001:0002acae       ?has_flag@?$output_processor@_WV?$stream_output_adapter@_W@__crt_stdio_output@@V?$format_validation_base@_WV?$stream_output_adapter@_W@__crt_stdio_output@@@2@@__crt_stdio_output@@ABE_NI@Z 0042bcae f i libucrt:output.obj
 0001:0002acc4       ?has_flag@?$output_processor@_WV?$stream_output_adapter@_W@__crt_stdio_output@@V?$positional_parameter_base@_WV?$stream_output_adapter@_W@__crt_stdio_output@@@2@@__crt_stdio_output@@ABE_NI@Z 0042bcc4 f i libucrt:output.obj
 0001:0002acda       ?has_flag@?$output_processor@_WV?$stream_output_adapter@_W@__crt_stdio_output@@V?$standard_base@_WV?$stream_output_adapter@_W@__crt_stdio_output@@@2@@__crt_stdio_output@@ABE_NI@Z 0042bcda f i libucrt:output.obj
 0001:0002acf0       ?has_flag@?$output_processor@_WV?$string_output_adapter@_W@__crt_stdio_output@@V?$format_validation_base@_WV?$string_output_adapter@_W@__crt_stdio_output@@@2@@__crt_stdio_output@@ABE_NI@Z 0042bcf0 f i libucrt:output.obj
 0001:0002ad06       ?has_flag@?$output_processor@_WV?$string_output_adapter@_W@__crt_stdio_output@@V?$positional_parameter_base@_WV?$string_output_adapter@_W@__crt_stdio_output@@@2@@__crt_stdio_output@@ABE_NI@Z 0042bd06 f i libucrt:output.obj
 0001:0002ad1c       ?has_flag@?$output_processor@_WV?$string_output_adapter@_W@__crt_stdio_output@@V?$standard_base@_WV?$string_output_adapter@_W@__crt_stdio_output@@@2@@__crt_stdio_output@@ABE_NI@Z 0042bd1c f i libucrt:output.obj
 0001:0002ad32       ?is_positional_parameter_reappearance_consistent@?$positional_parameter_base@DV?$stream_output_adapter@D@__crt_stdio_output@@@__crt_stdio_output@@AAE_NABUparameter_data@12@W4parameter_type@12@DW4length_modifier@2@@Z 0042bd32 f i libucrt:output.obj
 0001:0002ae92       ?is_positional_parameter_reappearance_consistent@?$positional_parameter_base@DV?$string_output_adapter@D@__crt_stdio_output@@@__crt_stdio_output@@AAE_NABUparameter_data@12@W4parameter_type@12@DW4length_modifier@2@@Z 0042be92 f i libucrt:output.obj
 0001:0002aff2       ?is_positional_parameter_reappearance_consistent@?$positional_parameter_base@_WV?$stream_output_adapter@_W@__crt_stdio_output@@@__crt_stdio_output@@AAE_NABUparameter_data@12@W4parameter_type@12@_WW4length_modifier@2@@Z 0042bff2 f i libucrt:output.obj
 0001:0002b153       ?is_positional_parameter_reappearance_consistent@?$positional_parameter_base@_WV?$string_output_adapter@_W@__crt_stdio_output@@@__crt_stdio_output@@AAE_NABUparameter_data@12@W4parameter_type@12@_WW4length_modifier@2@@Z 0042c153 f i libucrt:output.obj
 0001:0002b2b4       ?maximum_signed_value@__crt_strtox@@YAJK@Z 0042c2b4 f i libucrt:output.obj
 0001:0002b2ba       ?minimum_signed_value@__crt_strtox@@YAJK@Z 0042c2ba f i libucrt:output.obj
 0001:0002b2c0       ?narrow_null_string@?$output_processor@DV?$stream_output_adapter@D@__crt_stdio_output@@V?$format_validation_base@DV?$stream_output_adapter@D@__crt_stdio_output@@@2@@__crt_stdio_output@@CAPADXZ 0042c2c0 f i libucrt:output.obj
 0001:0002b2c6       ?narrow_null_string@?$output_processor@DV?$stream_output_adapter@D@__crt_stdio_output@@V?$positional_parameter_base@DV?$stream_output_adapter@D@__crt_stdio_output@@@2@@__crt_stdio_output@@CAPADXZ 0042c2c6 f i libucrt:output.obj
 0001:0002b2cc       ?narrow_null_string@?$output_processor@DV?$stream_output_adapter@D@__crt_stdio_output@@V?$standard_base@DV?$stream_output_adapter@D@__crt_stdio_output@@@2@@__crt_stdio_output@@CAPADXZ 0042c2cc f i libucrt:output.obj
 0001:0002b2d2       ?narrow_null_string@?$output_processor@DV?$string_output_adapter@D@__crt_stdio_output@@V?$format_validation_base@DV?$string_output_adapter@D@__crt_stdio_output@@@2@@__crt_stdio_output@@CAPADXZ 0042c2d2 f i libucrt:output.obj
 0001:0002b2d8       ?narrow_null_string@?$output_processor@DV?$string_output_adapter@D@__crt_stdio_output@@V?$positional_parameter_base@DV?$string_output_adapter@D@__crt_stdio_output@@@2@@__crt_stdio_output@@CAPADXZ 0042c2d8 f i libucrt:output.obj
 0001:0002b2de       ?narrow_null_string@?$output_processor@DV?$string_output_adapter@D@__crt_stdio_output@@V?$standard_base@DV?$string_output_adapter@D@__crt_stdio_output@@@2@@__crt_stdio_output@@CAPADXZ 0042c2de f i libucrt:output.obj
 0001:0002b2e4       ?narrow_null_string@?$output_processor@_WV?$stream_output_adapter@_W@__crt_stdio_output@@V?$format_validation_base@_WV?$stream_output_adapter@_W@__crt_stdio_output@@@2@@__crt_stdio_output@@CAPADXZ 0042c2e4 f i libucrt:output.obj
 0001:0002b2ea       ?narrow_null_string@?$output_processor@_WV?$stream_output_adapter@_W@__crt_stdio_output@@V?$positional_parameter_base@_WV?$stream_output_adapter@_W@__crt_stdio_output@@@2@@__crt_stdio_output@@CAPADXZ 0042c2ea f i libucrt:output.obj
 0001:0002b2f0       ?narrow_null_string@?$output_processor@_WV?$stream_output_adapter@_W@__crt_stdio_output@@V?$standard_base@_WV?$stream_output_adapter@_W@__crt_stdio_output@@@2@@__crt_stdio_output@@CAPADXZ 0042c2f0 f i libucrt:output.obj
 0001:0002b2f6       ?narrow_null_string@?$output_processor@_WV?$string_output_adapter@_W@__crt_stdio_output@@V?$format_validation_base@_WV?$string_output_adapter@_W@__crt_stdio_output@@@2@@__crt_stdio_output@@CAPADXZ 0042c2f6 f i libucrt:output.obj
 0001:0002b2fc       ?narrow_null_string@?$output_processor@_WV?$string_output_adapter@_W@__crt_stdio_output@@V?$positional_parameter_base@_WV?$string_output_adapter@_W@__crt_stdio_output@@@2@@__crt_stdio_output@@CAPADXZ 0042c2fc f i libucrt:output.obj
 0001:0002b302       ?narrow_null_string@?$output_processor@_WV?$string_output_adapter@_W@__crt_stdio_output@@V?$standard_base@_WV?$string_output_adapter@_W@__crt_stdio_output@@@2@@__crt_stdio_output@@CAPADXZ 0042c302 f i libucrt:output.obj
 0001:0002b308       ?parse_digit@__crt_strtox@@YAID@Z 0042c308 f i libucrt:output.obj
 0001:0002b350       ?parse_digit@__crt_strtox@@YAI_W@Z 0042c350 f i libucrt:output.obj
 0001:0002b58a       ?parse_int_from_format_string@?$output_processor@DV?$stream_output_adapter@D@__crt_stdio_output@@V?$format_validation_base@DV?$stream_output_adapter@D@__crt_stdio_output@@@2@@__crt_stdio_output@@AAE_NQAH@Z 0042c58a f i libucrt:output.obj
 0001:0002b620       ?parse_int_from_format_string@?$output_processor@DV?$stream_output_adapter@D@__crt_stdio_output@@V?$positional_parameter_base@DV?$stream_output_adapter@D@__crt_stdio_output@@@2@@__crt_stdio_output@@AAE_NQAH@Z 0042c620 f i libucrt:output.obj
 0001:0002b6b6       ?parse_int_from_format_string@?$output_processor@DV?$stream_output_adapter@D@__crt_stdio_output@@V?$standard_base@DV?$stream_output_adapter@D@__crt_stdio_output@@@2@@__crt_stdio_output@@AAE_NQAH@Z 0042c6b6 f i libucrt:output.obj
 0001:0002b74c       ?parse_int_from_format_string@?$output_processor@DV?$string_output_adapter@D@__crt_stdio_output@@V?$format_validation_base@DV?$string_output_adapter@D@__crt_stdio_output@@@2@@__crt_stdio_output@@AAE_NQAH@Z 0042c74c f i libucrt:output.obj
 0001:0002b7e2       ?parse_int_from_format_string@?$output_processor@DV?$string_output_adapter@D@__crt_stdio_output@@V?$positional_parameter_base@DV?$string_output_adapter@D@__crt_stdio_output@@@2@@__crt_stdio_output@@AAE_NQAH@Z 0042c7e2 f i libucrt:output.obj
 0001:0002b878       ?parse_int_from_format_string@?$output_processor@DV?$string_output_adapter@D@__crt_stdio_output@@V?$standard_base@DV?$string_output_adapter@D@__crt_stdio_output@@@2@@__crt_stdio_output@@AAE_NQAH@Z 0042c878 f i libucrt:output.obj
 0001:0002b90e       ?parse_int_from_format_string@?$output_processor@_WV?$stream_output_adapter@_W@__crt_stdio_output@@V?$format_validation_base@_WV?$stream_output_adapter@_W@__crt_stdio_output@@@2@@__crt_stdio_output@@AAE_NQAH@Z 0042c90e f i libucrt:output.obj
 0001:0002b9a6       ?parse_int_from_format_string@?$output_processor@_WV?$stream_output_adapter@_W@__crt_stdio_output@@V?$positional_parameter_base@_WV?$stream_output_adapter@_W@__crt_stdio_output@@@2@@__crt_stdio_output@@AAE_NQAH@Z 0042c9a6 f i libucrt:output.obj
 0001:0002ba3e       ?parse_int_from_format_string@?$output_processor@_WV?$stream_output_adapter@_W@__crt_stdio_output@@V?$standard_base@_WV?$stream_output_adapter@_W@__crt_stdio_output@@@2@@__crt_stdio_output@@AAE_NQAH@Z 0042ca3e f i libucrt:output.obj
 0001:0002bad6       ?parse_int_from_format_string@?$output_processor@_WV?$string_output_adapter@_W@__crt_stdio_output@@V?$format_validation_base@_WV?$string_output_adapter@_W@__crt_stdio_output@@@2@@__crt_stdio_output@@AAE_NQAH@Z 0042cad6 f i libucrt:output.obj
 0001:0002bb6e       ?parse_int_from_format_string@?$output_processor@_WV?$string_output_adapter@_W@__crt_stdio_output@@V?$positional_parameter_base@_WV?$string_output_adapter@_W@__crt_stdio_output@@@2@@__crt_stdio_output@@AAE_NQAH@Z 0042cb6e f i libucrt:output.obj
 0001:0002bc06       ?parse_int_from_format_string@?$output_processor@_WV?$string_output_adapter@_W@__crt_stdio_output@@V?$standard_base@_WV?$string_output_adapter@_W@__crt_stdio_output@@@2@@__crt_stdio_output@@AAE_NQAH@Z 0042cc06 f i libucrt:output.obj
 0001:0002bc9e       ?process@?$output_processor@DV?$stream_output_adapter@D@__crt_stdio_output@@V?$format_validation_base@DV?$stream_output_adapter@D@__crt_stdio_output@@@2@@__crt_stdio_output@@QAEHXZ 0042cc9e f i libucrt:output.obj
 0001:0002c00e       ?process@?$output_processor@DV?$stream_output_adapter@D@__crt_stdio_output@@V?$positional_parameter_base@DV?$stream_output_adapter@D@__crt_stdio_output@@@2@@__crt_stdio_output@@QAEHXZ 0042d00e f i libucrt:output.obj
 0001:0002c397       ?process@?$output_processor@DV?$stream_output_adapter@D@__crt_stdio_output@@V?$standard_base@DV?$stream_output_adapter@D@__crt_stdio_output@@@2@@__crt_stdio_output@@QAEHXZ 0042d397 f i libucrt:output.obj
 0001:0002c6f3       ?process@?$output_processor@DV?$string_output_adapter@D@__crt_stdio_output@@V?$format_validation_base@DV?$string_output_adapter@D@__crt_stdio_output@@@2@@__crt_stdio_output@@QAEHXZ 0042d6f3 f i libucrt:output.obj
 0001:0002ca90       ?process@?$output_processor@DV?$string_output_adapter@D@__crt_stdio_output@@V?$positional_parameter_base@DV?$string_output_adapter@D@__crt_stdio_output@@@2@@__crt_stdio_output@@QAEHXZ 0042da90 f i libucrt:output.obj
 0001:0002ce50       ?process@?$output_processor@DV?$string_output_adapter@D@__crt_stdio_output@@V?$standard_base@DV?$string_output_adapter@D@__crt_stdio_output@@@2@@__crt_stdio_output@@QAEHXZ 0042de50 f i libucrt:output.obj
 0001:0002d1d9       ?process@?$output_processor@_WV?$stream_output_adapter@_W@__crt_stdio_output@@V?$format_validation_base@_WV?$stream_output_adapter@_W@__crt_stdio_output@@@2@@__crt_stdio_output@@QAEHXZ 0042e1d9 f i libucrt:output.obj
 0001:0002d47c       ?process@?$output_processor@_WV?$stream_output_adapter@_W@__crt_stdio_output@@V?$positional_parameter_base@_WV?$stream_output_adapter@_W@__crt_stdio_output@@@2@@__crt_stdio_output@@QAEHXZ 0042e47c f i libucrt:output.obj
 0001:0002d765       ?process@?$output_processor@_WV?$stream_output_adapter@_W@__crt_stdio_output@@V?$standard_base@_WV?$stream_output_adapter@_W@__crt_stdio_output@@@2@@__crt_stdio_output@@QAEHXZ 0042e765 f i libucrt:output.obj
 0001:0002d9f9       ?process@?$output_processor@_WV?$string_output_adapter@_W@__crt_stdio_output@@V?$format_validation_base@_WV?$string_output_adapter@_W@__crt_stdio_output@@@2@@__crt_stdio_output@@QAEHXZ 0042e9f9 f i libucrt:output.obj
 0001:0002dcc9       ?process@?$output_processor@_WV?$string_output_adapter@_W@__crt_stdio_output@@V?$positional_parameter_base@_WV?$string_output_adapter@_W@__crt_stdio_output@@@2@@__crt_stdio_output@@QAEHXZ 0042ecc9 f i libucrt:output.obj
 0001:0002dfcb       ?process@?$output_processor@_WV?$string_output_adapter@_W@__crt_stdio_output@@V?$standard_base@_WV?$string_output_adapter@_W@__crt_stdio_output@@@2@@__crt_stdio_output@@QAEHXZ 0042efcb f i libucrt:output.obj
 0001:0002e296       ?restore_state@?$c_string_character_source@D@__crt_strtox@@QAE_NQBD@Z 0042f296 f i libucrt:output.obj
 0001:0002e2aa       ?restore_state@?$c_string_character_source@_W@__crt_strtox@@QAE_NQB_W@Z 0042f2aa f i libucrt:output.obj
 0001:0002e2be       ?save_state@?$c_string_character_source@D@__crt_strtox@@QBEPBDXZ 0042f2be f i libucrt:output.obj
 0001:0002e2c1       ?save_state@?$c_string_character_source@_W@__crt_strtox@@QBEPB_WXZ 0042f2c1 f i libucrt:output.obj
 0001:0002e2c4       ?set_flag@?$output_processor@DV?$stream_output_adapter@D@__crt_stdio_output@@V?$format_validation_base@DV?$stream_output_adapter@D@__crt_stdio_output@@@2@@__crt_stdio_output@@AAEXI@Z 0042f2c4 f i libucrt:output.obj
 0001:0002e2d6       ?set_flag@?$output_processor@DV?$stream_output_adapter@D@__crt_stdio_output@@V?$positional_parameter_base@DV?$stream_output_adapter@D@__crt_stdio_output@@@2@@__crt_stdio_output@@AAEXI@Z 0042f2d6 f i libucrt:output.obj
 0001:0002e2e8       ?set_flag@?$output_processor@DV?$stream_output_adapter@D@__crt_stdio_output@@V?$standard_base@DV?$stream_output_adapter@D@__crt_stdio_output@@@2@@__crt_stdio_output@@AAEXI@Z 0042f2e8 f i libucrt:output.obj
 0001:0002e2fa       ?set_flag@?$output_processor@DV?$string_output_adapter@D@__crt_stdio_output@@V?$format_validation_base@DV?$string_output_adapter@D@__crt_stdio_output@@@2@@__crt_stdio_output@@AAEXI@Z 0042f2fa f i libucrt:output.obj
 0001:0002e30c       ?set_flag@?$output_processor@DV?$string_output_adapter@D@__crt_stdio_output@@V?$positional_parameter_base@DV?$string_output_adapter@D@__crt_stdio_output@@@2@@__crt_stdio_output@@AAEXI@Z 0042f30c f i libucrt:output.obj
 0001:0002e31e       ?set_flag@?$output_processor@DV?$string_output_adapter@D@__crt_stdio_output@@V?$standard_base@DV?$string_output_adapter@D@__crt_stdio_output@@@2@@__crt_stdio_output@@AAEXI@Z 0042f31e f i libucrt:output.obj
 0001:0002e330       ?set_flag@?$output_processor@_WV?$stream_output_adapter@_W@__crt_stdio_output@@V?$format_validation_base@_WV?$stream_output_adapter@_W@__crt_stdio_output@@@2@@__crt_stdio_output@@AAEXI@Z 0042f330 f i libucrt:output.obj
 0001:0002e342       ?set_flag@?$output_processor@_WV?$stream_output_adapter@_W@__crt_stdio_output@@V?$positional_parameter_base@_WV?$stream_output_adapter@_W@__crt_stdio_output@@@2@@__crt_stdio_output@@AAEXI@Z 0042f342 f i libucrt:output.obj
 0001:0002e354       ?set_flag@?$output_processor@_WV?$stream_output_adapter@_W@__crt_stdio_output@@V?$standard_base@_WV?$stream_output_adapter@_W@__crt_stdio_output@@@2@@__crt_stdio_output@@AAEXI@Z 0042f354 f i libucrt:output.obj
 0001:0002e366       ?set_flag@?$output_processor@_WV?$string_output_adapter@_W@__crt_stdio_output@@V?$format_validation_base@_WV?$string_output_adapter@_W@__crt_stdio_output@@@2@@__crt_stdio_output@@AAEXI@Z 0042f366 f i libucrt:output.obj
 0001:0002e378       ?set_flag@?$output_processor@_WV?$string_output_adapter@_W@__crt_stdio_output@@V?$positional_parameter_base@_WV?$string_output_adapter@_W@__crt_stdio_output@@@2@@__crt_stdio_output@@AAEXI@Z 0042f378 f i libucrt:output.obj
 0001:0002e38a       ?set_flag@?$output_processor@_WV?$string_output_adapter@_W@__crt_stdio_output@@V?$standard_base@_WV?$string_output_adapter@_W@__crt_stdio_output@@@2@@__crt_stdio_output@@AAEXI@Z 0042f38a f i libucrt:output.obj
 0001:0002e39c       ?should_format@?$positional_parameter_base@DV?$stream_output_adapter@D@__crt_stdio_output@@@__crt_stdio_output@@IAE_NXZ 0042f39c f i libucrt:output.obj
 0001:0002e3b7       ?should_format@?$positional_parameter_base@DV?$string_output_adapter@D@__crt_stdio_output@@@__crt_stdio_output@@IAE_NXZ 0042f3b7 f i libucrt:output.obj
 0001:0002e3d2       ?should_format@?$positional_parameter_base@_WV?$stream_output_adapter@_W@__crt_stdio_output@@@__crt_stdio_output@@IAE_NXZ 0042f3d2 f i libucrt:output.obj
 0001:0002e3ed       ?should_format@?$positional_parameter_base@_WV?$string_output_adapter@_W@__crt_stdio_output@@@__crt_stdio_output@@IAE_NXZ 0042f3ed f i libucrt:output.obj
 0001:0002e408       ?should_format@?$standard_base@DV?$stream_output_adapter@D@__crt_stdio_output@@@__crt_stdio_output@@IAE_NXZ 0042f408 f i libucrt:output.obj
 0001:0002e40b       ?should_format@?$standard_base@DV?$string_output_adapter@D@__crt_stdio_output@@@__crt_stdio_output@@IAE_NXZ 0042f40b f i libucrt:output.obj
 0001:0002e40e       ?should_format@?$standard_base@_WV?$stream_output_adapter@_W@__crt_stdio_output@@@__crt_stdio_output@@IAE_NXZ 0042f40e f i libucrt:output.obj
 0001:0002e411       ?should_format@?$standard_base@_WV?$string_output_adapter@_W@__crt_stdio_output@@@__crt_stdio_output@@IAE_NXZ 0042f411 f i libucrt:output.obj
 0001:0002e414       ?should_skip_normal_state_processing@?$positional_parameter_base@DV?$stream_output_adapter@D@__crt_stdio_output@@@__crt_stdio_output@@IAE_NXZ 0042f414 f i libucrt:output.obj
 0001:0002e448       ?should_skip_normal_state_processing@?$positional_parameter_base@DV?$string_output_adapter@D@__crt_stdio_output@@@__crt_stdio_output@@IAE_NXZ 0042f448 f i libucrt:output.obj
 0001:0002e47c       ?should_skip_normal_state_processing@?$positional_parameter_base@_WV?$stream_output_adapter@_W@__crt_stdio_output@@@__crt_stdio_output@@IAE_NXZ 0042f47c f i libucrt:output.obj
 0001:0002e4b0       ?should_skip_normal_state_processing@?$positional_parameter_base@_WV?$string_output_adapter@_W@__crt_stdio_output@@@__crt_stdio_output@@IAE_NXZ 0042f4b0 f i libucrt:output.obj
 0001:0002e4e4       ?should_skip_normal_state_processing@?$standard_base@DV?$stream_output_adapter@D@__crt_stdio_output@@@__crt_stdio_output@@IAE_NXZ 0042f4e4 f i libucrt:output.obj
 0001:0002e4e7       ?should_skip_normal_state_processing@?$standard_base@DV?$string_output_adapter@D@__crt_stdio_output@@@__crt_stdio_output@@IAE_NXZ 0042f4e7 f i libucrt:output.obj
 0001:0002e4ea       ?should_skip_normal_state_processing@?$standard_base@_WV?$stream_output_adapter@_W@__crt_stdio_output@@@__crt_stdio_output@@IAE_NXZ 0042f4ea f i libucrt:output.obj
 0001:0002e4ed       ?should_skip_normal_state_processing@?$standard_base@_WV?$string_output_adapter@_W@__crt_stdio_output@@@__crt_stdio_output@@IAE_NXZ 0042f4ed f i libucrt:output.obj
 0001:0002e4f0       ?should_skip_type_state_output@?$positional_parameter_base@DV?$stream_output_adapter@D@__crt_stdio_output@@@__crt_stdio_output@@IBE_NXZ 0042f4f0 f i libucrt:output.obj
 0001:0002e50c       ?should_skip_type_state_output@?$positional_parameter_base@DV?$string_output_adapter@D@__crt_stdio_output@@@__crt_stdio_output@@IBE_NXZ 0042f50c f i libucrt:output.obj
 0001:0002e528       ?should_skip_type_state_output@?$positional_parameter_base@_WV?$stream_output_adapter@_W@__crt_stdio_output@@@__crt_stdio_output@@IBE_NXZ 0042f528 f i libucrt:output.obj
 0001:0002e544       ?should_skip_type_state_output@?$positional_parameter_base@_WV?$string_output_adapter@_W@__crt_stdio_output@@@__crt_stdio_output@@IBE_NXZ 0042f544 f i libucrt:output.obj
 0001:0002e560       ?should_skip_type_state_output@?$standard_base@DV?$stream_output_adapter@D@__crt_stdio_output@@@__crt_stdio_output@@IBE_NXZ 0042f560 f i libucrt:output.obj
 0001:0002e563       ?should_skip_type_state_output@?$standard_base@DV?$string_output_adapter@D@__crt_stdio_output@@@__crt_stdio_output@@IBE_NXZ 0042f563 f i libucrt:output.obj
 0001:0002e566       ?should_skip_type_state_output@?$standard_base@_WV?$stream_output_adapter@_W@__crt_stdio_output@@@__crt_stdio_output@@IBE_NXZ 0042f566 f i libucrt:output.obj
 0001:0002e569       ?should_skip_type_state_output@?$standard_base@_WV?$string_output_adapter@_W@__crt_stdio_output@@@__crt_stdio_output@@IBE_NXZ 0042f569 f i libucrt:output.obj
 0001:0002e56c       ?state_case_dot@?$output_processor@DV?$stream_output_adapter@D@__crt_stdio_output@@V?$format_validation_base@DV?$stream_output_adapter@D@__crt_stdio_output@@@2@@__crt_stdio_output@@AAE_NXZ 0042f56c f i libucrt:output.obj
 0001:0002e573       ?state_case_dot@?$output_processor@DV?$stream_output_adapter@D@__crt_stdio_output@@V?$positional_parameter_base@DV?$stream_output_adapter@D@__crt_stdio_output@@@2@@__crt_stdio_output@@AAE_NXZ 0042f573 f i libucrt:output.obj
 0001:0002e57a       ?state_case_dot@?$output_processor@DV?$stream_output_adapter@D@__crt_stdio_output@@V?$standard_base@DV?$stream_output_adapter@D@__crt_stdio_output@@@2@@__crt_stdio_output@@AAE_NXZ 0042f57a f i libucrt:output.obj
 0001:0002e581       ?state_case_dot@?$output_processor@DV?$string_output_adapter@D@__crt_stdio_output@@V?$format_validation_base@DV?$string_output_adapter@D@__crt_stdio_output@@@2@@__crt_stdio_output@@AAE_NXZ 0042f581 f i libucrt:output.obj
 0001:0002e588       ?state_case_dot@?$output_processor@DV?$string_output_adapter@D@__crt_stdio_output@@V?$positional_parameter_base@DV?$string_output_adapter@D@__crt_stdio_output@@@2@@__crt_stdio_output@@AAE_NXZ 0042f588 f i libucrt:output.obj
 0001:0002e58f       ?state_case_dot@?$output_processor@DV?$string_output_adapter@D@__crt_stdio_output@@V?$standard_base@DV?$string_output_adapter@D@__crt_stdio_output@@@2@@__crt_stdio_output@@AAE_NXZ 0042f58f f i libucrt:output.obj
 0001:0002e596       ?state_case_dot@?$output_processor@_WV?$stream_output_adapter@_W@__crt_stdio_output@@V?$format_validation_base@_WV?$stream_output_adapter@_W@__crt_stdio_output@@@2@@__crt_stdio_output@@AAE_NXZ 0042f596 f i libucrt:output.obj
 0001:0002e59d       ?state_case_dot@?$output_processor@_WV?$stream_output_adapter@_W@__crt_stdio_output@@V?$positional_parameter_base@_WV?$stream_output_adapter@_W@__crt_stdio_output@@@2@@__crt_stdio_output@@AAE_NXZ 0042f59d f i libucrt:output.obj
 0001:0002e5a4       ?state_case_dot@?$output_processor@_WV?$stream_output_adapter@_W@__crt_stdio_output@@V?$standard_base@_WV?$stream_output_adapter@_W@__crt_stdio_output@@@2@@__crt_stdio_output@@AAE_NXZ 0042f5a4 f i libucrt:output.obj
 0001:0002e5ab       ?state_case_dot@?$output_processor@_WV?$string_output_adapter@_W@__crt_stdio_output@@V?$format_validation_base@_WV?$string_output_adapter@_W@__crt_stdio_output@@@2@@__crt_stdio_output@@AAE_NXZ 0042f5ab f i libucrt:output.obj
 0001:0002e5b2       ?state_case_dot@?$output_processor@_WV?$string_output_adapter@_W@__crt_stdio_output@@V?$positional_parameter_base@_WV?$string_output_adapter@_W@__crt_stdio_output@@@2@@__crt_stdio_output@@AAE_NXZ 0042f5b2 f i libucrt:output.obj
 0001:0002e5b9       ?state_case_dot@?$output_processor@_WV?$string_output_adapter@_W@__crt_stdio_output@@V?$standard_base@_WV?$string_output_adapter@_W@__crt_stdio_output@@@2@@__crt_stdio_output@@AAE_NXZ 0042f5b9 f i libucrt:output.obj
 0001:0002e5c0       ?state_case_flag@?$output_processor@DV?$stream_output_adapter@D@__crt_stdio_output@@V?$format_validation_base@DV?$stream_output_adapter@D@__crt_stdio_output@@@2@@__crt_stdio_output@@AAE_NXZ 0042f5c0 f i libucrt:output.obj
 0001:0002e60c       ?state_case_flag@?$output_processor@DV?$stream_output_adapter@D@__crt_stdio_output@@V?$positional_parameter_base@DV?$stream_output_adapter@D@__crt_stdio_output@@@2@@__crt_stdio_output@@AAE_NXZ 0042f60c f i libucrt:output.obj
 0001:0002e658       ?state_case_flag@?$output_processor@DV?$stream_output_adapter@D@__crt_stdio_output@@V?$standard_base@DV?$stream_output_adapter@D@__crt_stdio_output@@@2@@__crt_stdio_output@@AAE_NXZ 0042f658 f i libucrt:output.obj
 0001:0002e6a4       ?state_case_flag@?$output_processor@DV?$string_output_adapter@D@__crt_stdio_output@@V?$format_validation_base@DV?$string_output_adapter@D@__crt_stdio_output@@@2@@__crt_stdio_output@@AAE_NXZ 0042f6a4 f i libucrt:output.obj
 0001:0002e6f0       ?state_case_flag@?$output_processor@DV?$string_output_adapter@D@__crt_stdio_output@@V?$positional_parameter_base@DV?$string_output_adapter@D@__crt_stdio_output@@@2@@__crt_stdio_output@@AAE_NXZ 0042f6f0 f i libucrt:output.obj
 0001:0002e73c       ?state_case_flag@?$output_processor@DV?$string_output_adapter@D@__crt_stdio_output@@V?$standard_base@DV?$string_output_adapter@D@__crt_stdio_output@@@2@@__crt_stdio_output@@AAE_NXZ 0042f73c f i libucrt:output.obj
 0001:0002e788       ?state_case_flag@?$output_processor@_WV?$stream_output_adapter@_W@__crt_stdio_output@@V?$format_validation_base@_WV?$stream_output_adapter@_W@__crt_stdio_output@@@2@@__crt_stdio_output@@AAE_NXZ 0042f788 f i libucrt:output.obj
 0001:0002e7d4       ?state_case_flag@?$output_processor@_WV?$stream_output_adapter@_W@__crt_stdio_output@@V?$positional_parameter_base@_WV?$stream_output_adapter@_W@__crt_stdio_output@@@2@@__crt_stdio_output@@AAE_NXZ 0042f7d4 f i libucrt:output.obj
 0001:0002e820       ?state_case_flag@?$output_processor@_WV?$stream_output_adapter@_W@__crt_stdio_output@@V?$standard_base@_WV?$stream_output_adapter@_W@__crt_stdio_output@@@2@@__crt_stdio_output@@AAE_NXZ 0042f820 f i libucrt:output.obj
 0001:0002e86c       ?state_case_flag@?$output_processor@_WV?$string_output_adapter@_W@__crt_stdio_output@@V?$format_validation_base@_WV?$string_output_adapter@_W@__crt_stdio_output@@@2@@__crt_stdio_output@@AAE_NXZ 0042f86c f i libucrt:output.obj
 0001:0002e8b8       ?state_case_flag@?$output_processor@_WV?$string_output_adapter@_W@__crt_stdio_output@@V?$positional_parameter_base@_WV?$string_output_adapter@_W@__crt_stdio_output@@@2@@__crt_stdio_output@@AAE_NXZ 0042f8b8 f i libucrt:output.obj
 0001:0002e904       ?state_case_flag@?$output_processor@_WV?$string_output_adapter@_W@__crt_stdio_output@@V?$standard_base@_WV?$string_output_adapter@_W@__crt_stdio_output@@@2@@__crt_stdio_output@@AAE_NXZ 0042f904 f i libucrt:output.obj
 0001:0002e950       ?state_case_normal@?$output_processor@DV?$stream_output_adapter@D@__crt_stdio_output@@V?$format_validation_base@DV?$stream_output_adapter@D@__crt_stdio_output@@@2@@__crt_stdio_output@@AAE_NXZ 0042f950 f i libucrt:output.obj
 0001:0002ea3c       ?state_case_normal@?$output_processor@DV?$stream_output_adapter@D@__crt_stdio_output@@V?$positional_parameter_base@DV?$stream_output_adapter@D@__crt_stdio_output@@@2@@__crt_stdio_output@@AAE_NXZ 0042fa3c f i libucrt:output.obj
 0001:0002eb36       ?state_case_normal@?$output_processor@DV?$stream_output_adapter@D@__crt_stdio_output@@V?$standard_base@DV?$stream_output_adapter@D@__crt_stdio_output@@@2@@__crt_stdio_output@@AAE_NXZ 0042fb36 f i libucrt:output.obj
 0001:0002ec22       ?state_case_normal@?$output_processor@DV?$string_output_adapter@D@__crt_stdio_output@@V?$format_validation_base@DV?$string_output_adapter@D@__crt_stdio_output@@@2@@__crt_stdio_output@@AAE_NXZ 0042fc22 f i libucrt:output.obj
 0001:0002ed5d       ?state_case_normal@?$output_processor@DV?$string_output_adapter@D@__crt_stdio_output@@V?$positional_parameter_base@DV?$string_output_adapter@D@__crt_stdio_output@@@2@@__crt_stdio_output@@AAE_NXZ 0042fd5d f i libucrt:output.obj
 0001:0002eea5       ?state_case_normal@?$output_processor@DV?$string_output_adapter@D@__crt_stdio_output@@V?$standard_base@DV?$string_output_adapter@D@__crt_stdio_output@@@2@@__crt_stdio_output@@AAE_NXZ 0042fea5 f i libucrt:output.obj
 0001:0002efe0       ?state_case_normal@?$output_processor@_WV?$stream_output_adapter@_W@__crt_stdio_output@@V?$format_validation_base@_WV?$stream_output_adapter@_W@__crt_stdio_output@@@2@@__crt_stdio_output@@AAE_NXZ 0042ffe0 f i libucrt:output.obj
 0001:0002f005       ?state_case_normal@?$output_processor@_WV?$stream_output_adapter@_W@__crt_stdio_output@@V?$positional_parameter_base@_WV?$stream_output_adapter@_W@__crt_stdio_output@@@2@@__crt_stdio_output@@AAE_NXZ 00430005 f i libucrt:output.obj
 0001:0002f03d       ?state_case_normal@?$output_processor@_WV?$stream_output_adapter@_W@__crt_stdio_output@@V?$standard_base@_WV?$stream_output_adapter@_W@__crt_stdio_output@@@2@@__crt_stdio_output@@AAE_NXZ 0043003d f i libucrt:output.obj
 0001:0002f062       ?state_case_normal@?$output_processor@_WV?$string_output_adapter@_W@__crt_stdio_output@@V?$format_validation_base@_WV?$string_output_adapter@_W@__crt_stdio_output@@@2@@__crt_stdio_output@@AAE_NXZ 00430062 f i libucrt:output.obj
 0001:0002f0bc       ?state_case_normal@?$output_processor@_WV?$string_output_adapter@_W@__crt_stdio_output@@V?$positional_parameter_base@_WV?$string_output_adapter@_W@__crt_stdio_output@@@2@@__crt_stdio_output@@AAE_NXZ 004300bc f i libucrt:output.obj
 0001:0002f123       ?state_case_normal@?$output_processor@_WV?$string_output_adapter@_W@__crt_stdio_output@@V?$standard_base@_WV?$string_output_adapter@_W@__crt_stdio_output@@@2@@__crt_stdio_output@@AAE_NXZ 00430123 f i libucrt:output.obj
 0001:0002f17d       ?state_case_normal_common@?$output_processor@DV?$stream_output_adapter@D@__crt_stdio_output@@V?$format_validation_base@DV?$stream_output_adapter@D@__crt_stdio_output@@@2@@__crt_stdio_output@@AAE_NXZ 0043017d f i libucrt:output.obj
 0001:0002f23b       ?state_case_normal_common@?$output_processor@DV?$stream_output_adapter@D@__crt_stdio_output@@V?$positional_parameter_base@DV?$stream_output_adapter@D@__crt_stdio_output@@@2@@__crt_stdio_output@@AAE_NXZ 0043023b f i libucrt:output.obj
 0001:0002f2f9       ?state_case_normal_common@?$output_processor@DV?$stream_output_adapter@D@__crt_stdio_output@@V?$standard_base@DV?$stream_output_adapter@D@__crt_stdio_output@@@2@@__crt_stdio_output@@AAE_NXZ 004302f9 f i libucrt:output.obj
 0001:0002f3b7       ?state_case_normal_common@?$output_processor@DV?$string_output_adapter@D@__crt_stdio_output@@V?$format_validation_base@DV?$string_output_adapter@D@__crt_stdio_output@@@2@@__crt_stdio_output@@AAE_NXZ 004303b7 f i libucrt:output.obj
 0001:0002f4cf       ?state_case_normal_common@?$output_processor@DV?$string_output_adapter@D@__crt_stdio_output@@V?$positional_parameter_base@DV?$string_output_adapter@D@__crt_stdio_output@@@2@@__crt_stdio_output@@AAE_NXZ 004304cf f i libucrt:output.obj
 0001:0002f5e7       ?state_case_normal_common@?$output_processor@DV?$string_output_adapter@D@__crt_stdio_output@@V?$standard_base@DV?$string_output_adapter@D@__crt_stdio_output@@@2@@__crt_stdio_output@@AAE_NXZ 004305e7 f i libucrt:output.obj
 0001:0002f6ff       ?state_case_normal_common@?$output_processor@_WV?$stream_output_adapter@_W@__crt_stdio_output@@V?$format_validation_base@_WV?$stream_output_adapter@_W@__crt_stdio_output@@@2@@__crt_stdio_output@@AAE_NXZ 004306ff f i libucrt:output.obj
 0001:0002f724       ?state_case_normal_common@?$output_processor@_WV?$stream_output_adapter@_W@__crt_stdio_output@@V?$positional_parameter_base@_WV?$stream_output_adapter@_W@__crt_stdio_output@@@2@@__crt_stdio_output@@AAE_NXZ 00430724 f i libucrt:output.obj
 0001:0002f749       ?state_case_normal_common@?$output_processor@_WV?$stream_output_adapter@_W@__crt_stdio_output@@V?$standard_base@_WV?$stream_output_adapter@_W@__crt_stdio_output@@@2@@__crt_stdio_output@@AAE_NXZ 00430749 f i libucrt:output.obj
 0001:0002f76e       ?state_case_normal_common@?$output_processor@_WV?$string_output_adapter@_W@__crt_stdio_output@@V?$format_validation_base@_WV?$string_output_adapter@_W@__crt_stdio_output@@@2@@__crt_stdio_output@@AAE_NXZ 0043076e f i libucrt:output.obj
 0001:0002f7c8       ?state_case_normal_common@?$output_processor@_WV?$string_output_adapter@_W@__crt_stdio_output@@V?$positional_parameter_base@_WV?$string_output_adapter@_W@__crt_stdio_output@@@2@@__crt_stdio_output@@AAE_NXZ 004307c8 f i libucrt:output.obj
 0001:0002f822       ?state_case_normal_common@?$output_processor@_WV?$string_output_adapter@_W@__crt_stdio_output@@V?$standard_base@_WV?$string_output_adapter@_W@__crt_stdio_output@@@2@@__crt_stdio_output@@AAE_NXZ 00430822 f i libucrt:output.obj
 0001:0002f87c       ?state_case_normal_tchar@?$output_processor@DV?$stream_output_adapter@D@__crt_stdio_output@@V?$format_validation_base@DV?$stream_output_adapter@D@__crt_stdio_output@@@2@@__crt_stdio_output@@AAE_ND@Z 0043087c f i libucrt:output.obj
 0001:0002f924       ?state_case_normal_tchar@?$output_processor@DV?$stream_output_adapter@D@__crt_stdio_output@@V?$positional_parameter_base@DV?$stream_output_adapter@D@__crt_stdio_output@@@2@@__crt_stdio_output@@AAE_ND@Z 00430924 f i libucrt:output.obj
 0001:0002f9cc       ?state_case_normal_tchar@?$output_processor@DV?$stream_output_adapter@D@__crt_stdio_output@@V?$standard_base@DV?$stream_output_adapter@D@__crt_stdio_output@@@2@@__crt_stdio_output@@AAE_ND@Z 004309cc f i libucrt:output.obj
 0001:0002fa74       ?state_case_normal_tchar@?$output_processor@DV?$string_output_adapter@D@__crt_stdio_output@@V?$format_validation_base@DV?$string_output_adapter@D@__crt_stdio_output@@@2@@__crt_stdio_output@@AAE_ND@Z 00430a74 f i libucrt:output.obj
 0001:0002fb49       ?state_case_normal_tchar@?$output_processor@DV?$string_output_adapter@D@__crt_stdio_output@@V?$positional_parameter_base@DV?$string_output_adapter@D@__crt_stdio_output@@@2@@__crt_stdio_output@@AAE_ND@Z 00430b49 f i libucrt:output.obj
 0001:0002fc1e       ?state_case_normal_tchar@?$output_processor@DV?$string_output_adapter@D@__crt_stdio_output@@V?$standard_base@DV?$string_output_adapter@D@__crt_stdio_output@@@2@@__crt_stdio_output@@AAE_ND@Z 00430c1e f i libucrt:output.obj
 0001:0002fcf3       ?state_case_normal_tchar@?$output_processor@_WV?$stream_output_adapter@_W@__crt_stdio_output@@V?$format_validation_base@_WV?$stream_output_adapter@_W@__crt_stdio_output@@@2@@__crt_stdio_output@@AAE_N_W@Z 00430cf3 f i libucrt:output.obj
 0001:0002fcfe       ?state_case_normal_tchar@?$output_processor@_WV?$stream_output_adapter@_W@__crt_stdio_output@@V?$positional_parameter_base@_WV?$stream_output_adapter@_W@__crt_stdio_output@@@2@@__crt_stdio_output@@AAE_N_W@Z 00430cfe f i libucrt:output.obj
 0001:0002fd09       ?state_case_normal_tchar@?$output_processor@_WV?$stream_output_adapter@_W@__crt_stdio_output@@V?$standard_base@_WV?$stream_output_adapter@_W@__crt_stdio_output@@@2@@__crt_stdio_output@@AAE_N_W@Z 00430d09 f i libucrt:output.obj
 0001:0002fd14       ?state_case_normal_tchar@?$output_processor@_WV?$string_output_adapter@_W@__crt_stdio_output@@V?$format_validation_base@_WV?$string_output_adapter@_W@__crt_stdio_output@@@2@@__crt_stdio_output@@AAE_N_W@Z 00430d14 f i libucrt:output.obj
 0001:0002fd1f       ?state_case_normal_tchar@?$output_processor@_WV?$string_output_adapter@_W@__crt_stdio_output@@V?$positional_parameter_base@_WV?$string_output_adapter@_W@__crt_stdio_output@@@2@@__crt_stdio_output@@AAE_N_W@Z 00430d1f f i libucrt:output.obj
 0001:0002fd2a       ?state_case_normal_tchar@?$output_processor@_WV?$string_output_adapter@_W@__crt_stdio_output@@V?$standard_base@_WV?$string_output_adapter@_W@__crt_stdio_output@@@2@@__crt_stdio_output@@AAE_N_W@Z 00430d2a f i libucrt:output.obj
 0001:0002fd35       ?state_case_percent@?$output_processor@DV?$stream_output_adapter@D@__crt_stdio_output@@V?$format_validation_base@DV?$stream_output_adapter@D@__crt_stdio_output@@@2@@__crt_stdio_output@@AAE_NXZ 00430d35 f i libucrt:output.obj
 0001:0002fd53       ?state_case_percent@?$output_processor@DV?$stream_output_adapter@D@__crt_stdio_output@@V?$positional_parameter_base@DV?$stream_output_adapter@D@__crt_stdio_output@@@2@@__crt_stdio_output@@AAE_NXZ 00430d53 f i libucrt:output.obj
 0001:0002fd71       ?state_case_percent@?$output_processor@DV?$stream_output_adapter@D@__crt_stdio_output@@V?$standard_base@DV?$stream_output_adapter@D@__crt_stdio_output@@@2@@__crt_stdio_output@@AAE_NXZ 00430d71 f i libucrt:output.obj
 0001:0002fd8f       ?state_case_percent@?$output_processor@DV?$string_output_adapter@D@__crt_stdio_output@@V?$format_validation_base@DV?$string_output_adapter@D@__crt_stdio_output@@@2@@__crt_stdio_output@@AAE_NXZ 00430d8f f i libucrt:output.obj
 0001:0002fdad       ?state_case_percent@?$output_processor@DV?$string_output_adapter@D@__crt_stdio_output@@V?$positional_parameter_base@DV?$string_output_adapter@D@__crt_stdio_output@@@2@@__crt_stdio_output@@AAE_NXZ 00430dad f i libucrt:output.obj
 0001:0002fdcb       ?state_case_percent@?$output_processor@DV?$string_output_adapter@D@__crt_stdio_output@@V?$standard_base@DV?$string_output_adapter@D@__crt_stdio_output@@@2@@__crt_stdio_output@@AAE_NXZ 00430dcb f i libucrt:output.obj
 0001:0002fde9       ?state_case_percent@?$output_processor@_WV?$stream_output_adapter@_W@__crt_stdio_output@@V?$format_validation_base@_WV?$stream_output_adapter@_W@__crt_stdio_output@@@2@@__crt_stdio_output@@AAE_NXZ 00430de9 f i libucrt:output.obj
 0001:0002fe07       ?state_case_percent@?$output_processor@_WV?$stream_output_adapter@_W@__crt_stdio_output@@V?$positional_parameter_base@_WV?$stream_output_adapter@_W@__crt_stdio_output@@@2@@__crt_stdio_output@@AAE_NXZ 00430e07 f i libucrt:output.obj
 0001:0002fe25       ?state_case_percent@?$output_processor@_WV?$stream_output_adapter@_W@__crt_stdio_output@@V?$standard_base@_WV?$stream_output_adapter@_W@__crt_stdio_output@@@2@@__crt_stdio_output@@AAE_NXZ 00430e25 f i libucrt:output.obj
 0001:0002fe43       ?state_case_percent@?$output_processor@_WV?$string_output_adapter@_W@__crt_stdio_output@@V?$format_validation_base@_WV?$string_output_adapter@_W@__crt_stdio_output@@@2@@__crt_stdio_output@@AAE_NXZ 00430e43 f i libucrt:output.obj
 0001:0002fe61       ?state_case_percent@?$output_processor@_WV?$string_output_adapter@_W@__crt_stdio_output@@V?$positional_parameter_base@_WV?$string_output_adapter@_W@__crt_stdio_output@@@2@@__crt_stdio_output@@AAE_NXZ 00430e61 f i libucrt:output.obj
 0001:0002fe7f       ?state_case_percent@?$output_processor@_WV?$string_output_adapter@_W@__crt_stdio_output@@V?$standard_base@_WV?$string_output_adapter@_W@__crt_stdio_output@@@2@@__crt_stdio_output@@AAE_NXZ 00430e7f f i libucrt:output.obj
 0001:0002fe9d       ?state_case_precision@?$output_processor@DV?$stream_output_adapter@D@__crt_stdio_output@@V?$format_validation_base@DV?$stream_output_adapter@D@__crt_stdio_output@@@2@@__crt_stdio_output@@AAE_NXZ 00430e9d f i libucrt:output.obj
 0001:0002fed4       ?state_case_precision@?$output_processor@DV?$stream_output_adapter@D@__crt_stdio_output@@V?$positional_parameter_base@DV?$stream_output_adapter@D@__crt_stdio_output@@@2@@__crt_stdio_output@@AAE_NXZ 00430ed4 f i libucrt:output.obj
 0001:0002ff1c       ?state_case_precision@?$output_processor@DV?$stream_output_adapter@D@__crt_stdio_output@@V?$standard_base@DV?$stream_output_adapter@D@__crt_stdio_output@@@2@@__crt_stdio_output@@AAE_NXZ 00430f1c f i libucrt:output.obj
 0001:0002ff53       ?state_case_precision@?$output_processor@DV?$string_output_adapter@D@__crt_stdio_output@@V?$format_validation_base@DV?$string_output_adapter@D@__crt_stdio_output@@@2@@__crt_stdio_output@@AAE_NXZ 00430f53 f i libucrt:output.obj
 0001:0002ff8a       ?state_case_precision@?$output_processor@DV?$string_output_adapter@D@__crt_stdio_output@@V?$positional_parameter_base@DV?$string_output_adapter@D@__crt_stdio_output@@@2@@__crt_stdio_output@@AAE_NXZ 00430f8a f i libucrt:output.obj
 0001:0002ffd2       ?state_case_precision@?$output_processor@DV?$string_output_adapter@D@__crt_stdio_output@@V?$standard_base@DV?$string_output_adapter@D@__crt_stdio_output@@@2@@__crt_stdio_output@@AAE_NXZ 00430fd2 f i libucrt:output.obj
 0001:00030009       ?state_case_precision@?$output_processor@_WV?$stream_output_adapter@_W@__crt_stdio_output@@V?$format_validation_base@_WV?$stream_output_adapter@_W@__crt_stdio_output@@@2@@__crt_stdio_output@@AAE_NXZ 00431009 f i libucrt:output.obj
 0001:00030041       ?state_case_precision@?$output_processor@_WV?$stream_output_adapter@_W@__crt_stdio_output@@V?$positional_parameter_base@_WV?$stream_output_adapter@_W@__crt_stdio_output@@@2@@__crt_stdio_output@@AAE_NXZ 00431041 f i libucrt:output.obj
 0001:0003008a       ?state_case_precision@?$output_processor@_WV?$stream_output_adapter@_W@__crt_stdio_output@@V?$standard_base@_WV?$stream_output_adapter@_W@__crt_stdio_output@@@2@@__crt_stdio_output@@AAE_NXZ 0043108a f i libucrt:output.obj
 0001:000300c2       ?state_case_precision@?$output_processor@_WV?$string_output_adapter@_W@__crt_stdio_output@@V?$format_validation_base@_WV?$string_output_adapter@_W@__crt_stdio_output@@@2@@__crt_stdio_output@@AAE_NXZ 004310c2 f i libucrt:output.obj
 0001:000300fa       ?state_case_precision@?$output_processor@_WV?$string_output_adapter@_W@__crt_stdio_output@@V?$positional_parameter_base@_WV?$string_output_adapter@_W@__crt_stdio_output@@@2@@__crt_stdio_output@@AAE_NXZ 004310fa f i libucrt:output.obj
 0001:00030143       ?state_case_precision@?$output_processor@_WV?$string_output_adapter@_W@__crt_stdio_output@@V?$standard_base@_WV?$string_output_adapter@_W@__crt_stdio_output@@@2@@__crt_stdio_output@@AAE_NXZ 00431143 f i libucrt:output.obj
 0001:0003017b       ?state_case_size@?$output_processor@DV?$stream_output_adapter@D@__crt_stdio_output@@V?$format_validation_base@DV?$stream_output_adapter@D@__crt_stdio_output@@@2@@__crt_stdio_output@@AAE_NXZ 0043117b f i libucrt:output.obj
 0001:0003032a       ?state_case_size@?$output_processor@DV?$stream_output_adapter@D@__crt_stdio_output@@V?$positional_parameter_base@DV?$stream_output_adapter@D@__crt_stdio_output@@@2@@__crt_stdio_output@@AAE_NXZ 0043132a f i libucrt:output.obj
 0001:000304d9       ?state_case_size@?$output_processor@DV?$stream_output_adapter@D@__crt_stdio_output@@V?$standard_base@DV?$stream_output_adapter@D@__crt_stdio_output@@@2@@__crt_stdio_output@@AAE_NXZ 004314d9 f i libucrt:output.obj
 0001:00030688       ?state_case_size@?$output_processor@DV?$string_output_adapter@D@__crt_stdio_output@@V?$format_validation_base@DV?$string_output_adapter@D@__crt_stdio_output@@@2@@__crt_stdio_output@@AAE_NXZ 00431688 f i libucrt:output.obj
 0001:00030837       ?state_case_size@?$output_processor@DV?$string_output_adapter@D@__crt_stdio_output@@V?$positional_parameter_base@DV?$string_output_adapter@D@__crt_stdio_output@@@2@@__crt_stdio_output@@AAE_NXZ 00431837 f i libucrt:output.obj
 0001:000309e6       ?state_case_size@?$output_processor@DV?$string_output_adapter@D@__crt_stdio_output@@V?$standard_base@DV?$string_output_adapter@D@__crt_stdio_output@@@2@@__crt_stdio_output@@AAE_NXZ 004319e6 f i libucrt:output.obj
 0001:00030b95       ?state_case_size@?$output_processor@_WV?$stream_output_adapter@_W@__crt_stdio_output@@V?$format_validation_base@_WV?$stream_output_adapter@_W@__crt_stdio_output@@@2@@__crt_stdio_output@@AAE_NXZ 00431b95 f i libucrt:output.obj
 0001:00030d81       ?state_case_size@?$output_processor@_WV?$stream_output_adapter@_W@__crt_stdio_output@@V?$positional_parameter_base@_WV?$stream_output_adapter@_W@__crt_stdio_output@@@2@@__crt_stdio_output@@AAE_NXZ 00431d81 f i libucrt:output.obj
 0001:00030f6d       ?state_case_size@?$output_processor@_WV?$stream_output_adapter@_W@__crt_stdio_output@@V?$standard_base@_WV?$stream_output_adapter@_W@__crt_stdio_output@@@2@@__crt_stdio_output@@AAE_NXZ 00431f6d f i libucrt:output.obj
 0001:00031159       ?state_case_size@?$output_processor@_WV?$string_output_adapter@_W@__crt_stdio_output@@V?$format_validation_base@_WV?$string_output_adapter@_W@__crt_stdio_output@@@2@@__crt_stdio_output@@AAE_NXZ 00432159 f i libucrt:output.obj
 0001:00031345       ?state_case_size@?$output_processor@_WV?$string_output_adapter@_W@__crt_stdio_output@@V?$positional_parameter_base@_WV?$string_output_adapter@_W@__crt_stdio_output@@@2@@__crt_stdio_output@@AAE_NXZ 00432345 f i libucrt:output.obj
 0001:00031531       ?state_case_size@?$output_processor@_WV?$string_output_adapter@_W@__crt_stdio_output@@V?$standard_base@_WV?$string_output_adapter@_W@__crt_stdio_output@@@2@@__crt_stdio_output@@AAE_NXZ 00432531 f i libucrt:output.obj
 0001:0003171d       ?state_case_type@?$output_processor@DV?$stream_output_adapter@D@__crt_stdio_output@@V?$format_validation_base@DV?$stream_output_adapter@D@__crt_stdio_output@@@2@@__crt_stdio_output@@AAE_NXZ 0043271d f i libucrt:output.obj
 0001:00031b2f       ?state_case_type@?$output_processor@DV?$stream_output_adapter@D@__crt_stdio_output@@V?$positional_parameter_base@DV?$stream_output_adapter@D@__crt_stdio_output@@@2@@__crt_stdio_output@@AAE_NXZ 00432b2f f i libucrt:output.obj
 0001:00031f54       ?state_case_type@?$output_processor@DV?$stream_output_adapter@D@__crt_stdio_output@@V?$standard_base@DV?$stream_output_adapter@D@__crt_stdio_output@@@2@@__crt_stdio_output@@AAE_NXZ 00432f54 f i libucrt:output.obj
 0001:00032366       ?state_case_type@?$output_processor@DV?$string_output_adapter@D@__crt_stdio_output@@V?$format_validation_base@DV?$string_output_adapter@D@__crt_stdio_output@@@2@@__crt_stdio_output@@AAE_NXZ 00433366 f i libucrt:output.obj
 0001:0003279c       ?state_case_type@?$output_processor@DV?$string_output_adapter@D@__crt_stdio_output@@V?$positional_parameter_base@DV?$string_output_adapter@D@__crt_stdio_output@@@2@@__crt_stdio_output@@AAE_NXZ 0043379c f i libucrt:output.obj
 0001:00032be5       ?state_case_type@?$output_processor@DV?$string_output_adapter@D@__crt_stdio_output@@V?$standard_base@DV?$string_output_adapter@D@__crt_stdio_output@@@2@@__crt_stdio_output@@AAE_NXZ 00433be5 f i libucrt:output.obj
 0001:0003301b       ?state_case_type@?$output_processor@_WV?$stream_output_adapter@_W@__crt_stdio_output@@V?$format_validation_base@_WV?$stream_output_adapter@_W@__crt_stdio_output@@@2@@__crt_stdio_output@@AAE_NXZ 0043401b f i libucrt:output.obj
 0001:00033450       ?state_case_type@?$output_processor@_WV?$stream_output_adapter@_W@__crt_stdio_output@@V?$positional_parameter_base@_WV?$stream_output_adapter@_W@__crt_stdio_output@@@2@@__crt_stdio_output@@AAE_NXZ 00434450 f i libucrt:output.obj
 0001:00033898       ?state_case_type@?$output_processor@_WV?$stream_output_adapter@_W@__crt_stdio_output@@V?$standard_base@_WV?$stream_output_adapter@_W@__crt_stdio_output@@@2@@__crt_stdio_output@@AAE_NXZ 00434898 f i libucrt:output.obj
 0001:00033ccd       ?state_case_type@?$output_processor@_WV?$string_output_adapter@_W@__crt_stdio_output@@V?$format_validation_base@_WV?$string_output_adapter@_W@__crt_stdio_output@@@2@@__crt_stdio_output@@AAE_NXZ 00434ccd f i libucrt:output.obj
 0001:000341be       ?state_case_type@?$output_processor@_WV?$string_output_adapter@_W@__crt_stdio_output@@V?$positional_parameter_base@_WV?$string_output_adapter@_W@__crt_stdio_output@@@2@@__crt_stdio_output@@AAE_NXZ 004351be f i libucrt:output.obj
 0001:000346c1       ?state_case_type@?$output_processor@_WV?$string_output_adapter@_W@__crt_stdio_output@@V?$standard_base@_WV?$string_output_adapter@_W@__crt_stdio_output@@@2@@__crt_stdio_output@@AAE_NXZ 004356c1 f i libucrt:output.obj
 0001:00034bb2       ?state_case_width@?$output_processor@DV?$stream_output_adapter@D@__crt_stdio_output@@V?$format_validation_base@DV?$stream_output_adapter@D@__crt_stdio_output@@@2@@__crt_stdio_output@@AAE_NXZ 00435bb2 f i libucrt:output.obj
 0001:00034bef       ?state_case_width@?$output_processor@DV?$stream_output_adapter@D@__crt_stdio_output@@V?$positional_parameter_base@DV?$stream_output_adapter@D@__crt_stdio_output@@@2@@__crt_stdio_output@@AAE_NXZ 00435bef f i libucrt:output.obj
 0001:00034c3f       ?state_case_width@?$output_processor@DV?$stream_output_adapter@D@__crt_stdio_output@@V?$standard_base@DV?$stream_output_adapter@D@__crt_stdio_output@@@2@@__crt_stdio_output@@AAE_NXZ 00435c3f f i libucrt:output.obj
 0001:00034c7c       ?state_case_width@?$output_processor@DV?$string_output_adapter@D@__crt_stdio_output@@V?$format_validation_base@DV?$string_output_adapter@D@__crt_stdio_output@@@2@@__crt_stdio_output@@AAE_NXZ 00435c7c f i libucrt:output.obj
 0001:00034cb9       ?state_case_width@?$output_processor@DV?$string_output_adapter@D@__crt_stdio_output@@V?$positional_parameter_base@DV?$string_output_adapter@D@__crt_stdio_output@@@2@@__crt_stdio_output@@AAE_NXZ 00435cb9 f i libucrt:output.obj
 0001:00034d09       ?state_case_width@?$output_processor@DV?$string_output_adapter@D@__crt_stdio_output@@V?$standard_base@DV?$string_output_adapter@D@__crt_stdio_output@@@2@@__crt_stdio_output@@AAE_NXZ 00435d09 f i libucrt:output.obj
 0001:00034d46       ?state_case_width@?$output_processor@_WV?$stream_output_adapter@_W@__crt_stdio_output@@V?$format_validation_base@_WV?$stream_output_adapter@_W@__crt_stdio_output@@@2@@__crt_stdio_output@@AAE_NXZ 00435d46 f i libucrt:output.obj
 0001:00034d84       ?state_case_width@?$output_processor@_WV?$stream_output_adapter@_W@__crt_stdio_output@@V?$positional_parameter_base@_WV?$stream_output_adapter@_W@__crt_stdio_output@@@2@@__crt_stdio_output@@AAE_NXZ 00435d84 f i libucrt:output.obj
 0001:00034dd5       ?state_case_width@?$output_processor@_WV?$stream_output_adapter@_W@__crt_stdio_output@@V?$standard_base@_WV?$stream_output_adapter@_W@__crt_stdio_output@@@2@@__crt_stdio_output@@AAE_NXZ 00435dd5 f i libucrt:output.obj
 0001:00034e13       ?state_case_width@?$output_processor@_WV?$string_output_adapter@_W@__crt_stdio_output@@V?$format_validation_base@_WV?$string_output_adapter@_W@__crt_stdio_output@@@2@@__crt_stdio_output@@AAE_NXZ 00435e13 f i libucrt:output.obj
 0001:00034e51       ?state_case_width@?$output_processor@_WV?$string_output_adapter@_W@__crt_stdio_output@@V?$positional_parameter_base@_WV?$string_output_adapter@_W@__crt_stdio_output@@@2@@__crt_stdio_output@@AAE_NXZ 00435e51 f i libucrt:output.obj
 0001:00034ea2       ?state_case_width@?$output_processor@_WV?$string_output_adapter@_W@__crt_stdio_output@@V?$standard_base@_WV?$string_output_adapter@_W@__crt_stdio_output@@@2@@__crt_stdio_output@@AAE_NXZ 00435ea2 f i libucrt:output.obj
 0001:00034ee0       ?state_count@?$format_validation_base@DV?$stream_output_adapter@D@__crt_stdio_output@@@__crt_stdio_output@@KAIXZ 00435ee0 f i libucrt:output.obj
 0001:00034ee4       ?state_count@?$format_validation_base@DV?$string_output_adapter@D@__crt_stdio_output@@@__crt_stdio_output@@KAIXZ 00435ee4 f i libucrt:output.obj
 0001:00034ee8       ?state_count@?$format_validation_base@_WV?$stream_output_adapter@_W@__crt_stdio_output@@@__crt_stdio_output@@KAIXZ 00435ee8 f i libucrt:output.obj
 0001:00034eec       ?state_count@?$format_validation_base@_WV?$string_output_adapter@_W@__crt_stdio_output@@@__crt_stdio_output@@KAIXZ 00435eec f i libucrt:output.obj
 0001:00034ef0       ?state_count@?$standard_base@DV?$stream_output_adapter@D@__crt_stdio_output@@@__crt_stdio_output@@KAIXZ 00435ef0 f i libucrt:output.obj
 0001:00034ef4       ?state_count@?$standard_base@DV?$string_output_adapter@D@__crt_stdio_output@@@__crt_stdio_output@@KAIXZ 00435ef4 f i libucrt:output.obj
 0001:00034ef8       ?state_count@?$standard_base@_WV?$stream_output_adapter@_W@__crt_stdio_output@@@__crt_stdio_output@@KAIXZ 00435ef8 f i libucrt:output.obj
 0001:00034efc       ?state_count@?$standard_base@_WV?$string_output_adapter@_W@__crt_stdio_output@@@__crt_stdio_output@@KAIXZ 00435efc f i libucrt:output.obj
 0001:00034f00       ?state_transition_table@?$format_validation_base@DV?$stream_output_adapter@D@__crt_stdio_output@@@__crt_stdio_output@@KAABV?$spectre_mitigated_lookup_table@Ustate_transition_pair@__crt_stdio_output@@$0IA@@2@XZ 00435f00 f i libucrt:output.obj
 0001:00034f06       ?state_transition_table@?$format_validation_base@DV?$string_output_adapter@D@__crt_stdio_output@@@__crt_stdio_output@@KAABV?$spectre_mitigated_lookup_table@Ustate_transition_pair@__crt_stdio_output@@$0IA@@2@XZ 00435f06 f i libucrt:output.obj
 0001:00034f0c       ?state_transition_table@?$format_validation_base@_WV?$stream_output_adapter@_W@__crt_stdio_output@@@__crt_stdio_output@@KAABV?$spectre_mitigated_lookup_table@Ustate_transition_pair@__crt_stdio_output@@$0IA@@2@XZ 00435f0c f i libucrt:output.obj
 0001:00034f12       ?state_transition_table@?$format_validation_base@_WV?$string_output_adapter@_W@__crt_stdio_output@@@__crt_stdio_output@@KAABV?$spectre_mitigated_lookup_table@Ustate_transition_pair@__crt_stdio_output@@$0IA@@2@XZ 00435f12 f i libucrt:output.obj
 0001:00034f18       ?state_transition_table@?$standard_base@DV?$stream_output_adapter@D@__crt_stdio_output@@@__crt_stdio_output@@KAABV?$spectre_mitigated_lookup_table@Ustate_transition_pair@__crt_stdio_output@@$0IA@@2@XZ 00435f18 f i libucrt:output.obj
 0001:00034f1e       ?state_transition_table@?$standard_base@DV?$string_output_adapter@D@__crt_stdio_output@@@__crt_stdio_output@@KAABV?$spectre_mitigated_lookup_table@Ustate_transition_pair@__crt_stdio_output@@$0IA@@2@XZ 00435f1e f i libucrt:output.obj
 0001:00034f24       ?state_transition_table@?$standard_base@_WV?$stream_output_adapter@_W@__crt_stdio_output@@@__crt_stdio_output@@KAABV?$spectre_mitigated_lookup_table@Ustate_transition_pair@__crt_stdio_output@@$0IA@@2@XZ 00435f24 f i libucrt:output.obj
 0001:00034f2a       ?state_transition_table@?$standard_base@_WV?$string_output_adapter@_W@__crt_stdio_output@@@__crt_stdio_output@@KAABV?$spectre_mitigated_lookup_table@Ustate_transition_pair@__crt_stdio_output@@$0IA@@2@XZ 00435f2a f i libucrt:output.obj
 0001:00034f30       ?tchar_string@?$common_data@D@__crt_stdio_output@@IAEAAPADD@Z 00435f30 f i libucrt:output.obj
 0001:00034f36       ?tchar_string@?$common_data@D@__crt_stdio_output@@IAEAAPADXZ 00435f36 f i libucrt:output.obj
 0001:00034f3a       ?tchar_string@?$common_data@_W@__crt_stdio_output@@IAEAAPA_WXZ 00435f3a f i libucrt:output.obj
 0001:00034f3e       ?tchar_string@?$common_data@_W@__crt_stdio_output@@IAEAAPA_W_W@Z 00435f3e f i libucrt:output.obj
 0001:00034f44       ?to_integer_size@__crt_stdio_output@@YAIW4length_modifier@1@@Z 00435f44 f i libucrt:output.obj
 0001:00034fad       ?type_case_X@?$output_processor@DV?$stream_output_adapter@D@__crt_stdio_output@@V?$format_validation_base@DV?$stream_output_adapter@D@__crt_stdio_output@@@2@@__crt_stdio_output@@AAE_NXZ 00435fad f i libucrt:output.obj
 0001:00034fb7       ?type_case_X@?$output_processor@DV?$stream_output_adapter@D@__crt_stdio_output@@V?$positional_parameter_base@DV?$stream_output_adapter@D@__crt_stdio_output@@@2@@__crt_stdio_output@@AAE_NXZ 00435fb7 f i libucrt:output.obj
 0001:00034fc1       ?type_case_X@?$output_processor@DV?$stream_output_adapter@D@__crt_stdio_output@@V?$standard_base@DV?$stream_output_adapter@D@__crt_stdio_output@@@2@@__crt_stdio_output@@AAE_NXZ 00435fc1 f i libucrt:output.obj
 0001:00034fcb       ?type_case_X@?$output_processor@DV?$string_output_adapter@D@__crt_stdio_output@@V?$format_validation_base@DV?$string_output_adapter@D@__crt_stdio_output@@@2@@__crt_stdio_output@@AAE_NXZ 00435fcb f i libucrt:output.obj
 0001:00034fd5       ?type_case_X@?$output_processor@DV?$string_output_adapter@D@__crt_stdio_output@@V?$positional_parameter_base@DV?$string_output_adapter@D@__crt_stdio_output@@@2@@__crt_stdio_output@@AAE_NXZ 00435fd5 f i libucrt:output.obj
 0001:00034fdf       ?type_case_X@?$output_processor@DV?$string_output_adapter@D@__crt_stdio_output@@V?$standard_base@DV?$string_output_adapter@D@__crt_stdio_output@@@2@@__crt_stdio_output@@AAE_NXZ 00435fdf f i libucrt:output.obj
 0001:00034fe9       ?type_case_X@?$output_processor@_WV?$stream_output_adapter@_W@__crt_stdio_output@@V?$format_validation_base@_WV?$stream_output_adapter@_W@__crt_stdio_output@@@2@@__crt_stdio_output@@AAE_NXZ 00435fe9 f i libucrt:output.obj
 0001:00034ff3       ?type_case_X@?$output_processor@_WV?$stream_output_adapter@_W@__crt_stdio_output@@V?$positional_parameter_base@_WV?$stream_output_adapter@_W@__crt_stdio_output@@@2@@__crt_stdio_output@@AAE_NXZ 00435ff3 f i libucrt:output.obj
 0001:00034ffd       ?type_case_X@?$output_processor@_WV?$stream_output_adapter@_W@__crt_stdio_output@@V?$standard_base@_WV?$stream_output_adapter@_W@__crt_stdio_output@@@2@@__crt_stdio_output@@AAE_NXZ 00435ffd f i libucrt:output.obj
 0001:00035007       ?type_case_X@?$output_processor@_WV?$string_output_adapter@_W@__crt_stdio_output@@V?$format_validation_base@_WV?$string_output_adapter@_W@__crt_stdio_output@@@2@@__crt_stdio_output@@AAE_NXZ 00436007 f i libucrt:output.obj
 0001:00035011       ?type_case_X@?$output_processor@_WV?$string_output_adapter@_W@__crt_stdio_output@@V?$positional_parameter_base@_WV?$string_output_adapter@_W@__crt_stdio_output@@@2@@__crt_stdio_output@@AAE_NXZ 00436011 f i libucrt:output.obj
 0001:0003501b       ?type_case_X@?$output_processor@_WV?$string_output_adapter@_W@__crt_stdio_output@@V?$standard_base@_WV?$string_output_adapter@_W@__crt_stdio_output@@@2@@__crt_stdio_output@@AAE_NXZ 0043601b f i libucrt:output.obj
 0001:00035025       ?type_case_Z@?$output_processor@DV?$stream_output_adapter@D@__crt_stdio_output@@V?$format_validation_base@DV?$stream_output_adapter@D@__crt_stdio_output@@@2@@__crt_stdio_output@@AAE_NXZ 00436025 f i libucrt:output.obj
 0001:000350a0       ?type_case_Z@?$output_processor@DV?$stream_output_adapter@D@__crt_stdio_output@@V?$positional_parameter_base@DV?$stream_output_adapter@D@__crt_stdio_output@@@2@@__crt_stdio_output@@AAE_NXZ 004360a0 f i libucrt:output.obj
 0001:00035138       ?type_case_Z@?$output_processor@DV?$stream_output_adapter@D@__crt_stdio_output@@V?$standard_base@DV?$stream_output_adapter@D@__crt_stdio_output@@@2@@__crt_stdio_output@@AAE_NXZ 00436138 f i libucrt:output.obj
 0001:000351b3       ?type_case_Z@?$output_processor@DV?$string_output_adapter@D@__crt_stdio_output@@V?$format_validation_base@DV?$string_output_adapter@D@__crt_stdio_output@@@2@@__crt_stdio_output@@AAE_NXZ 004361b3 f i libucrt:output.obj
 0001:0003522e       ?type_case_Z@?$output_processor@DV?$string_output_adapter@D@__crt_stdio_output@@V?$positional_parameter_base@DV?$string_output_adapter@D@__crt_stdio_output@@@2@@__crt_stdio_output@@AAE_NXZ 0043622e f i libucrt:output.obj
 0001:000352c6       ?type_case_Z@?$output_processor@DV?$string_output_adapter@D@__crt_stdio_output@@V?$standard_base@DV?$string_output_adapter@D@__crt_stdio_output@@@2@@__crt_stdio_output@@AAE_NXZ 004362c6 f i libucrt:output.obj
 0001:00035341       ?type_case_Z@?$output_processor@_WV?$stream_output_adapter@_W@__crt_stdio_output@@V?$format_validation_base@_WV?$stream_output_adapter@_W@__crt_stdio_output@@@2@@__crt_stdio_output@@AAE_NXZ 00436341 f i libucrt:output.obj
 0001:000353bc       ?type_case_Z@?$output_processor@_WV?$stream_output_adapter@_W@__crt_stdio_output@@V?$positional_parameter_base@_WV?$stream_output_adapter@_W@__crt_stdio_output@@@2@@__crt_stdio_output@@AAE_NXZ 004363bc f i libucrt:output.obj
 0001:00035454       ?type_case_Z@?$output_processor@_WV?$stream_output_adapter@_W@__crt_stdio_output@@V?$standard_base@_WV?$stream_output_adapter@_W@__crt_stdio_output@@@2@@__crt_stdio_output@@AAE_NXZ 00436454 f i libucrt:output.obj
 0001:000354cf       ?type_case_Z@?$output_processor@_WV?$string_output_adapter@_W@__crt_stdio_output@@V?$format_validation_base@_WV?$string_output_adapter@_W@__crt_stdio_output@@@2@@__crt_stdio_output@@AAE_NXZ 004364cf f i libucrt:output.obj
 0001:0003554a       ?type_case_Z@?$output_processor@_WV?$string_output_adapter@_W@__crt_stdio_output@@V?$positional_parameter_base@_WV?$string_output_adapter@_W@__crt_stdio_output@@@2@@__crt_stdio_output@@AAE_NXZ 0043654a f i libucrt:output.obj
 0001:000355e2       ?type_case_Z@?$output_processor@_WV?$string_output_adapter@_W@__crt_stdio_output@@V?$standard_base@_WV?$string_output_adapter@_W@__crt_stdio_output@@@2@@__crt_stdio_output@@AAE_NXZ 004365e2 f i libucrt:output.obj
 0001:0003565d       ?type_case_a@?$output_processor@DV?$stream_output_adapter@D@__crt_stdio_output@@V?$format_validation_base@DV?$stream_output_adapter@D@__crt_stdio_output@@@2@@__crt_stdio_output@@AAE_NXZ 0043665d f i libucrt:output.obj
 0001:00035852       ?type_case_a@?$output_processor@DV?$stream_output_adapter@D@__crt_stdio_output@@V?$positional_parameter_base@DV?$stream_output_adapter@D@__crt_stdio_output@@@2@@__crt_stdio_output@@AAE_NXZ 00436852 f i libucrt:output.obj
 0001:00035a6b       ?type_case_a@?$output_processor@DV?$stream_output_adapter@D@__crt_stdio_output@@V?$standard_base@DV?$stream_output_adapter@D@__crt_stdio_output@@@2@@__crt_stdio_output@@AAE_NXZ 00436a6b f i libucrt:output.obj
 0001:00035c60       ?type_case_a@?$output_processor@DV?$string_output_adapter@D@__crt_stdio_output@@V?$format_validation_base@DV?$string_output_adapter@D@__crt_stdio_output@@@2@@__crt_stdio_output@@AAE_NXZ 00436c60 f i libucrt:output.obj
 0001:00035e55       ?type_case_a@?$output_processor@DV?$string_output_adapter@D@__crt_stdio_output@@V?$positional_parameter_base@DV?$string_output_adapter@D@__crt_stdio_output@@@2@@__crt_stdio_output@@AAE_NXZ 00436e55 f i libucrt:output.obj
 0001:0003606e       ?type_case_a@?$output_processor@DV?$string_output_adapter@D@__crt_stdio_output@@V?$standard_base@DV?$string_output_adapter@D@__crt_stdio_output@@@2@@__crt_stdio_output@@AAE_NXZ 0043706e f i libucrt:output.obj
 0001:00036263       ?type_case_a@?$output_processor@_WV?$stream_output_adapter@_W@__crt_stdio_output@@V?$format_validation_base@_WV?$stream_output_adapter@_W@__crt_stdio_output@@@2@@__crt_stdio_output@@AAE_NXZ 00437263 f i libucrt:output.obj
 0001:00036473       ?type_case_a@?$output_processor@_WV?$stream_output_adapter@_W@__crt_stdio_output@@V?$positional_parameter_base@_WV?$stream_output_adapter@_W@__crt_stdio_output@@@2@@__crt_stdio_output@@AAE_NXZ 00437473 f i libucrt:output.obj
 0001:000366a8       ?type_case_a@?$output_processor@_WV?$stream_output_adapter@_W@__crt_stdio_output@@V?$standard_base@_WV?$stream_output_adapter@_W@__crt_stdio_output@@@2@@__crt_stdio_output@@AAE_NXZ 004376a8 f i libucrt:output.obj
 0001:000368b8       ?type_case_a@?$output_processor@_WV?$string_output_adapter@_W@__crt_stdio_output@@V?$format_validation_base@_WV?$string_output_adapter@_W@__crt_stdio_output@@@2@@__crt_stdio_output@@AAE_NXZ 004378b8 f i libucrt:output.obj
 0001:00036ac8       ?type_case_a@?$output_processor@_WV?$string_output_adapter@_W@__crt_stdio_output@@V?$positional_parameter_base@_WV?$string_output_adapter@_W@__crt_stdio_output@@@2@@__crt_stdio_output@@AAE_NXZ 00437ac8 f i libucrt:output.obj
 0001:00036cfd       ?type_case_a@?$output_processor@_WV?$string_output_adapter@_W@__crt_stdio_output@@V?$standard_base@_WV?$string_output_adapter@_W@__crt_stdio_output@@@2@@__crt_stdio_output@@AAE_NXZ 00437cfd f i libucrt:output.obj
 0001:00036f0d       ?type_case_c@?$output_processor@DV?$stream_output_adapter@D@__crt_stdio_output@@V?$format_validation_base@DV?$stream_output_adapter@D@__crt_stdio_output@@@2@@__crt_stdio_output@@AAE_NXZ 00437f0d f i libucrt:output.obj
 0001:00036f17       ?type_case_c@?$output_processor@DV?$stream_output_adapter@D@__crt_stdio_output@@V?$positional_parameter_base@DV?$stream_output_adapter@D@__crt_stdio_output@@@2@@__crt_stdio_output@@AAE_NXZ 00437f17 f i libucrt:output.obj
 0001:00036f21       ?type_case_c@?$output_processor@DV?$stream_output_adapter@D@__crt_stdio_output@@V?$standard_base@DV?$stream_output_adapter@D@__crt_stdio_output@@@2@@__crt_stdio_output@@AAE_NXZ 00437f21 f i libucrt:output.obj
 0001:00036f2b       ?type_case_c@?$output_processor@DV?$string_output_adapter@D@__crt_stdio_output@@V?$format_validation_base@DV?$string_output_adapter@D@__crt_stdio_output@@@2@@__crt_stdio_output@@AAE_NXZ 00437f2b f i libucrt:output.obj
 0001:00036f35       ?type_case_c@?$output_processor@DV?$string_output_adapter@D@__crt_stdio_output@@V?$positional_parameter_base@DV?$string_output_adapter@D@__crt_stdio_output@@@2@@__crt_stdio_output@@AAE_NXZ 00437f35 f i libucrt:output.obj
 0001:00036f3f       ?type_case_c@?$output_processor@DV?$string_output_adapter@D@__crt_stdio_output@@V?$standard_base@DV?$string_output_adapter@D@__crt_stdio_output@@@2@@__crt_stdio_output@@AAE_NXZ 00437f3f f i libucrt:output.obj
 0001:00036f49       ?type_case_c@?$output_processor@_WV?$stream_output_adapter@_W@__crt_stdio_output@@V?$format_validation_base@_WV?$stream_output_adapter@_W@__crt_stdio_output@@@2@@__crt_stdio_output@@AAE_NXZ 00437f49 f i libucrt:output.obj
 0001:00036f53       ?type_case_c@?$output_processor@_WV?$stream_output_adapter@_W@__crt_stdio_output@@V?$positional_parameter_base@_WV?$stream_output_adapter@_W@__crt_stdio_output@@@2@@__crt_stdio_output@@AAE_NXZ 00437f53 f i libucrt:output.obj
 0001:00036f5d       ?type_case_c@?$output_processor@_WV?$stream_output_adapter@_W@__crt_stdio_output@@V?$standard_base@_WV?$stream_output_adapter@_W@__crt_stdio_output@@@2@@__crt_stdio_output@@AAE_NXZ 00437f5d f i libucrt:output.obj
 0001:00036f67       ?type_case_c@?$output_processor@_WV?$string_output_adapter@_W@__crt_stdio_output@@V?$format_validation_base@_WV?$string_output_adapter@_W@__crt_stdio_output@@@2@@__crt_stdio_output@@AAE_NXZ 00437f67 f i libucrt:output.obj
 0001:00036f71       ?type_case_c@?$output_processor@_WV?$string_output_adapter@_W@__crt_stdio_output@@V?$positional_parameter_base@_WV?$string_output_adapter@_W@__crt_stdio_output@@@2@@__crt_stdio_output@@AAE_NXZ 00437f71 f i libucrt:output.obj
 0001:00036f7b       ?type_case_c@?$output_processor@_WV?$string_output_adapter@_W@__crt_stdio_output@@V?$standard_base@_WV?$string_output_adapter@_W@__crt_stdio_output@@@2@@__crt_stdio_output@@AAE_NXZ 00437f7b f i libucrt:output.obj
 0001:00036f85       ?type_case_c_tchar@?$output_processor@DV?$stream_output_adapter@D@__crt_stdio_output@@V?$format_validation_base@DV?$stream_output_adapter@D@__crt_stdio_output@@@2@@__crt_stdio_output@@AAE_ND@Z 00437f85 f i libucrt:output.obj
 0001:0003703f       ?type_case_c_tchar@?$output_processor@DV?$stream_output_adapter@D@__crt_stdio_output@@V?$positional_parameter_base@DV?$stream_output_adapter@D@__crt_stdio_output@@@2@@__crt_stdio_output@@AAE_ND@Z 0043803f f i libucrt:output.obj
 0001:0003712d       ?type_case_c_tchar@?$output_processor@DV?$stream_output_adapter@D@__crt_stdio_output@@V?$standard_base@DV?$stream_output_adapter@D@__crt_stdio_output@@@2@@__crt_stdio_output@@AAE_ND@Z 0043812d f i libucrt:output.obj
 0001:000371e7       ?type_case_c_tchar@?$output_processor@DV?$string_output_adapter@D@__crt_stdio_output@@V?$format_validation_base@DV?$string_output_adapter@D@__crt_stdio_output@@@2@@__crt_stdio_output@@AAE_ND@Z 004381e7 f i libucrt:output.obj
 0001:000372a1       ?type_case_c_tchar@?$output_processor@DV?$string_output_adapter@D@__crt_stdio_output@@V?$positional_parameter_base@DV?$string_output_adapter@D@__crt_stdio_output@@@2@@__crt_stdio_output@@AAE_ND@Z 004382a1 f i libucrt:output.obj
 0001:0003738f       ?type_case_c_tchar@?$output_processor@DV?$string_output_adapter@D@__crt_stdio_output@@V?$standard_base@DV?$string_output_adapter@D@__crt_stdio_output@@@2@@__crt_stdio_output@@AAE_ND@Z 0043838f f i libucrt:output.obj
 0001:00037449       ?type_case_c_tchar@?$output_processor@_WV?$stream_output_adapter@_W@__crt_stdio_output@@V?$format_validation_base@_WV?$stream_output_adapter@_W@__crt_stdio_output@@@2@@__crt_stdio_output@@AAE_N_W@Z 00438449 f i libucrt:output.obj
 0001:0003751b       ?type_case_c_tchar@?$output_processor@_WV?$stream_output_adapter@_W@__crt_stdio_output@@V?$positional_parameter_base@_WV?$stream_output_adapter@_W@__crt_stdio_output@@@2@@__crt_stdio_output@@AAE_N_W@Z 0043851b f i libucrt:output.obj
 0001:00037618       ?type_case_c_tchar@?$output_processor@_WV?$stream_output_adapter@_W@__crt_stdio_output@@V?$standard_base@_WV?$stream_output_adapter@_W@__crt_stdio_output@@@2@@__crt_stdio_output@@AAE_N_W@Z 00438618 f i libucrt:output.obj
 0001:000376ea       ?type_case_c_tchar@?$output_processor@_WV?$string_output_adapter@_W@__crt_stdio_output@@V?$format_validation_base@_WV?$string_output_adapter@_W@__crt_stdio_output@@@2@@__crt_stdio_output@@AAE_N_W@Z 004386ea f i libucrt:output.obj
 0001:000377bc       ?type_case_c_tchar@?$output_processor@_WV?$string_output_adapter@_W@__crt_stdio_output@@V?$positional_parameter_base@_WV?$string_output_adapter@_W@__crt_stdio_output@@@2@@__crt_stdio_output@@AAE_N_W@Z 004387bc f i libucrt:output.obj
 0001:000378b9       ?type_case_c_tchar@?$output_processor@_WV?$string_output_adapter@_W@__crt_stdio_output@@V?$standard_base@_WV?$string_output_adapter@_W@__crt_stdio_output@@@2@@__crt_stdio_output@@AAE_N_W@Z 004388b9 f i libucrt:output.obj
 0001:0003798b       ?type_case_d@?$output_processor@DV?$stream_output_adapter@D@__crt_stdio_output@@V?$format_validation_base@DV?$stream_output_adapter@D@__crt_stdio_output@@@2@@__crt_stdio_output@@AAE_NXZ 0043898b f i libucrt:output.obj
 0001:0003799a       ?type_case_d@?$output_processor@DV?$stream_output_adapter@D@__crt_stdio_output@@V?$positional_parameter_base@DV?$stream_output_adapter@D@__crt_stdio_output@@@2@@__crt_stdio_output@@AAE_NXZ 0043899a f i libucrt:output.obj
 0001:000379a9       ?type_case_d@?$output_processor@DV?$stream_output_adapter@D@__crt_stdio_output@@V?$standard_base@DV?$stream_output_adapter@D@__crt_stdio_output@@@2@@__crt_stdio_output@@AAE_NXZ 004389a9 f i libucrt:output.obj
 0001:000379b8       ?type_case_d@?$output_processor@DV?$string_output_adapter@D@__crt_stdio_output@@V?$format_validation_base@DV?$string_output_adapter@D@__crt_stdio_output@@@2@@__crt_stdio_output@@AAE_NXZ 004389b8 f i libucrt:output.obj
 0001:000379c7       ?type_case_d@?$output_processor@DV?$string_output_adapter@D@__crt_stdio_output@@V?$positional_parameter_base@DV?$string_output_adapter@D@__crt_stdio_output@@@2@@__crt_stdio_output@@AAE_NXZ 004389c7 f i libucrt:output.obj
 0001:000379d6       ?type_case_d@?$output_processor@DV?$string_output_adapter@D@__crt_stdio_output@@V?$standard_base@DV?$string_output_adapter@D@__crt_stdio_output@@@2@@__crt_stdio_output@@AAE_NXZ 004389d6 f i libucrt:output.obj
 0001:000379e5       ?type_case_d@?$output_processor@_WV?$stream_output_adapter@_W@__crt_stdio_output@@V?$format_validation_base@_WV?$stream_output_adapter@_W@__crt_stdio_output@@@2@@__crt_stdio_output@@AAE_NXZ 004389e5 f i libucrt:output.obj
 0001:000379f4       ?type_case_d@?$output_processor@_WV?$stream_output_adapter@_W@__crt_stdio_output@@V?$positional_parameter_base@_WV?$stream_output_adapter@_W@__crt_stdio_output@@@2@@__crt_stdio_output@@AAE_NXZ 004389f4 f i libucrt:output.obj
 0001:00037a03       ?type_case_d@?$output_processor@_WV?$stream_output_adapter@_W@__crt_stdio_output@@V?$standard_base@_WV?$stream_output_adapter@_W@__crt_stdio_output@@@2@@__crt_stdio_output@@AAE_NXZ 00438a03 f i libucrt:output.obj
 0001:00037a12       ?type_case_d@?$output_processor@_WV?$string_output_adapter@_W@__crt_stdio_output@@V?$format_validation_base@_WV?$string_output_adapter@_W@__crt_stdio_output@@@2@@__crt_stdio_output@@AAE_NXZ 00438a12 f i libucrt:output.obj
 0001:00037a21       ?type_case_d@?$output_processor@_WV?$string_output_adapter@_W@__crt_stdio_output@@V?$positional_parameter_base@_WV?$string_output_adapter@_W@__crt_stdio_output@@@2@@__crt_stdio_output@@AAE_NXZ 00438a21 f i libucrt:output.obj
 0001:00037a30       ?type_case_d@?$output_processor@_WV?$string_output_adapter@_W@__crt_stdio_output@@V?$standard_base@_WV?$string_output_adapter@_W@__crt_stdio_output@@@2@@__crt_stdio_output@@AAE_NXZ 00438a30 f i libucrt:output.obj
 0001:00037a3f       ?type_case_n@?$output_processor@DV?$stream_output_adapter@D@__crt_stdio_output@@V?$format_validation_base@DV?$stream_output_adapter@D@__crt_stdio_output@@@2@@__crt_stdio_output@@AAE_NXZ 00438a3f f i libucrt:output.obj
 0001:00037ae5       ?type_case_n@?$output_processor@DV?$stream_output_adapter@D@__crt_stdio_output@@V?$positional_parameter_base@DV?$stream_output_adapter@D@__crt_stdio_output@@@2@@__crt_stdio_output@@AAE_NXZ 00438ae5 f i libucrt:output.obj
 0001:00037bbd       ?type_case_n@?$output_processor@DV?$stream_output_adapter@D@__crt_stdio_output@@V?$standard_base@DV?$stream_output_adapter@D@__crt_stdio_output@@@2@@__crt_stdio_output@@AAE_NXZ 00438bbd f i libucrt:output.obj
 0001:00037c63       ?type_case_n@?$output_processor@DV?$string_output_adapter@D@__crt_stdio_output@@V?$format_validation_base@DV?$string_output_adapter@D@__crt_stdio_output@@@2@@__crt_stdio_output@@AAE_NXZ 00438c63 f i libucrt:output.obj
 0001:00037d09       ?type_case_n@?$output_processor@DV?$string_output_adapter@D@__crt_stdio_output@@V?$positional_parameter_base@DV?$string_output_adapter@D@__crt_stdio_output@@@2@@__crt_stdio_output@@AAE_NXZ 00438d09 f i libucrt:output.obj
 0001:00037de1       ?type_case_n@?$output_processor@DV?$string_output_adapter@D@__crt_stdio_output@@V?$standard_base@DV?$string_output_adapter@D@__crt_stdio_output@@@2@@__crt_stdio_output@@AAE_NXZ 00438de1 f i libucrt:output.obj
 0001:00037e87       ?type_case_n@?$output_processor@_WV?$stream_output_adapter@_W@__crt_stdio_output@@V?$format_validation_base@_WV?$stream_output_adapter@_W@__crt_stdio_output@@@2@@__crt_stdio_output@@AAE_NXZ 00438e87 f i libucrt:output.obj
 0001:00037f2d       ?type_case_n@?$output_processor@_WV?$stream_output_adapter@_W@__crt_stdio_output@@V?$positional_parameter_base@_WV?$stream_output_adapter@_W@__crt_stdio_output@@@2@@__crt_stdio_output@@AAE_NXZ 00438f2d f i libucrt:output.obj
 0001:00038005       ?type_case_n@?$output_processor@_WV?$stream_output_adapter@_W@__crt_stdio_output@@V?$standard_base@_WV?$stream_output_adapter@_W@__crt_stdio_output@@@2@@__crt_stdio_output@@AAE_NXZ 00439005 f i libucrt:output.obj
 0001:000380ab       ?type_case_n@?$output_processor@_WV?$string_output_adapter@_W@__crt_stdio_output@@V?$format_validation_base@_WV?$string_output_adapter@_W@__crt_stdio_output@@@2@@__crt_stdio_output@@AAE_NXZ 004390ab f i libucrt:output.obj
 0001:00038151       ?type_case_n@?$output_processor@_WV?$string_output_adapter@_W@__crt_stdio_output@@V?$positional_parameter_base@_WV?$string_output_adapter@_W@__crt_stdio_output@@@2@@__crt_stdio_output@@AAE_NXZ 00439151 f i libucrt:output.obj
 0001:00038229       ?type_case_n@?$output_processor@_WV?$string_output_adapter@_W@__crt_stdio_output@@V?$standard_base@_WV?$string_output_adapter@_W@__crt_stdio_output@@@2@@__crt_stdio_output@@AAE_NXZ 00439229 f i libucrt:output.obj
 0001:000382cf       ?type_case_o@?$output_processor@DV?$stream_output_adapter@D@__crt_stdio_output@@V?$format_validation_base@DV?$stream_output_adapter@D@__crt_stdio_output@@@2@@__crt_stdio_output@@AAE_NXZ 004392cf f i libucrt:output.obj
 0001:000382f3       ?type_case_o@?$output_processor@DV?$stream_output_adapter@D@__crt_stdio_output@@V?$positional_parameter_base@DV?$stream_output_adapter@D@__crt_stdio_output@@@2@@__crt_stdio_output@@AAE_NXZ 004392f3 f i libucrt:output.obj
 0001:00038317       ?type_case_o@?$output_processor@DV?$stream_output_adapter@D@__crt_stdio_output@@V?$standard_base@DV?$stream_output_adapter@D@__crt_stdio_output@@@2@@__crt_stdio_output@@AAE_NXZ 00439317 f i libucrt:output.obj
 0001:0003833b       ?type_case_o@?$output_processor@DV?$string_output_adapter@D@__crt_stdio_output@@V?$format_validation_base@DV?$string_output_adapter@D@__crt_stdio_output@@@2@@__crt_stdio_output@@AAE_NXZ 0043933b f i libucrt:output.obj
 0001:0003835f       ?type_case_o@?$output_processor@DV?$string_output_adapter@D@__crt_stdio_output@@V?$positional_parameter_base@DV?$string_output_adapter@D@__crt_stdio_output@@@2@@__crt_stdio_output@@AAE_NXZ 0043935f f i libucrt:output.obj
 0001:00038383       ?type_case_o@?$output_processor@DV?$string_output_adapter@D@__crt_stdio_output@@V?$standard_base@DV?$string_output_adapter@D@__crt_stdio_output@@@2@@__crt_stdio_output@@AAE_NXZ 00439383 f i libucrt:output.obj
 0001:000383a7       ?type_case_o@?$output_processor@_WV?$stream_output_adapter@_W@__crt_stdio_output@@V?$format_validation_base@_WV?$stream_output_adapter@_W@__crt_stdio_output@@@2@@__crt_stdio_output@@AAE_NXZ 004393a7 f i libucrt:output.obj
 0001:000383cb       ?type_case_o@?$output_processor@_WV?$stream_output_adapter@_W@__crt_stdio_output@@V?$positional_parameter_base@_WV?$stream_output_adapter@_W@__crt_stdio_output@@@2@@__crt_stdio_output@@AAE_NXZ 004393cb f i libucrt:output.obj
 0001:000383ef       ?type_case_o@?$output_processor@_WV?$stream_output_adapter@_W@__crt_stdio_output@@V?$standard_base@_WV?$stream_output_adapter@_W@__crt_stdio_output@@@2@@__crt_stdio_output@@AAE_NXZ 004393ef f i libucrt:output.obj
 0001:00038413       ?type_case_o@?$output_processor@_WV?$string_output_adapter@_W@__crt_stdio_output@@V?$format_validation_base@_WV?$string_output_adapter@_W@__crt_stdio_output@@@2@@__crt_stdio_output@@AAE_NXZ 00439413 f i libucrt:output.obj
 0001:00038437       ?type_case_o@?$output_processor@_WV?$string_output_adapter@_W@__crt_stdio_output@@V?$positional_parameter_base@_WV?$string_output_adapter@_W@__crt_stdio_output@@@2@@__crt_stdio_output@@AAE_NXZ 00439437 f i libucrt:output.obj
 0001:0003845b       ?type_case_o@?$output_processor@_WV?$string_output_adapter@_W@__crt_stdio_output@@V?$standard_base@_WV?$string_output_adapter@_W@__crt_stdio_output@@@2@@__crt_stdio_output@@AAE_NXZ 0043945b f i libucrt:output.obj
 0001:0003847f       ?type_case_p@?$output_processor@DV?$stream_output_adapter@D@__crt_stdio_output@@V?$format_validation_base@DV?$stream_output_adapter@D@__crt_stdio_output@@@2@@__crt_stdio_output@@AAE_NXZ 0043947f f i libucrt:output.obj
 0001:0003849a       ?type_case_p@?$output_processor@DV?$stream_output_adapter@D@__crt_stdio_output@@V?$positional_parameter_base@DV?$stream_output_adapter@D@__crt_stdio_output@@@2@@__crt_stdio_output@@AAE_NXZ 0043949a f i libucrt:output.obj
 0001:000384b5       ?type_case_p@?$output_processor@DV?$stream_output_adapter@D@__crt_stdio_output@@V?$standard_base@DV?$stream_output_adapter@D@__crt_stdio_output@@@2@@__crt_stdio_output@@AAE_NXZ 004394b5 f i libucrt:output.obj
 0001:000384d0       ?type_case_p@?$output_processor@DV?$string_output_adapter@D@__crt_stdio_output@@V?$format_validation_base@DV?$string_output_adapter@D@__crt_stdio_output@@@2@@__crt_stdio_output@@AAE_NXZ 004394d0 f i libucrt:output.obj
 0001:000384eb       ?type_case_p@?$output_processor@DV?$string_output_adapter@D@__crt_stdio_output@@V?$positional_parameter_base@DV?$string_output_adapter@D@__crt_stdio_output@@@2@@__crt_stdio_output@@AAE_NXZ 004394eb f i libucrt:output.obj
 0001:00038506       ?type_case_p@?$output_processor@DV?$string_output_adapter@D@__crt_stdio_output@@V?$standard_base@DV?$string_output_adapter@D@__crt_stdio_output@@@2@@__crt_stdio_output@@AAE_NXZ 00439506 f i libucrt:output.obj
 0001:00038521       ?type_case_p@?$output_processor@_WV?$stream_output_adapter@_W@__crt_stdio_output@@V?$format_validation_base@_WV?$stream_output_adapter@_W@__crt_stdio_output@@@2@@__crt_stdio_output@@AAE_NXZ 00439521 f i libucrt:output.obj
 0001:0003853c       ?type_case_p@?$output_processor@_WV?$stream_output_adapter@_W@__crt_stdio_output@@V?$positional_parameter_base@_WV?$stream_output_adapter@_W@__crt_stdio_output@@@2@@__crt_stdio_output@@AAE_NXZ 0043953c f i libucrt:output.obj
 0001:00038557       ?type_case_p@?$output_processor@_WV?$stream_output_adapter@_W@__crt_stdio_output@@V?$standard_base@_WV?$stream_output_adapter@_W@__crt_stdio_output@@@2@@__crt_stdio_output@@AAE_NXZ 00439557 f i libucrt:output.obj
 0001:00038572       ?type_case_p@?$output_processor@_WV?$string_output_adapter@_W@__crt_stdio_output@@V?$format_validation_base@_WV?$string_output_adapter@_W@__crt_stdio_output@@@2@@__crt_stdio_output@@AAE_NXZ 00439572 f i libucrt:output.obj
 0001:0003858d       ?type_case_p@?$output_processor@_WV?$string_output_adapter@_W@__crt_stdio_output@@V?$positional_parameter_base@_WV?$string_output_adapter@_W@__crt_stdio_output@@@2@@__crt_stdio_output@@AAE_NXZ 0043958d f i libucrt:output.obj
 0001:000385a8       ?type_case_p@?$output_processor@_WV?$string_output_adapter@_W@__crt_stdio_output@@V?$standard_base@_WV?$string_output_adapter@_W@__crt_stdio_output@@@2@@__crt_stdio_output@@AAE_NXZ 004395a8 f i libucrt:output.obj
 0001:000385c3       ?type_case_s@?$output_processor@DV?$stream_output_adapter@D@__crt_stdio_output@@V?$format_validation_base@DV?$stream_output_adapter@D@__crt_stdio_output@@@2@@__crt_stdio_output@@AAE_NXZ 004395c3 f i libucrt:output.obj
 0001:00038651       ?type_case_s@?$output_processor@DV?$stream_output_adapter@D@__crt_stdio_output@@V?$positional_parameter_base@DV?$stream_output_adapter@D@__crt_stdio_output@@@2@@__crt_stdio_output@@AAE_NXZ 00439651 f i libucrt:output.obj
 0001:000386ee       ?type_case_s@?$output_processor@DV?$stream_output_adapter@D@__crt_stdio_output@@V?$standard_base@DV?$stream_output_adapter@D@__crt_stdio_output@@@2@@__crt_stdio_output@@AAE_NXZ 004396ee f i libucrt:output.obj
 0001:0003877c       ?type_case_s@?$output_processor@DV?$string_output_adapter@D@__crt_stdio_output@@V?$format_validation_base@DV?$string_output_adapter@D@__crt_stdio_output@@@2@@__crt_stdio_output@@AAE_NXZ 0043977c f i libucrt:output.obj
 0001:0003880a       ?type_case_s@?$output_processor@DV?$string_output_adapter@D@__crt_stdio_output@@V?$positional_parameter_base@DV?$string_output_adapter@D@__crt_stdio_output@@@2@@__crt_stdio_output@@AAE_NXZ 0043980a f i libucrt:output.obj
 0001:000388a7       ?type_case_s@?$output_processor@DV?$string_output_adapter@D@__crt_stdio_output@@V?$standard_base@DV?$string_output_adapter@D@__crt_stdio_output@@@2@@__crt_stdio_output@@AAE_NXZ 004398a7 f i libucrt:output.obj
 0001:00038935       ?type_case_s@?$output_processor@_WV?$stream_output_adapter@_W@__crt_stdio_output@@V?$format_validation_base@_WV?$stream_output_adapter@_W@__crt_stdio_output@@@2@@__crt_stdio_output@@AAE_NXZ 00439935 f i libucrt:output.obj
 0001:000389c6       ?type_case_s@?$output_processor@_WV?$stream_output_adapter@_W@__crt_stdio_output@@V?$positional_parameter_base@_WV?$stream_output_adapter@_W@__crt_stdio_output@@@2@@__crt_stdio_output@@AAE_NXZ 004399c6 f i libucrt:output.obj
 0001:00038a66       ?type_case_s@?$output_processor@_WV?$stream_output_adapter@_W@__crt_stdio_output@@V?$standard_base@_WV?$stream_output_adapter@_W@__crt_stdio_output@@@2@@__crt_stdio_output@@AAE_NXZ 00439a66 f i libucrt:output.obj
 0001:00038af7       ?type_case_s@?$output_processor@_WV?$string_output_adapter@_W@__crt_stdio_output@@V?$format_validation_base@_WV?$string_output_adapter@_W@__crt_stdio_output@@@2@@__crt_stdio_output@@AAE_NXZ 00439af7 f i libucrt:output.obj
 0001:00038b88       ?type_case_s@?$output_processor@_WV?$string_output_adapter@_W@__crt_stdio_output@@V?$positional_parameter_base@_WV?$string_output_adapter@_W@__crt_stdio_output@@@2@@__crt_stdio_output@@AAE_NXZ 00439b88 f i libucrt:output.obj
 0001:00038c28       ?type_case_s@?$output_processor@_WV?$string_output_adapter@_W@__crt_stdio_output@@V?$standard_base@_WV?$string_output_adapter@_W@__crt_stdio_output@@@2@@__crt_stdio_output@@AAE_NXZ 00439c28 f i libucrt:output.obj
 0001:00038cb9       ?type_case_s_compute_narrow_string_length@?$output_processor@DV?$stream_output_adapter@D@__crt_stdio_output@@V?$format_validation_base@DV?$stream_output_adapter@D@__crt_stdio_output@@@2@@__crt_stdio_output@@AAEHHD@Z 00439cb9 f i libucrt:output.obj
 0001:00038cd4       ?type_case_s_compute_narrow_string_length@?$output_processor@DV?$stream_output_adapter@D@__crt_stdio_output@@V?$positional_parameter_base@DV?$stream_output_adapter@D@__crt_stdio_output@@@2@@__crt_stdio_output@@AAEHHD@Z 00439cd4 f i libucrt:output.obj
 0001:00038cef       ?type_case_s_compute_narrow_string_length@?$output_processor@DV?$stream_output_adapter@D@__crt_stdio_output@@V?$standard_base@DV?$stream_output_adapter@D@__crt_stdio_output@@@2@@__crt_stdio_output@@AAEHHD@Z 00439cef f i libucrt:output.obj
 0001:00038d0a       ?type_case_s_compute_narrow_string_length@?$output_processor@DV?$string_output_adapter@D@__crt_stdio_output@@V?$format_validation_base@DV?$string_output_adapter@D@__crt_stdio_output@@@2@@__crt_stdio_output@@AAEHHD@Z 00439d0a f i libucrt:output.obj
 0001:00038d25       ?type_case_s_compute_narrow_string_length@?$output_processor@DV?$string_output_adapter@D@__crt_stdio_output@@V?$positional_parameter_base@DV?$string_output_adapter@D@__crt_stdio_output@@@2@@__crt_stdio_output@@AAEHHD@Z 00439d25 f i libucrt:output.obj
 0001:00038d40       ?type_case_s_compute_narrow_string_length@?$output_processor@DV?$string_output_adapter@D@__crt_stdio_output@@V?$standard_base@DV?$string_output_adapter@D@__crt_stdio_output@@@2@@__crt_stdio_output@@AAEHHD@Z 00439d40 f i libucrt:output.obj
 0001:00038d5b       ?type_case_s_compute_narrow_string_length@?$output_processor@_WV?$stream_output_adapter@_W@__crt_stdio_output@@V?$format_validation_base@_WV?$stream_output_adapter@_W@__crt_stdio_output@@@2@@__crt_stdio_output@@AAEHH_W@Z 00439d5b f i libucrt:output.obj
 0001:00038dc5       ?type_case_s_compute_narrow_string_length@?$output_processor@_WV?$stream_output_adapter@_W@__crt_stdio_output@@V?$positional_parameter_base@_WV?$stream_output_adapter@_W@__crt_stdio_output@@@2@@__crt_stdio_output@@AAEHH_W@Z 00439dc5 f i libucrt:output.obj
 0001:00038e2f       ?type_case_s_compute_narrow_string_length@?$output_processor@_WV?$stream_output_adapter@_W@__crt_stdio_output@@V?$standard_base@_WV?$stream_output_adapter@_W@__crt_stdio_output@@@2@@__crt_stdio_output@@AAEHH_W@Z 00439e2f f i libucrt:output.obj
 0001:00038e99       ?type_case_s_compute_narrow_string_length@?$output_processor@_WV?$string_output_adapter@_W@__crt_stdio_output@@V?$format_validation_base@_WV?$string_output_adapter@_W@__crt_stdio_output@@@2@@__crt_stdio_output@@AAEHH_W@Z 00439e99 f i libucrt:output.obj
 0001:00038f03       ?type_case_s_compute_narrow_string_length@?$output_processor@_WV?$string_output_adapter@_W@__crt_stdio_output@@V?$positional_parameter_base@_WV?$string_output_adapter@_W@__crt_stdio_output@@@2@@__crt_stdio_output@@AAEHH_W@Z 00439f03 f i libucrt:output.obj
 0001:00038f6d       ?type_case_s_compute_narrow_string_length@?$output_processor@_WV?$string_output_adapter@_W@__crt_stdio_output@@V?$standard_base@_WV?$string_output_adapter@_W@__crt_stdio_output@@@2@@__crt_stdio_output@@AAEHH_W@Z 00439f6d f i libucrt:output.obj
 0001:00038fd7       ?type_case_u@?$output_processor@DV?$stream_output_adapter@D@__crt_stdio_output@@V?$format_validation_base@DV?$stream_output_adapter@D@__crt_stdio_output@@@2@@__crt_stdio_output@@AAE_NXZ 00439fd7 f i libucrt:output.obj
 0001:00038fe1       ?type_case_u@?$output_processor@DV?$stream_output_adapter@D@__crt_stdio_output@@V?$positional_parameter_base@DV?$stream_output_adapter@D@__crt_stdio_output@@@2@@__crt_stdio_output@@AAE_NXZ 00439fe1 f i libucrt:output.obj
 0001:00038feb       ?type_case_u@?$output_processor@DV?$stream_output_adapter@D@__crt_stdio_output@@V?$standard_base@DV?$stream_output_adapter@D@__crt_stdio_output@@@2@@__crt_stdio_output@@AAE_NXZ 00439feb f i libucrt:output.obj
 0001:00038ff5       ?type_case_u@?$output_processor@DV?$string_output_adapter@D@__crt_stdio_output@@V?$format_validation_base@DV?$string_output_adapter@D@__crt_stdio_output@@@2@@__crt_stdio_output@@AAE_NXZ 00439ff5 f i libucrt:output.obj
 0001:00038fff       ?type_case_u@?$output_processor@DV?$string_output_adapter@D@__crt_stdio_output@@V?$positional_parameter_base@DV?$string_output_adapter@D@__crt_stdio_output@@@2@@__crt_stdio_output@@AAE_NXZ 00439fff f i libucrt:output.obj
 0001:00039009       ?type_case_u@?$output_processor@DV?$string_output_adapter@D@__crt_stdio_output@@V?$standard_base@DV?$string_output_adapter@D@__crt_stdio_output@@@2@@__crt_stdio_output@@AAE_NXZ 0043a009 f i libucrt:output.obj
 0001:00039013       ?type_case_u@?$output_processor@_WV?$stream_output_adapter@_W@__crt_stdio_output@@V?$format_validation_base@_WV?$stream_output_adapter@_W@__crt_stdio_output@@@2@@__crt_stdio_output@@AAE_NXZ 0043a013 f i libucrt:output.obj
 0001:0003901d       ?type_case_u@?$output_processor@_WV?$stream_output_adapter@_W@__crt_stdio_output@@V?$positional_parameter_base@_WV?$stream_output_adapter@_W@__crt_stdio_output@@@2@@__crt_stdio_output@@AAE_NXZ 0043a01d f i libucrt:output.obj
 0001:00039027       ?type_case_u@?$output_processor@_WV?$stream_output_adapter@_W@__crt_stdio_output@@V?$standard_base@_WV?$stream_output_adapter@_W@__crt_stdio_output@@@2@@__crt_stdio_output@@AAE_NXZ 0043a027 f i libucrt:output.obj
 0001:00039031       ?type_case_u@?$output_processor@_WV?$string_output_adapter@_W@__crt_stdio_output@@V?$format_validation_base@_WV?$string_output_adapter@_W@__crt_stdio_output@@@2@@__crt_stdio_output@@AAE_NXZ 0043a031 f i libucrt:output.obj
 0001:0003903b       ?type_case_u@?$output_processor@_WV?$string_output_adapter@_W@__crt_stdio_output@@V?$positional_parameter_base@_WV?$string_output_adapter@_W@__crt_stdio_output@@@2@@__crt_stdio_output@@AAE_NXZ 0043a03b f i libucrt:output.obj
 0001:00039045       ?type_case_u@?$output_processor@_WV?$string_output_adapter@_W@__crt_stdio_output@@V?$standard_base@_WV?$string_output_adapter@_W@__crt_stdio_output@@@2@@__crt_stdio_output@@AAE_NXZ 0043a045 f i libucrt:output.obj
 0001:0003904f       ?type_case_x@?$output_processor@DV?$stream_output_adapter@D@__crt_stdio_output@@V?$format_validation_base@DV?$stream_output_adapter@D@__crt_stdio_output@@@2@@__crt_stdio_output@@AAE_NXZ 0043a04f f i libucrt:output.obj
 0001:00039059       ?type_case_x@?$output_processor@DV?$stream_output_adapter@D@__crt_stdio_output@@V?$positional_parameter_base@DV?$stream_output_adapter@D@__crt_stdio_output@@@2@@__crt_stdio_output@@AAE_NXZ 0043a059 f i libucrt:output.obj
 0001:00039063       ?type_case_x@?$output_processor@DV?$stream_output_adapter@D@__crt_stdio_output@@V?$standard_base@DV?$stream_output_adapter@D@__crt_stdio_output@@@2@@__crt_stdio_output@@AAE_NXZ 0043a063 f i libucrt:output.obj
 0001:0003906d       ?type_case_x@?$output_processor@DV?$string_output_adapter@D@__crt_stdio_output@@V?$format_validation_base@DV?$string_output_adapter@D@__crt_stdio_output@@@2@@__crt_stdio_output@@AAE_NXZ 0043a06d f i libucrt:output.obj
 0001:00039077       ?type_case_x@?$output_processor@DV?$string_output_adapter@D@__crt_stdio_output@@V?$positional_parameter_base@DV?$string_output_adapter@D@__crt_stdio_output@@@2@@__crt_stdio_output@@AAE_NXZ 0043a077 f i libucrt:output.obj
 0001:00039081       ?type_case_x@?$output_processor@DV?$string_output_adapter@D@__crt_stdio_output@@V?$standard_base@DV?$string_output_adapter@D@__crt_stdio_output@@@2@@__crt_stdio_output@@AAE_NXZ 0043a081 f i libucrt:output.obj
 0001:0003908b       ?type_case_x@?$output_processor@_WV?$stream_output_adapter@_W@__crt_stdio_output@@V?$format_validation_base@_WV?$stream_output_adapter@_W@__crt_stdio_output@@@2@@__crt_stdio_output@@AAE_NXZ 0043a08b f i libucrt:output.obj
 0001:00039095       ?type_case_x@?$output_processor@_WV?$stream_output_adapter@_W@__crt_stdio_output@@V?$positional_parameter_base@_WV?$stream_output_adapter@_W@__crt_stdio_output@@@2@@__crt_stdio_output@@AAE_NXZ 0043a095 f i libucrt:output.obj
 0001:0003909f       ?type_case_x@?$output_processor@_WV?$stream_output_adapter@_W@__crt_stdio_output@@V?$standard_base@_WV?$stream_output_adapter@_W@__crt_stdio_output@@@2@@__crt_stdio_output@@AAE_NXZ 0043a09f f i libucrt:output.obj
 0001:000390a9       ?type_case_x@?$output_processor@_WV?$string_output_adapter@_W@__crt_stdio_output@@V?$format_validation_base@_WV?$string_output_adapter@_W@__crt_stdio_output@@@2@@__crt_stdio_output@@AAE_NXZ 0043a0a9 f i libucrt:output.obj
 0001:000390b3       ?type_case_x@?$output_processor@_WV?$string_output_adapter@_W@__crt_stdio_output@@V?$positional_parameter_base@_WV?$string_output_adapter@_W@__crt_stdio_output@@@2@@__crt_stdio_output@@AAE_NXZ 0043a0b3 f i libucrt:output.obj
 0001:000390bd       ?type_case_x@?$output_processor@_WV?$string_output_adapter@_W@__crt_stdio_output@@V?$standard_base@_WV?$string_output_adapter@_W@__crt_stdio_output@@@2@@__crt_stdio_output@@AAE_NXZ 0043a0bd f i libucrt:output.obj
 0001:000390c7       ?unget@?$c_string_character_source@D@__crt_strtox@@QAEXD@Z 0043a0c7 f i libucrt:output.obj
 0001:000390fa       ?unget@?$c_string_character_source@_W@__crt_strtox@@QAEX_W@Z 0043a0fa f i libucrt:output.obj
 0001:00039133       ?unset_flag@?$output_processor@DV?$stream_output_adapter@D@__crt_stdio_output@@V?$format_validation_base@DV?$stream_output_adapter@D@__crt_stdio_output@@@2@@__crt_stdio_output@@AAEXI@Z 0043a133 f i libucrt:output.obj
 0001:00039148       ?unset_flag@?$output_processor@DV?$stream_output_adapter@D@__crt_stdio_output@@V?$positional_parameter_base@DV?$stream_output_adapter@D@__crt_stdio_output@@@2@@__crt_stdio_output@@AAEXI@Z 0043a148 f i libucrt:output.obj
 0001:0003915d       ?unset_flag@?$output_processor@DV?$stream_output_adapter@D@__crt_stdio_output@@V?$standard_base@DV?$stream_output_adapter@D@__crt_stdio_output@@@2@@__crt_stdio_output@@AAEXI@Z 0043a15d f i libucrt:output.obj
 0001:00039172       ?unset_flag@?$output_processor@DV?$string_output_adapter@D@__crt_stdio_output@@V?$format_validation_base@DV?$string_output_adapter@D@__crt_stdio_output@@@2@@__crt_stdio_output@@AAEXI@Z 0043a172 f i libucrt:output.obj
 0001:00039187       ?unset_flag@?$output_processor@DV?$string_output_adapter@D@__crt_stdio_output@@V?$positional_parameter_base@DV?$string_output_adapter@D@__crt_stdio_output@@@2@@__crt_stdio_output@@AAEXI@Z 0043a187 f i libucrt:output.obj
 0001:0003919c       ?unset_flag@?$output_processor@DV?$string_output_adapter@D@__crt_stdio_output@@V?$standard_base@DV?$string_output_adapter@D@__crt_stdio_output@@@2@@__crt_stdio_output@@AAEXI@Z 0043a19c f i libucrt:output.obj
 0001:000391b1       ?unset_flag@?$output_processor@_WV?$stream_output_adapter@_W@__crt_stdio_output@@V?$format_validation_base@_WV?$stream_output_adapter@_W@__crt_stdio_output@@@2@@__crt_stdio_output@@AAEXI@Z 0043a1b1 f i libucrt:output.obj
 0001:000391c6       ?unset_flag@?$output_processor@_WV?$stream_output_adapter@_W@__crt_stdio_output@@V?$positional_parameter_base@_WV?$stream_output_adapter@_W@__crt_stdio_output@@@2@@__crt_stdio_output@@AAEXI@Z 0043a1c6 f i libucrt:output.obj
 0001:000391db       ?unset_flag@?$output_processor@_WV?$stream_output_adapter@_W@__crt_stdio_output@@V?$standard_base@_WV?$stream_output_adapter@_W@__crt_stdio_output@@@2@@__crt_stdio_output@@AAEXI@Z 0043a1db f i libucrt:output.obj
 0001:000391f0       ?unset_flag@?$output_processor@_WV?$string_output_adapter@_W@__crt_stdio_output@@V?$format_validation_base@_WV?$string_output_adapter@_W@__crt_stdio_output@@@2@@__crt_stdio_output@@AAEXI@Z 0043a1f0 f i libucrt:output.obj
 0001:00039205       ?unset_flag@?$output_processor@_WV?$string_output_adapter@_W@__crt_stdio_output@@V?$positional_parameter_base@_WV?$string_output_adapter@_W@__crt_stdio_output@@@2@@__crt_stdio_output@@AAEXI@Z 0043a205 f i libucrt:output.obj
 0001:0003921a       ?unset_flag@?$output_processor@_WV?$string_output_adapter@_W@__crt_stdio_output@@V?$standard_base@_WV?$string_output_adapter@_W@__crt_stdio_output@@@2@@__crt_stdio_output@@AAEXI@Z 0043a21a f i libucrt:output.obj
 0001:0003922f       ?update_field_width@?$positional_parameter_base@DV?$stream_output_adapter@D@__crt_stdio_output@@@__crt_stdio_output@@IAE_NXZ 0043a22f f i libucrt:output.obj
 0001:00039339       ?update_field_width@?$positional_parameter_base@DV?$string_output_adapter@D@__crt_stdio_output@@@__crt_stdio_output@@IAE_NXZ 0043a339 f i libucrt:output.obj
 0001:00039443       ?update_field_width@?$positional_parameter_base@_WV?$stream_output_adapter@_W@__crt_stdio_output@@@__crt_stdio_output@@IAE_NXZ 0043a443 f i libucrt:output.obj
 0001:0003954e       ?update_field_width@?$positional_parameter_base@_WV?$string_output_adapter@_W@__crt_stdio_output@@@__crt_stdio_output@@IAE_NXZ 0043a54e f i libucrt:output.obj
 0001:00039659       ?update_field_width@?$standard_base@DV?$stream_output_adapter@D@__crt_stdio_output@@@__crt_stdio_output@@IAE_NXZ 0043a659 f i libucrt:output.obj
 0001:0003966e       ?update_field_width@?$standard_base@DV?$string_output_adapter@D@__crt_stdio_output@@@__crt_stdio_output@@IAE_NXZ 0043a66e f i libucrt:output.obj
 0001:00039683       ?update_field_width@?$standard_base@_WV?$stream_output_adapter@_W@__crt_stdio_output@@@__crt_stdio_output@@IAE_NXZ 0043a683 f i libucrt:output.obj
 0001:00039698       ?update_field_width@?$standard_base@_WV?$string_output_adapter@_W@__crt_stdio_output@@@__crt_stdio_output@@IAE_NXZ 0043a698 f i libucrt:output.obj
 0001:000396b0       ?update_locale@__crt_cached_ptd_host@@AAEXXZ 0043a6b0 f i libucrt:output.obj
 0001:000396c0       ?update_locale_slow@__crt_cached_ptd_host@@AAEXXZ 0043a6c0 f i libucrt:output.obj
 0001:00039731       ?update_precision@?$positional_parameter_base@DV?$stream_output_adapter@D@__crt_stdio_output@@@__crt_stdio_output@@IAE_NXZ 0043a731 f i libucrt:output.obj
 0001:0003983b       ?update_precision@?$positional_parameter_base@DV?$string_output_adapter@D@__crt_stdio_output@@@__crt_stdio_output@@IAE_NXZ 0043a83b f i libucrt:output.obj
 0001:00039945       ?update_precision@?$positional_parameter_base@_WV?$stream_output_adapter@_W@__crt_stdio_output@@@__crt_stdio_output@@IAE_NXZ 0043a945 f i libucrt:output.obj
 0001:00039a50       ?update_precision@?$positional_parameter_base@_WV?$string_output_adapter@_W@__crt_stdio_output@@@__crt_stdio_output@@IAE_NXZ 0043aa50 f i libucrt:output.obj
 0001:00039b5b       ?update_precision@?$standard_base@DV?$stream_output_adapter@D@__crt_stdio_output@@@__crt_stdio_output@@IAE_NXZ 0043ab5b f i libucrt:output.obj
 0001:00039b70       ?update_precision@?$standard_base@DV?$string_output_adapter@D@__crt_stdio_output@@@__crt_stdio_output@@IAE_NXZ 0043ab70 f i libucrt:output.obj
 0001:00039b85       ?update_precision@?$standard_base@_WV?$stream_output_adapter@_W@__crt_stdio_output@@@__crt_stdio_output@@IAE_NXZ 0043ab85 f i libucrt:output.obj
 0001:00039b9a       ?update_precision@?$standard_base@_WV?$string_output_adapter@_W@__crt_stdio_output@@@__crt_stdio_output@@IAE_NXZ 0043ab9a f i libucrt:output.obj
 0001:00039baf       ?valid@__crt_stdio_stream@@QBE_NXZ 0043abaf f i libucrt:output.obj
 0001:00039bb6       ?validate@?$c_string_character_source@D@__crt_strtox@@QBE_NXZ 0043abb6 f i libucrt:output.obj
 0001:00039bd7       ?validate@?$c_string_character_source@_W@__crt_strtox@@QBE_NXZ 0043abd7 f i libucrt:output.obj
 0001:00039bf8       ?validate@?$stream_output_adapter@D@__crt_stdio_output@@QBE_NAAV__crt_cached_ptd_host@@@Z 0043abf8 f i libucrt:output.obj
 0001:00039c3e       ?validate@?$stream_output_adapter@_W@__crt_stdio_output@@QBE_NAAV__crt_cached_ptd_host@@@Z 0043ac3e f i libucrt:output.obj
 0001:00039c7b       ?validate@?$string_output_adapter@D@__crt_stdio_output@@QBE_NAAV__crt_cached_ptd_host@@@Z 0043ac7b f i libucrt:output.obj
 0001:00039cb8       ?validate@?$string_output_adapter@_W@__crt_stdio_output@@QBE_NAAV__crt_cached_ptd_host@@@Z 0043acb8 f i libucrt:output.obj
 0001:00039cf5       ?validate_and_store_parameter_data@?$positional_parameter_base@DV?$stream_output_adapter@D@__crt_stdio_output@@@__crt_stdio_output@@AAE_NAAUparameter_data@12@W4parameter_type@12@DW4length_modifier@2@@Z 0043acf5 f i libucrt:output.obj
 0001:00039d6f       ?validate_and_store_parameter_data@?$positional_parameter_base@DV?$string_output_adapter@D@__crt_stdio_output@@@__crt_stdio_output@@AAE_NAAUparameter_data@12@W4parameter_type@12@DW4length_modifier@2@@Z 0043ad6f f i libucrt:output.obj
 0001:00039de9       ?validate_and_store_parameter_data@?$positional_parameter_base@_WV?$stream_output_adapter@_W@__crt_stdio_output@@@__crt_stdio_output@@AAE_NAAUparameter_data@12@W4parameter_type@12@_WW4length_modifier@2@@Z 0043ade9 f i libucrt:output.obj
 0001:00039e66       ?validate_and_store_parameter_data@?$positional_parameter_base@_WV?$string_output_adapter@_W@__crt_stdio_output@@@__crt_stdio_output@@AAE_NAAUparameter_data@12@W4parameter_type@12@_WW4length_modifier@2@@Z 0043ae66 f i libucrt:output.obj
 0001:00039ee3       ?validate_and_update_state_at_beginning_of_format_character@?$positional_parameter_base@DV?$stream_output_adapter@D@__crt_stdio_output@@@__crt_stdio_output@@IAE_NXZ 0043aee3 f i libucrt:output.obj
 0001:0003a03f       ?validate_and_update_state_at_beginning_of_format_character@?$positional_parameter_base@DV?$string_output_adapter@D@__crt_stdio_output@@@__crt_stdio_output@@IAE_NXZ 0043b03f f i libucrt:output.obj
 0001:0003a19b       ?validate_and_update_state_at_beginning_of_format_character@?$positional_parameter_base@_WV?$stream_output_adapter@_W@__crt_stdio_output@@@__crt_stdio_output@@IAE_NXZ 0043b19b f i libucrt:output.obj
 0001:0003a308       ?validate_and_update_state_at_beginning_of_format_character@?$positional_parameter_base@_WV?$string_output_adapter@_W@__crt_stdio_output@@@__crt_stdio_output@@IAE_NXZ 0043b308 f i libucrt:output.obj
 0001:0003a475       ?validate_and_update_state_at_beginning_of_format_character@?$standard_base@DV?$stream_output_adapter@D@__crt_stdio_output@@@__crt_stdio_output@@IAE_NXZ 0043b475 f i libucrt:output.obj
 0001:0003a478       ?validate_and_update_state_at_beginning_of_format_character@?$standard_base@DV?$string_output_adapter@D@__crt_stdio_output@@@__crt_stdio_output@@IAE_NXZ 0043b478 f i libucrt:output.obj
 0001:0003a47b       ?validate_and_update_state_at_beginning_of_format_character@?$standard_base@_WV?$stream_output_adapter@_W@__crt_stdio_output@@@__crt_stdio_output@@IAE_NXZ 0043b47b f i libucrt:output.obj
 0001:0003a47e       ?validate_and_update_state_at_beginning_of_format_character@?$standard_base@_WV?$string_output_adapter@_W@__crt_stdio_output@@@__crt_stdio_output@@IAE_NXZ 0043b47e f i libucrt:output.obj
 0001:0003a481       ?validate_and_update_state_at_end_of_format_string@?$format_validation_base@DV?$stream_output_adapter@D@__crt_stdio_output@@@__crt_stdio_output@@IAE_NXZ 0043b481 f i libucrt:output.obj
 0001:0003a4be       ?validate_and_update_state_at_end_of_format_string@?$format_validation_base@DV?$string_output_adapter@D@__crt_stdio_output@@@__crt_stdio_output@@IAE_NXZ 0043b4be f i libucrt:output.obj
 0001:0003a4fb       ?validate_and_update_state_at_end_of_format_string@?$format_validation_base@_WV?$stream_output_adapter@_W@__crt_stdio_output@@@__crt_stdio_output@@IAE_NXZ 0043b4fb f i libucrt:output.obj
 0001:0003a538       ?validate_and_update_state_at_end_of_format_string@?$format_validation_base@_WV?$string_output_adapter@_W@__crt_stdio_output@@@__crt_stdio_output@@IAE_NXZ 0043b538 f i libucrt:output.obj
 0001:0003a575       ?validate_and_update_state_at_end_of_format_string@?$positional_parameter_base@DV?$stream_output_adapter@D@__crt_stdio_output@@@__crt_stdio_output@@IAE_NXZ 0043b575 f i libucrt:output.obj
 0001:0003a65d       ?validate_and_update_state_at_end_of_format_string@?$positional_parameter_base@DV?$string_output_adapter@D@__crt_stdio_output@@@__crt_stdio_output@@IAE_NXZ 0043b65d f i libucrt:output.obj
 0001:0003a745       ?validate_and_update_state_at_end_of_format_string@?$positional_parameter_base@_WV?$stream_output_adapter@_W@__crt_stdio_output@@@__crt_stdio_output@@IAE_NXZ 0043b745 f i libucrt:output.obj
 0001:0003a82d       ?validate_and_update_state_at_end_of_format_string@?$positional_parameter_base@_WV?$string_output_adapter@_W@__crt_stdio_output@@@__crt_stdio_output@@IAE_NXZ 0043b82d f i libucrt:output.obj
 0001:0003a915       ?validate_and_update_state_at_end_of_format_string@?$standard_base@DV?$stream_output_adapter@D@__crt_stdio_output@@@__crt_stdio_output@@IBE_NXZ 0043b915 f i libucrt:output.obj
 0001:0003a918       ?validate_and_update_state_at_end_of_format_string@?$standard_base@DV?$string_output_adapter@D@__crt_stdio_output@@@__crt_stdio_output@@IBE_NXZ 0043b918 f i libucrt:output.obj
 0001:0003a91b       ?validate_and_update_state_at_end_of_format_string@?$standard_base@_WV?$stream_output_adapter@_W@__crt_stdio_output@@@__crt_stdio_output@@IBE_NXZ 0043b91b f i libucrt:output.obj
 0001:0003a91e       ?validate_and_update_state_at_end_of_format_string@?$standard_base@_WV?$string_output_adapter@_W@__crt_stdio_output@@@__crt_stdio_output@@IBE_NXZ 0043b91e f i libucrt:output.obj
 0001:0003a921       ?validate_state_for_type_case_a@?$positional_parameter_base@DV?$stream_output_adapter@D@__crt_stdio_output@@@__crt_stdio_output@@IAE_NXZ 0043b921 f i libucrt:output.obj
 0001:0003a997       ?validate_state_for_type_case_a@?$positional_parameter_base@DV?$string_output_adapter@D@__crt_stdio_output@@@__crt_stdio_output@@IAE_NXZ 0043b997 f i libucrt:output.obj
 0001:0003aa0d       ?validate_state_for_type_case_a@?$positional_parameter_base@_WV?$stream_output_adapter@_W@__crt_stdio_output@@@__crt_stdio_output@@IAE_NXZ 0043ba0d f i libucrt:output.obj
 0001:0003aa83       ?validate_state_for_type_case_a@?$positional_parameter_base@_WV?$string_output_adapter@_W@__crt_stdio_output@@@__crt_stdio_output@@IAE_NXZ 0043ba83 f i libucrt:output.obj
 0001:0003aaf9       ?validate_state_for_type_case_a@?$standard_base@DV?$stream_output_adapter@D@__crt_stdio_output@@@__crt_stdio_output@@IBE_NXZ 0043baf9 f i libucrt:output.obj
 0001:0003aafc       ?validate_state_for_type_case_a@?$standard_base@DV?$string_output_adapter@D@__crt_stdio_output@@@__crt_stdio_output@@IBE_NXZ 0043bafc f i libucrt:output.obj
 0001:0003aaff       ?validate_state_for_type_case_a@?$standard_base@_WV?$stream_output_adapter@_W@__crt_stdio_output@@@__crt_stdio_output@@IBE_NXZ 0043baff f i libucrt:output.obj
 0001:0003ab02       ?validate_state_for_type_case_a@?$standard_base@_WV?$string_output_adapter@_W@__crt_stdio_output@@@__crt_stdio_output@@IBE_NXZ 0043bb02 f i libucrt:output.obj
 0001:0003ab05       ?validate_stream_is_ansi_if_required@?$__acrt_stdio_char_traits@D@@SA_NQAU_iobuf@@@Z 0043bb05 f i libucrt:output.obj
 0001:0003abad       ?validate_stream_is_ansi_if_required@?$__acrt_stdio_char_traits@_W@@SA_NQAU_iobuf@@@Z 0043bbad f i libucrt:output.obj
 0001:0003abb0       ?wide_character_to_digit@__crt_strtox@@YAH_W@Z 0043bbb0 f i libucrt:output.obj
 0001:0003adb9       ?wide_null_string@?$output_processor@DV?$stream_output_adapter@D@__crt_stdio_output@@V?$format_validation_base@DV?$stream_output_adapter@D@__crt_stdio_output@@@2@@__crt_stdio_output@@CAPA_WXZ 0043bdb9 f i libucrt:output.obj
 0001:0003adbf       ?wide_null_string@?$output_processor@DV?$stream_output_adapter@D@__crt_stdio_output@@V?$positional_parameter_base@DV?$stream_output_adapter@D@__crt_stdio_output@@@2@@__crt_stdio_output@@CAPA_WXZ 0043bdbf f i libucrt:output.obj
 0001:0003adc5       ?wide_null_string@?$output_processor@DV?$stream_output_adapter@D@__crt_stdio_output@@V?$standard_base@DV?$stream_output_adapter@D@__crt_stdio_output@@@2@@__crt_stdio_output@@CAPA_WXZ 0043bdc5 f i libucrt:output.obj
 0001:0003adcb       ?wide_null_string@?$output_processor@DV?$string_output_adapter@D@__crt_stdio_output@@V?$format_validation_base@DV?$string_output_adapter@D@__crt_stdio_output@@@2@@__crt_stdio_output@@CAPA_WXZ 0043bdcb f i libucrt:output.obj
 0001:0003add1       ?wide_null_string@?$output_processor@DV?$string_output_adapter@D@__crt_stdio_output@@V?$positional_parameter_base@DV?$string_output_adapter@D@__crt_stdio_output@@@2@@__crt_stdio_output@@CAPA_WXZ 0043bdd1 f i libucrt:output.obj
 0001:0003add7       ?wide_null_string@?$output_processor@DV?$string_output_adapter@D@__crt_stdio_output@@V?$standard_base@DV?$string_output_adapter@D@__crt_stdio_output@@@2@@__crt_stdio_output@@CAPA_WXZ 0043bdd7 f i libucrt:output.obj
 0001:0003addd       ?wide_null_string@?$output_processor@_WV?$stream_output_adapter@_W@__crt_stdio_output@@V?$format_validation_base@_WV?$stream_output_adapter@_W@__crt_stdio_output@@@2@@__crt_stdio_output@@CAPA_WXZ 0043bddd f i libucrt:output.obj
 0001:0003ade3       ?wide_null_string@?$output_processor@_WV?$stream_output_adapter@_W@__crt_stdio_output@@V?$positional_parameter_base@_WV?$stream_output_adapter@_W@__crt_stdio_output@@@2@@__crt_stdio_output@@CAPA_WXZ 0043bde3 f i libucrt:output.obj
 0001:0003ade9       ?wide_null_string@?$output_processor@_WV?$stream_output_adapter@_W@__crt_stdio_output@@V?$standard_base@_WV?$stream_output_adapter@_W@__crt_stdio_output@@@2@@__crt_stdio_output@@CAPA_WXZ 0043bde9 f i libucrt:output.obj
 0001:0003adef       ?wide_null_string@?$output_processor@_WV?$string_output_adapter@_W@__crt_stdio_output@@V?$format_validation_base@_WV?$string_output_adapter@_W@__crt_stdio_output@@@2@@__crt_stdio_output@@CAPA_WXZ 0043bdef f i libucrt:output.obj
 0001:0003adf5       ?wide_null_string@?$output_processor@_WV?$string_output_adapter@_W@__crt_stdio_output@@V?$positional_parameter_base@_WV?$string_output_adapter@_W@__crt_stdio_output@@@2@@__crt_stdio_output@@CAPA_WXZ 0043bdf5 f i libucrt:output.obj
 0001:0003adfb       ?wide_null_string@?$output_processor@_WV?$string_output_adapter@_W@__crt_stdio_output@@V?$standard_base@_WV?$string_output_adapter@_W@__crt_stdio_output@@@2@@__crt_stdio_output@@CAPA_WXZ 0043bdfb f i libucrt:output.obj
 0001:0003ae01       ?write_character@?$output_adapter_common@DV?$stream_output_adapter@D@__crt_stdio_output@@@__crt_stdio_output@@QBEXDQAHAAV__crt_cached_ptd_host@@@Z 0043be01 f i libucrt:output.obj
 0001:0003ae2b       ?write_character@?$output_adapter_common@_WV?$stream_output_adapter@_W@__crt_stdio_output@@@__crt_stdio_output@@QBEX_WQAHAAV__crt_cached_ptd_host@@@Z 0043be2b f i libucrt:output.obj
 0001:0003ae55       ?write_character@?$string_output_adapter@D@__crt_stdio_output@@QBE_NDQAHAAV__crt_cached_ptd_host@@@Z 0043be55 f i libucrt:output.obj
 0001:0003aea7       ?write_character@?$string_output_adapter@_W@__crt_stdio_output@@QBE_N_WQAHAAV__crt_cached_ptd_host@@@Z 0043bea7 f i libucrt:output.obj
 0001:0003aefd       ?write_character_without_count_update@?$stream_output_adapter@D@__crt_stdio_output@@QBE_NDAAV__crt_cached_ptd_host@@@Z 0043befd f i libucrt:output.obj
 0001:0003af45       ?write_character_without_count_update@?$stream_output_adapter@_W@__crt_stdio_output@@QBE_N_WAAV__crt_cached_ptd_host@@@Z 0043bf45 f i libucrt:output.obj
 0001:0003af91       ?write_stored_string_tchar@?$output_processor@DV?$stream_output_adapter@D@__crt_stdio_output@@V?$format_validation_base@DV?$stream_output_adapter@D@__crt_stdio_output@@@2@@__crt_stdio_output@@AAE_ND@Z 0043bf91 f i libucrt:output.obj
 0001:0003b066       ?write_stored_string_tchar@?$output_processor@DV?$stream_output_adapter@D@__crt_stdio_output@@V?$positional_parameter_base@DV?$stream_output_adapter@D@__crt_stdio_output@@@2@@__crt_stdio_output@@AAE_ND@Z 0043c066 f i libucrt:output.obj
 0001:0003b13b       ?write_stored_string_tchar@?$output_processor@DV?$stream_output_adapter@D@__crt_stdio_output@@V?$standard_base@DV?$stream_output_adapter@D@__crt_stdio_output@@@2@@__crt_stdio_output@@AAE_ND@Z 0043c13b f i libucrt:output.obj
 0001:0003b210       ?write_stored_string_tchar@?$output_processor@DV?$string_output_adapter@D@__crt_stdio_output@@V?$format_validation_base@DV?$string_output_adapter@D@__crt_stdio_output@@@2@@__crt_stdio_output@@AAE_ND@Z 0043c210 f i libucrt:output.obj
 0001:0003b2e5       ?write_stored_string_tchar@?$output_processor@DV?$string_output_adapter@D@__crt_stdio_output@@V?$positional_parameter_base@DV?$string_output_adapter@D@__crt_stdio_output@@@2@@__crt_stdio_output@@AAE_ND@Z 0043c2e5 f i libucrt:output.obj
 0001:0003b3ba       ?write_stored_string_tchar@?$output_processor@DV?$string_output_adapter@D@__crt_stdio_output@@V?$standard_base@DV?$string_output_adapter@D@__crt_stdio_output@@@2@@__crt_stdio_output@@AAE_ND@Z 0043c3ba f i libucrt:output.obj
 0001:0003b48f       ?write_stored_string_tchar@?$output_processor@_WV?$stream_output_adapter@_W@__crt_stdio_output@@V?$format_validation_base@_WV?$stream_output_adapter@_W@__crt_stdio_output@@@2@@__crt_stdio_output@@AAE_N_W@Z 0043c48f f i libucrt:output.obj
 0001:0003b567       ?write_stored_string_tchar@?$output_processor@_WV?$stream_output_adapter@_W@__crt_stdio_output@@V?$positional_parameter_base@_WV?$stream_output_adapter@_W@__crt_stdio_output@@@2@@__crt_stdio_output@@AAE_N_W@Z 0043c567 f i libucrt:output.obj
 0001:0003b63f       ?write_stored_string_tchar@?$output_processor@_WV?$stream_output_adapter@_W@__crt_stdio_output@@V?$standard_base@_WV?$stream_output_adapter@_W@__crt_stdio_output@@@2@@__crt_stdio_output@@AAE_N_W@Z 0043c63f f i libucrt:output.obj
 0001:0003b717       ?write_stored_string_tchar@?$output_processor@_WV?$string_output_adapter@_W@__crt_stdio_output@@V?$format_validation_base@_WV?$string_output_adapter@_W@__crt_stdio_output@@@2@@__crt_stdio_output@@AAE_N_W@Z 0043c717 f i libucrt:output.obj
 0001:0003b82b       ?write_stored_string_tchar@?$output_processor@_WV?$string_output_adapter@_W@__crt_stdio_output@@V?$positional_parameter_base@_WV?$string_output_adapter@_W@__crt_stdio_output@@@2@@__crt_stdio_output@@AAE_N_W@Z 0043c82b f i libucrt:output.obj
 0001:0003b93f       ?write_stored_string_tchar@?$output_processor@_WV?$string_output_adapter@_W@__crt_stdio_output@@V?$standard_base@_WV?$string_output_adapter@_W@__crt_stdio_output@@@2@@__crt_stdio_output@@AAE_N_W@Z 0043c93f f i libucrt:output.obj
 0001:0003ba53       ?write_string@?$stream_output_adapter@D@__crt_stdio_output@@QBEXQBDHQAHAAV__crt_cached_ptd_host@@@Z 0043ca53 f i libucrt:output.obj
 0001:0003ba8a       ?write_string@?$stream_output_adapter@_W@__crt_stdio_output@@QBEXQB_WHQAHAAV__crt_cached_ptd_host@@@Z 0043ca8a f i libucrt:output.obj
 0001:0003bac1       ?write_string@?$string_output_adapter@D@__crt_stdio_output@@QBEXQBDHQAHAAV__crt_cached_ptd_host@@@Z 0043cac1 f i libucrt:output.obj
 0001:0003bb41       ?write_string@?$string_output_adapter@_W@__crt_stdio_output@@QBEXQB_WHQAHAAV__crt_cached_ptd_host@@@Z 0043cb41 f i libucrt:output.obj
 0001:0003bbce       ?write_string_impl@?$output_adapter_common@DV?$stream_output_adapter@D@__crt_stdio_output@@@__crt_stdio_output@@IBEXQBDHQAHAAV__crt_cached_ptd_host@@@Z 0043cbce f i libucrt:output.obj
 0001:0003bc6c       ?write_string_impl@?$output_adapter_common@_WV?$stream_output_adapter@_W@__crt_stdio_output@@@__crt_stdio_output@@IBEXQB_WHQAHAAV__crt_cached_ptd_host@@@Z 0043cc6c f i libucrt:output.obj
 0001:0003bd0e       ___acrt_isleadbyte_l_noupdate 0043cd0e f i libucrt:output.obj
 0001:0003bd33       ___ascii_iswalpha          0043cd33 f i libucrt:output.obj
 0001:0003bd5e       ___ascii_toupper           0043cd5e f i libucrt:output.obj
 0001:0003bd7a       ___ascii_towupper          0043cd7a f i libucrt:output.obj
 0001:0003bd96       ___stdio_common_vfprintf   0043cd96 f   libucrt:output.obj
 0001:0003be63       ___stdio_common_vfprintf_p 0043ce63 f   libucrt:output.obj
 0001:0003bf30       ___stdio_common_vfprintf_s 0043cf30 f   libucrt:output.obj
 0001:0003bffd       ___stdio_common_vfwprintf  0043cffd f   libucrt:output.obj
 0001:0003c0ca       ___stdio_common_vfwprintf_p 0043d0ca f   libucrt:output.obj
 0001:0003c197       ___stdio_common_vfwprintf_s 0043d197 f   libucrt:output.obj
 0001:0003c264       ___stdio_common_vsnprintf_s 0043d264 f   libucrt:output.obj
 0001:0003c2b9       ___stdio_common_vsnwprintf_s 0043d2b9 f   libucrt:output.obj
 0001:0003c30e       ___stdio_common_vsprintf   0043d30e f   libucrt:output.obj
 0001:0003c35f       ___stdio_common_vsprintf_p 0043d35f f   libucrt:output.obj
 0001:0003c3b0       ___stdio_common_vsprintf_s 0043d3b0 f   libucrt:output.obj
 0001:0003c401       ___stdio_common_vswprintf  0043d401 f   libucrt:output.obj
 0001:0003c452       ___stdio_common_vswprintf_p 0043d452 f   libucrt:output.obj
 0001:0003c4a3       ___stdio_common_vswprintf_s 0043d4a3 f   libucrt:output.obj
 0001:0003c4f4       __ctype_fast_check_internal 0043d4f4 f i libucrt:output.obj
 0001:0003c514       __isdigit_fast_internal    0043d514 f i libucrt:output.obj
 0001:0003c534       __tolower_fast_internal    0043d534 f i libucrt:output.obj
 0001:0003c553       ??$is_overflow_condition@_K@__crt_strtox@@YA_NI_K@Z 0043d553 f i libucrt:atox.obj
 0001:0003c5a4       ??$make_c_string_character_source@D$$T@__crt_strtox@@YA?AV?$c_string_character_source@D@0@QBD$$T@Z 0043d5a4 f i libucrt:atox.obj
 0001:0003c5c5       ??$make_c_string_character_source@_W$$T@__crt_strtox@@YA?AV?$c_string_character_source@_W@0@QB_W$$T@Z 0043d5c5 f i libucrt:atox.obj
 0001:0003c5e6       ??$parse_integer@KV?$c_string_character_source@D@__crt_strtox@@$00@__crt_strtox@@YAKAAV__crt_cached_ptd_host@@V?$c_string_character_source@D@0@H_N@Z 0043d5e6 f i libucrt:atox.obj
 0001:0003c8be       ??$parse_integer@KV?$c_string_character_source@_W@__crt_strtox@@$00@__crt_strtox@@YAKAAV__crt_cached_ptd_host@@V?$c_string_character_source@_W@0@H_N@Z 0043d8be f i libucrt:atox.obj
 0001:0003d04f       ??$parse_integer@_KV?$c_string_character_source@D@__crt_strtox@@$00@__crt_strtox@@YA_KAAV__crt_cached_ptd_host@@V?$c_string_character_source@D@0@H_N@Z 0043e04f f i libucrt:atox.obj
 0001:0003d3c9       ??$parse_integer@_KV?$c_string_character_source@_W@__crt_strtox@@$00@__crt_strtox@@YA_KAAV__crt_cached_ptd_host@@V?$c_string_character_source@_W@0@H_N@Z 0043e3c9 f i libucrt:atox.obj
 0001:0003dbf0       ??$parse_integer_from_string@JD$$T@__crt_strtox@@YAJQBD$$THQAU__crt_locale_pointers@@@Z 0043ebf0 f i libucrt:atox.obj
 0001:0003dc48       ??$parse_integer_from_string@J_W$$T@__crt_strtox@@YAJQB_W$$THQAU__crt_locale_pointers@@@Z 0043ec48 f i libucrt:atox.obj
 0001:0003dca0       ??$parse_integer_from_string@_JD$$T@__crt_strtox@@YA_JQBD$$THQAU__crt_locale_pointers@@@Z 0043eca0 f i libucrt:atox.obj
 0001:0003dd00       ??$parse_integer_from_string@_J_W$$T@__crt_strtox@@YA_JQB_W$$THQAU__crt_locale_pointers@@@Z 0043ed00 f i libucrt:atox.obj
 0001:0003dd60       ?is_space@__crt_strtox@@YA_NDQAU__crt_locale_pointers@@@Z 0043ed60 f i libucrt:atox.obj
 0001:0003dd85       ?is_space@__crt_strtox@@YA_N_WPAU__crt_locale_pointers@@@Z 0043ed85 f i libucrt:atox.obj
 0001:0003dda3       ?maximum_signed_value@__crt_strtox@@YA_J_K@Z 0043eda3 f i libucrt:atox.obj
 0001:0003ddae       ?minimum_signed_value@__crt_strtox@@YA_J_K@Z 0043edae f i libucrt:atox.obj
 0001:0003ddb8       ___acrt_get_locale_data_prefix 0043edb8 f i libucrt:atox.obj
 0001:0003ddc7       __atoi64                   0043edc7 f   libucrt:atox.obj
 0001:0003de1d       __atoi64_l                 0043ee1d f   libucrt:atox.obj
 0001:0003de74       __atoi_l                   0043ee74 f   libucrt:atox.obj
 0001:0003dec4       __atol_l                   0043eec4 f   libucrt:atox.obj
 0001:0003df14       __atoll_l                  0043ef14 f   libucrt:atox.obj
 0001:0003df6b       __chvalidchk_l             0043ef6b f i libucrt:atox.obj
 0001:0003df9d       __ischartype_l             0043ef9d f i libucrt:atox.obj
 0001:0003e009       __wtoi                     0043f009 f   libucrt:atox.obj
 0001:0003e057       __wtoi64                   0043f057 f   libucrt:atox.obj
 0001:0003e0ad       __wtoi64_l                 0043f0ad f   libucrt:atox.obj
 0001:0003e104       __wtoi_l                   0043f104 f   libucrt:atox.obj
 0001:0003e154       __wtol                     0043f154 f   libucrt:atox.obj
 0001:0003e1a2       __wtol_l                   0043f1a2 f   libucrt:atox.obj
 0001:0003e1f2       __wtoll                    0043f1f2 f   libucrt:atox.obj
 0001:0003e248       __wtoll_l                  0043f248 f   libucrt:atox.obj
 0001:0003e29f       _atoi                      0043f29f f   libucrt:atox.obj
 0001:0003e2ed       _atol                      0043f2ed f   libucrt:atox.obj
 0001:0003e33b       _atoll                     0043f33b f   libucrt:atox.obj
 0001:0003e3a0       _strncmp                   0043f3a0 f   libucrt:strncmp.obj
 0001:0003e436       _wcsncmp                   0043f436 f   libucrt:wcsncmp.obj
 0001:0003e47e       ??0_LocaleUpdate@@QAE@QAU__crt_locale_pointers@@@Z 0043f47e f i libucrt:isctype.obj
 0001:0003e520       ??1_LocaleUpdate@@QAE@XZ   0043f520 f i libucrt:isctype.obj
 0001:0003e534       ?GetLocaleT@_LocaleUpdate@@QAEPAU__crt_locale_pointers@@XZ 0043f534 f i libucrt:isctype.obj
 0001:0003e538       __isctype                  0043f538 f   libucrt:isctype.obj
 0001:0003e577       __isctype_l                0043f577 f   libucrt:isctype.obj
 0001:0003e674       __isleadbyte_fast_internal 0043f674 f i libucrt:isctype.obj
 0001:0003e699       ??$?RU__acrt_ptd@@@__crt_internal_free_policy@@QBEXQBU__acrt_ptd@@@Z 0043f699 f i libucrt:per_thread_data.obj
 0001:0003ea37       ??0?$__crt_unique_heap_ptr@U__acrt_ptd@@U__crt_internal_free_policy@@@@QAE@QAU__acrt_ptd@@@Z 0043fa37 f i libucrt:per_thread_data.obj
 0001:0003ea4b       ??1?$__crt_unique_heap_ptr@U__acrt_ptd@@U__crt_internal_free_policy@@@@QAE@XZ 0043fa4b f i libucrt:per_thread_data.obj
 0001:0003ea61       ??B?$__crt_unique_heap_ptr@U__acrt_ptd@@U__crt_internal_free_policy@@@@QBE_NXZ 0043fa61 f i libucrt:per_thread_data.obj
 0001:0003ebfc       ?dangerous_get_state_array@?$dual_state_global@PAU__crt_locale_data@@@__crt_state_management@@QAEPAPAU__crt_locale_data@@XZ 0043fbfc f i libucrt:per_thread_data.obj
 0001:0003ed2d       ?detach@?$__crt_unique_heap_ptr@U__acrt_ptd@@U__crt_internal_free_policy@@@@QAEPAU__acrt_ptd@@XZ 0043fd2d f i libucrt:per_thread_data.obj
 0001:0003ed33       ?get@?$__crt_unique_heap_ptr@U__acrt_ptd@@U__crt_internal_free_policy@@@@QBEPAU__acrt_ptd@@XZ 0043fd33 f i libucrt:per_thread_data.obj
 0001:0003ef8f       ?is_valid@?$__crt_unique_heap_ptr@U__acrt_ptd@@U__crt_internal_free_policy@@@@QBE_NXZ 0043ff8f f i libucrt:per_thread_data.obj
 0001:0003ef96       ?release@?$__crt_unique_heap_ptr@U__acrt_ptd@@U__crt_internal_free_policy@@@@QAEXXZ 0043ff96 f i libucrt:per_thread_data.obj
 0001:0003f022       ___acrt_freeptd            00440022 f   libucrt:per_thread_data.obj
 0001:0003f059       ___acrt_getptd             00440059 f   libucrt:per_thread_data.obj
 0001:0003f142       ___acrt_getptd_head        00440142 f   libucrt:per_thread_data.obj
 0001:0003f1fd       ___acrt_getptd_noexit      004401fd f   libucrt:per_thread_data.obj
 0001:0003f2da       ___acrt_getptd_noexit_explicit 004402da f   libucrt:per_thread_data.obj
 0001:0003f3a5       ___acrt_initialize_ptd     004403a5 f   libucrt:per_thread_data.obj
 0001:0003f3dc       ___acrt_uninitialize_ptd   004403dc f   libucrt:per_thread_data.obj
 0001:0003f3fc       ___threadhandle            004403fc f   libucrt:per_thread_data.obj
 0001:0003f402       ___threadid                00440402 f   libucrt:per_thread_data.obj
 0001:0003f408       ?value@?$dual_state_global@PAU__crt_multibyte_data@@@__crt_state_management@@QAEAAPAU__crt_multibyte_data@@XZ 00440408 f i libucrt:locale_update.obj
 0001:0003f40b       ?value_explicit@?$dual_state_global@PAU__crt_locale_data@@@__crt_state_management@@QAEAAPAU__crt_locale_data@@I@Z 0044040b f i libucrt:locale_update.obj
 0001:0003f41d       ?value_explicit@?$dual_state_global@PAU__crt_multibyte_data@@@__crt_state_management@@QAEAAPAU__crt_multibyte_data@@I@Z 0044041d f i libucrt:locale_update.obj
 0001:0003f42f       ___acrt_should_sync_with_global_locale 0044042f f i libucrt:locale_update.obj
 0001:0003f452       ___acrt_update_locale_info 00440452 f   libucrt:locale_update.obj
 0001:0003f48a       ___acrt_update_locale_info_explicit 0044048a f   libucrt:locale_update.obj
 0001:0003f4c7       ___acrt_update_multibyte_info 004404c7 f   libucrt:locale_update.obj
 0001:0003f4ff       ___acrt_update_multibyte_info_explicit 004404ff f   libucrt:locale_update.obj
 0001:0003f53c       ___p___mb_cur_max          0044053c f   libucrt:nlsdata.obj
 0001:0003f56a       ??$__crt_fast_decode_pointer@P6AXPB_W00II@Z@@YAP6AXPB_W00II@ZQ6AX000II@Z@Z 0044056a f i libucrt:invalid_parameter.obj
 0001:0003f58b       ??$__crt_fast_encode_pointer@P6AXPB_W00II@Z@@YAP6AXPB_W00II@ZQ6AX000II@Z@Z 0044058b f i libucrt:invalid_parameter.obj
 0001:0003f5b1       ??$initialize_from_array@$$BY00Q6AXPB_W00II@Z@?$dual_state_global@P6AXPB_W00II@Z@__crt_state_management@@QAAXAAY00Q6AXPB_W00II@Z@Z 004405b1 f i libucrt:invalid_parameter.obj
 0001:0003f5c6       ?check_synchronize_global_state_index@__crt_cached_ptd_host@@AAEIXZ 004405c6 f i libucrt:invalid_parameter.obj
 0001:0003f5f9       ?dangerous_get_state_array@?$dual_state_global@P6AXPB_W00II@Z@__crt_state_management@@QAEPAP6AXPB_W00II@ZXZ 004405f9 f i libucrt:invalid_parameter.obj
 0001:0003f5fc       ?get_current_global_state_index@__crt_cached_ptd_host@@QAEIXZ 004405fc f i libucrt:invalid_parameter.obj
 0001:0003f601       ?get_raw_ptd_noexit@__crt_cached_ptd_host@@QAEPAU__acrt_ptd@@XZ 00440601 f i libucrt:invalid_parameter.obj
 0001:0003f60e       ?try_synchronize_per_thread_data@__crt_cached_ptd_host@@AAEPAU__acrt_ptd@@XZ 0044060e f i libucrt:invalid_parameter.obj
 0001:0003f61b       ?value@?$dual_state_global@P6AXPB_W00II@Z@__crt_state_management@@QAEAAP6AXPB_W00II@ZAAV__crt_cached_ptd_host@@@Z 0044061b f i libucrt:invalid_parameter.obj
 0001:0003f639       ?value@?$dual_state_global@P6AXPB_W00II@Z@__crt_state_management@@QAEAAP6AXPB_W00II@ZXZ 00440639 f i libucrt:invalid_parameter.obj
 0001:0003f63c       ___acrt_call_reportfault   0044063c f   libucrt:invalid_parameter.obj
 0001:0003f7c3       ___acrt_initialize_invalid_parameter_handler 004407c3 f   libucrt:invalid_parameter.obj
 0001:0003f7d5       __get_invalid_parameter_handler 004407d5 f   libucrt:invalid_parameter.obj
 0001:0003f7f1       __get_thread_local_invalid_parameter_handler 004407f1 f   libucrt:invalid_parameter.obj
 0001:0003f806       __invalid_parameter        00440806 f   libucrt:invalid_parameter.obj
 0001:0003f84a       __invalid_parameter_internal 0044084a f   libucrt:invalid_parameter.obj
 0001:0003f8e6       __invalid_parameter_noinfo 004408e6 f   libucrt:invalid_parameter.obj
 0001:0003f8fa       __invalid_parameter_noinfo_noreturn 004408fa f   libucrt:invalid_parameter.obj
 0001:0003f91e       __invoke_watson            0044091e f   libucrt:invalid_parameter.obj
 0001:0003f95f       __set_invalid_parameter_handler 0044095f f   libucrt:invalid_parameter.obj
 0001:0003f99b       __set_thread_local_invalid_parameter_handler 0044099b f   libucrt:invalid_parameter.obj
 0001:0003f9bf       ??$?RPAU__crt_stdio_stream_data@@@__crt_internal_free_policy@@QBEXQBQAU__crt_stdio_stream_data@@@Z 004409bf f i libucrt:_file.obj
 0001:0003f9d5       ??0?$__crt_unique_heap_ptr@PAU__crt_stdio_stream_data@@U__crt_internal_free_policy@@@@QAE@QAPAU__crt_stdio_stream_data@@@Z 004409d5 f i libucrt:_file.obj
 0001:0003f9e9       ??1?$__crt_unique_heap_ptr@PAU__crt_stdio_stream_data@@U__crt_internal_free_policy@@@@QAE@XZ 004409e9 f i libucrt:_file.obj
 0001:0003f9ff       ?detach@?$__crt_unique_heap_ptr@PAU__crt_stdio_stream_data@@U__crt_internal_free_policy@@@@QAEPAPAU__crt_stdio_stream_data@@XZ 004409ff f i libucrt:_file.obj
 0001:0003fa05       ?release@?$__crt_unique_heap_ptr@PAU__crt_stdio_stream_data@@U__crt_internal_free_policy@@@@QAEXXZ 00440a05 f i libucrt:_file.obj
 0001:0003fa1b       ___acrt_initialize_stdio   00440a1b f   libucrt:_file.obj
 0001:0003fb15       ___acrt_iob_func           00440b15 f   libucrt:_file.obj
 0001:0003fb29       ___acrt_uninitialize_stdio 00440b29 f   libucrt:_file.obj
 0001:0003fb88       __get_stream_buffer_pointers 00440b88 f   libucrt:_file.obj
 0001:0003fbdf       __lock_file                00440bdf f   libucrt:_file.obj
 0001:0003fbf8       __unlock_file              00440bf8 f   libucrt:_file.obj
 0001:0003fc11       ?lowio_handle@__crt_stdio_stream@@QBEHXZ 00440c11 f i libucrt:fileno.obj
 0001:0003fc18       __fileno                   00440c18 f   libucrt:fileno.obj
 0001:000400c2       ?has_any_buffer@__crt_stdio_stream@@QBE_NXZ 004410c2 f i libucrt:_flsbuf.obj
 0001:000400d4       ?has_any_of@__crt_stdio_stream@@QBE_NJ@Z 004410d4 f i libucrt:_flsbuf.obj
 0001:000400ee       ?has_big_buffer@__crt_stdio_stream@@QBE_NXZ 004410ee f i libucrt:_flsbuf.obj
 0001:000400fd       ?set_flags@__crt_stdio_stream@@QBE_NJ@Z 004410fd f i libucrt:_flsbuf.obj
 0001:000401d0       ?unset_flags@__crt_stdio_stream@@QBE_NJ@Z 004411d0 f i libucrt:_flsbuf.obj
 0001:00040203       ___acrt_stdio_flush_and_write_narrow_nolock 00441203 f   libucrt:_flsbuf.obj
 0001:00040210       ___acrt_stdio_flush_and_write_wide_nolock 00441210 f   libucrt:_flsbuf.obj
 0001:00040406       ___acrt_initialize_lowio   00441406 f   libucrt:ioinit.obj
 0001:0004047e       ___acrt_uninitialize_lowio 0044147e f   libucrt:ioinit.obj
 0001:000404b5       __set_error_mode           004414b5 f   libucrt:set_error_mode.obj
 0001:00040599       _wcscat_s                  00441599 f   libucrt:wcscat_s.obj
 0001:000406a0       _wcscpy_s                  004416a0 f   libucrt:wcscpy_s.obj
 0001:0004081e       _wcsncpy_s                 0044181e f   libucrt:wcsncpy_s.obj
 0001:00040964       ??$message_box@$$TABQBDABQBDK@?$__crt_char_traits@D@@SAH$$QA$$TABQBD1$$QAK@Z 00441964 f i libucrt:crtmbox.obj
 0001:0004098c       ??$message_box@$$TABQB_WABQB_WK@?$__crt_char_traits@_W@@SAH$$QA$$TABQB_W1$$QAK@Z 0044198c f i libucrt:crtmbox.obj
 0001:000409b4       ??$message_box@PAUHWND__@@ABQBDABQBDABI@?$__crt_char_traits@D@@SAH$$QAPAUHWND__@@ABQBD1ABI@Z 004419b4 f i libucrt:crtmbox.obj
 0001:000409dc       ??$message_box@PAUHWND__@@ABQB_WABQB_WABI@?$__crt_char_traits@_W@@SAH$$QAPAUHWND__@@ABQB_W1ABI@Z 004419dc f i libucrt:crtmbox.obj
 0001:00040a04       ??$output_debug_string@ABQBD@?$__crt_char_traits@D@@SAXABQBD@Z 00441a04 f i libucrt:crtmbox.obj
 0001:00040a19       ??$output_debug_string@ABQB_W@?$__crt_char_traits@_W@@SAXABQB_W@Z 00441a19 f i libucrt:crtmbox.obj
 0001:00040a2f       ___acrt_show_narrow_message_box 00441a2f f   libucrt:crtmbox.obj
 0001:00040a3c       ___acrt_show_wide_message_box 00441a3c f   libucrt:crtmbox.obj
 0001:00040a49       ?get_doserrno@__crt_cached_ptd_host@@QAE@XZ 00441a49 f i libucrt:errno.obj
 0001:00040a4d       ?set@?$cached@K@__crt_cached_ptd_host@@QAEKK@Z 00441a4d f i libucrt:errno.obj
 0001:00040a63       ___acrt_errno_from_os_error 00441a63 f   libucrt:errno.obj
 0001:00040ab6       ___acrt_errno_map_os_error 00441ab6 f   libucrt:errno.obj
 0001:00040ae1       ___acrt_errno_map_os_error_ptd 00441ae1 f   libucrt:errno.obj
 0001:00040b0e       ___doserrno                00441b0e f   libucrt:errno.obj
 0001:00040b25       __errno                    00441b25 f   libucrt:errno.obj
 0001:00040b3c       __get_doserrno             00441b3c f   libucrt:errno.obj
 0001:00040b6a       __get_errno                00441b6a f   libucrt:errno.obj
 0001:00040b98       __set_doserrno             00441b98 f   libucrt:errno.obj
 0001:00040bc1       __set_errno                00441bc1 f   libucrt:errno.obj
 0001:00040bea       __calloc_base              00441bea f   libucrt:calloc_base.obj
 0001:00040c64       __free_base                00441c64 f   libucrt:free_base.obj
 0001:00040ce8       ??$__acrt_convert_wcs_mbs_cp@D_WV<lambda_62f6974d9771e494a5ea317cc32e971c>@@U__crt_win32_buffer_internal_dynamic_resizing@@@@YAHQBDAAV?$__crt_win32_buffer@_WU__crt_win32_buffer_internal_dynamic_resizing@@@@ABV<lambda_62f6974d9771e494a5ea317cc32e971c>@@I@Z 00441ce8 f i libucrt:argv_wildcards.obj
 0001:00040dc6       ??$__acrt_convert_wcs_mbs_cp@_WDV<lambda_28bda7af82a03b66c1cb3803a755f95d>@@U__crt_win32_buffer_internal_dynamic_resizing@@@@YAHQB_WAAV?$__crt_win32_buffer@DU__crt_win32_buffer_internal_dynamic_resizing@@@@ABV<lambda_28bda7af82a03b66c1cb3803a755f95d>@@I@Z 00441dc6 f i libucrt:argv_wildcards.obj
 0001:00040ebd       ??$__acrt_mbs_to_wcs_cp@U__crt_win32_buffer_internal_dynamic_resizing@@@@YAHQBDAAV?$__crt_win32_buffer@_WU__crt_win32_buffer_internal_dynamic_resizing@@@@I@Z 00441ebd f i libucrt:argv_wildcards.obj
 0001:00040ee1       ??$__acrt_wcs_to_mbs_cp@U__crt_win32_buffer_internal_dynamic_resizing@@@@YAHQB_WAAV?$__crt_win32_buffer@DU__crt_win32_buffer_internal_dynamic_resizing@@@@I@Z 00441ee1 f i libucrt:argv_wildcards.obj
 0001:000419be       ??$tcslen@ABQBD@?$__crt_char_traits@D@@SAIABQBD@Z 004429be f i libucrt:argv_wildcards.obj
 0001:000419dc       ??$tcslen@ABQB_W@?$__crt_char_traits@_W@@SAIABQB_W@Z 004429dc f i libucrt:argv_wildcards.obj
 0001:00041a01       ??$tcsncpy_s@AAPADIAAPADABI@?$__crt_char_traits@D@@SAHAAPAD$$QAI0ABI@Z 00442a01 f i libucrt:argv_wildcards.obj
 0001:00041a2c       ??$tcsncpy_s@AAPA_WIAAPA_WABI@?$__crt_char_traits@_W@@SAHAAPA_W$$QAI0ABI@Z 00442a2c f i libucrt:argv_wildcards.obj
 0001:00041a57       ??$tcsncpy_s@PADABIABQBDABI@?$__crt_char_traits@D@@SAH$$QAPADABIABQBD1@Z 00442a57 f i libucrt:argv_wildcards.obj
 0001:00041a82       ??$tcsncpy_s@PADIABQBDABI@?$__crt_char_traits@D@@SAH$$QAPAD$$QAIABQBDABI@Z 00442a82 f i libucrt:argv_wildcards.obj
 0001:00041aad       ??$tcsncpy_s@PA_WABIABQB_WABI@?$__crt_char_traits@_W@@SAH$$QAPA_WABIABQB_W1@Z 00442aad f i libucrt:argv_wildcards.obj
 0001:00041ad8       ??$tcsncpy_s@PA_WIABQB_WABI@?$__crt_char_traits@_W@@SAH$$QAPA_W$$QAIABQB_WABI@Z 00442ad8 f i libucrt:argv_wildcards.obj
 0001:00041b03       ??$tcspbrk@AAPADAAY02$$CBD@?$__crt_char_traits@D@@SAPADAAPADAAY02$$CBD@Z 00442b03 f i libucrt:argv_wildcards.obj
 0001:00041b1e       ??$tcspbrk@AAPA_WAAY02$$CB_W@?$__crt_char_traits@_W@@SAPA_WAAPA_WAAY02$$CB_W@Z 00442b1e f i libucrt:argv_wildcards.obj
 0001:00041b39       ??0?$__crt_unique_handle_t@U__crt_findfile_traits@@@@QAE@QAX@Z 00442b39 f i libucrt:argv_wildcards.obj
 0001:00041b4d       ??0?$__crt_win32_buffer@DU__crt_win32_buffer_internal_dynamic_resizing@@@@QAE@XZ 00442b4d f i libucrt:argv_wildcards.obj
 0001:00041b68       ??0?$__crt_win32_buffer@_WU__crt_win32_buffer_internal_dynamic_resizing@@@@QAE@XZ 00442b68 f i libucrt:argv_wildcards.obj
 0001:00041ba3       ??1?$__crt_unique_handle_t@U__crt_findfile_traits@@@@QAE@XZ 00442ba3 f i libucrt:argv_wildcards.obj
 0001:00041bbf       ??1?$__crt_win32_buffer@DU__crt_win32_buffer_internal_dynamic_resizing@@@@QAE@XZ 00442bbf f i libucrt:argv_wildcards.obj
 0001:00041bc4       ??1?$__crt_win32_buffer@_WU__crt_win32_buffer_internal_dynamic_resizing@@@@QAE@XZ 00442bc4 f i libucrt:argv_wildcards.obj
 0001:00041c31       ??R<lambda_28bda7af82a03b66c1cb3803a755f95d>@@QBE@IQB_WQADI@Z 00442c31 f i libucrt:argv_wildcards.obj
 0001:00041c83       ??R<lambda_62f6974d9771e494a5ea317cc32e971c>@@QBE@IQBDQA_WI@Z 00442c83 f i libucrt:argv_wildcards.obj
 0001:00041d19       ?__acrt_get_utf8_acp_compatibility_codepage@@YAIXZ 00442d19 f i libucrt:argv_wildcards.obj
 0001:00041d67       ?_deallocate@?$__crt_win32_buffer@DU__crt_win32_buffer_internal_dynamic_resizing@@@@AAEXXZ 00442d67 f i libucrt:argv_wildcards.obj
 0001:00041d87       ?_deallocate@?$__crt_win32_buffer@_WU__crt_win32_buffer_internal_dynamic_resizing@@@@AAEXXZ 00442d87 f i libucrt:argv_wildcards.obj
 0001:00041da7       ?allocate@?$__crt_win32_buffer@DU__crt_win32_buffer_internal_dynamic_resizing@@@@QAEHI@Z 00442da7 f i libucrt:argv_wildcards.obj
 0001:00041df2       ?allocate@?$__crt_win32_buffer@_WU__crt_win32_buffer_internal_dynamic_resizing@@@@QAEHI@Z 00442df2 f i libucrt:argv_wildcards.obj
 0001:00041e40       ?allocate@__crt_win32_buffer_internal_dynamic_resizing@@SAHQAPAXIABV__crt_win32_buffer_empty_debug_info@@@Z 00442e40 f i libucrt:argv_wildcards.obj
 0001:00041ef0       ?capacity@?$__crt_win32_buffer@DU__crt_win32_buffer_internal_dynamic_resizing@@@@QBEIXZ 00442ef0 f i libucrt:argv_wildcards.obj
 0001:00041ef4       ?capacity@?$__crt_win32_buffer@_WU__crt_win32_buffer_internal_dynamic_resizing@@@@QBEIXZ 00442ef4 f i libucrt:argv_wildcards.obj
 0001:00041ef8       ?close@?$__crt_unique_handle_t@U__crt_findfile_traits@@@@QAEXXZ 00442ef8 f i libucrt:argv_wildcards.obj
 0001:00041f14       ?close@__crt_findfile_traits@@SA_NPAX@Z 00442f14 f i libucrt:argv_wildcards.obj
 0001:00041f2e       ?data@?$__crt_win32_buffer@DU__crt_win32_buffer_internal_dynamic_resizing@@@@QAEPADXZ 00442f2e f i libucrt:argv_wildcards.obj
 0001:00041f32       ?data@?$__crt_win32_buffer@_WU__crt_win32_buffer_internal_dynamic_resizing@@@@QAEPA_WXZ 00442f32 f i libucrt:argv_wildcards.obj
 0001:00041f36       ?deallocate@__crt_win32_buffer_internal_dynamic_resizing@@SAXQAXABV__crt_win32_buffer_empty_debug_info@@@Z 00442f36 f i libucrt:argv_wildcards.obj
 0001:00041f4a       ?debug_info@?$__crt_win32_buffer@DU__crt_win32_buffer_internal_dynamic_resizing@@@@QBEABV__crt_win32_buffer_empty_debug_info@@XZ 00442f4a f i libucrt:argv_wildcards.obj
 0001:00041f4d       ?debug_info@?$__crt_win32_buffer@_WU__crt_win32_buffer_internal_dynamic_resizing@@@@QBEABV__crt_win32_buffer_empty_debug_info@@XZ 00442f4d f i libucrt:argv_wildcards.obj
 0001:000420a8       ?get@?$__crt_unique_handle_t@U__crt_findfile_traits@@@@QBEPAXXZ 004430a8 f i libucrt:argv_wildcards.obj
 0001:000420ea       ?get_invalid_value@__crt_findfile_traits@@SAPAXXZ 004430ea f i libucrt:argv_wildcards.obj
 0001:0004214a       ?set_to_nullptr@?$__crt_win32_buffer@DU__crt_win32_buffer_internal_dynamic_resizing@@@@QAEXXZ 0044314a f i libucrt:argv_wildcards.obj
 0001:00042166       ?set_to_nullptr@?$__crt_win32_buffer@_WU__crt_win32_buffer_internal_dynamic_resizing@@@@QAEXXZ 00443166 f i libucrt:argv_wildcards.obj
 0001:00042182       ?size@?$__crt_win32_buffer@DU__crt_win32_buffer_internal_dynamic_resizing@@@@QAEXI@Z 00443182 f i libucrt:argv_wildcards.obj
 0001:00042194       ?size@?$__crt_win32_buffer@_WU__crt_win32_buffer_internal_dynamic_resizing@@@@QAEXI@Z 00443194 f i libucrt:argv_wildcards.obj
 0001:000421bc       ?strpbrk@@YAPADQADQBD@Z    004431bc f i libucrt:argv_wildcards.obj
 0001:000421c9       ?wcspbrk@@YAPA_WPA_WPB_W@Z 004431c9 f i libucrt:argv_wildcards.obj
 0001:000421d6       ___acrt_expand_narrow_argv_wildcards 004431d6 f   libucrt:argv_wildcards.obj
 0001:000421e3       ___acrt_expand_wide_argv_wildcards 004431e3 f   libucrt:argv_wildcards.obj
 0001:000421f0       ??$__acrt_convert_wcs_mbs_cp@_WDV<lambda_0fec1a7b3f42a53036604e18c2d5e07e>@@U__crt_win32_buffer_no_resizing@@@@YAHQB_WAAV?$__crt_win32_buffer@DU__crt_win32_buffer_no_resizing@@@@ABV<lambda_0fec1a7b3f42a53036604e18c2d5e07e>@@I@Z 004431f0 f i libucrt:getmodulefilenamea.obj
 0001:000422e2       ??$__acrt_wcs_to_mbs_cp@U__crt_win32_buffer_no_resizing@@@@YAHQB_WAAV?$__crt_win32_buffer@DU__crt_win32_buffer_no_resizing@@@@I@Z 004432e2 f i libucrt:getmodulefilenamea.obj
 0001:00042306       ??0?$__crt_win32_buffer@DU__crt_win32_buffer_no_resizing@@@@QAE@QADI@Z 00443306 f i libucrt:getmodulefilenamea.obj
 0001:00042333       ??1?$__crt_win32_buffer@DU__crt_win32_buffer_no_resizing@@@@QAE@XZ 00443333 f i libucrt:getmodulefilenamea.obj
 0001:00042340       ??R<lambda_0fec1a7b3f42a53036604e18c2d5e07e>@@QBE@IQB_WQADI@Z 00443340 f i libucrt:getmodulefilenamea.obj
 0001:0004236d       ?_deallocate@?$__crt_win32_buffer@DU__crt_win32_buffer_no_resizing@@@@AAEXXZ 0044336d f i libucrt:getmodulefilenamea.obj
 0001:0004237a       ?allocate@?$__crt_win32_buffer@DU__crt_win32_buffer_no_resizing@@@@QAEHI@Z 0044337a f i libucrt:getmodulefilenamea.obj
 0001:000423aa       ?allocate@__crt_win32_buffer_no_resizing@@SAHQAPAXIABV__crt_win32_buffer_empty_debug_info@@@Z 004433aa f i libucrt:getmodulefilenamea.obj
 0001:000423ba       ?capacity@?$__crt_win32_buffer@DU__crt_win32_buffer_no_resizing@@@@QBEIXZ 004433ba f i libucrt:getmodulefilenamea.obj
 0001:000423be       ?data@?$__crt_win32_buffer@DU__crt_win32_buffer_no_resizing@@@@QAEPADXZ 004433be f i libucrt:getmodulefilenamea.obj
 0001:000423c2       ?deallocate@__crt_win32_buffer_no_resizing@@SAXQAXABV__crt_win32_buffer_empty_debug_info@@@Z 004433c2 f i libucrt:getmodulefilenamea.obj
 0001:000423c5       ?debug_info@?$__crt_win32_buffer@DU__crt_win32_buffer_no_resizing@@@@QBEABV__crt_win32_buffer_empty_debug_info@@XZ 004433c5 f i libucrt:getmodulefilenamea.obj
 0001:000423c8       ?set_to_nullptr@?$__crt_win32_buffer@DU__crt_win32_buffer_no_resizing@@@@QAEXXZ 004433c8 f i libucrt:getmodulefilenamea.obj
 0001:000423e1       ?size@?$__crt_win32_buffer@DU__crt_win32_buffer_no_resizing@@@@QAEXI@Z 004433e1 f i libucrt:getmodulefilenamea.obj
 0001:000423f3       ?size@?$__crt_win32_buffer@DU__crt_win32_buffer_no_resizing@@@@QBEIXZ 004433f3 f i libucrt:getmodulefilenamea.obj
 0001:000423f7       ___acrt_GetModuleFileNameA 004433f7 f   libucrt:getmodulefilenamea.obj
 0001:0004254f       ??$initialize_from_array@$$BY10BAA@E@?$dual_state_global@PAE@__crt_state_management@@QAAXAAY10BAA@E@Z 0044354f f i libucrt:mbctype.obj
 0001:00042561       ??$initialize_from_array@$$BY10BAB@E@?$dual_state_global@PAE@__crt_state_management@@QAAXAAY10BAB@E@Z 00443561 f i libucrt:mbctype.obj
 0001:000426c0       ?dangerous_get_state_array@?$dual_state_global@PAE@__crt_state_management@@QAEPAPAEXZ 004436c0 f i libucrt:mbctype.obj
 0001:000426c3       ?dangerous_get_state_array@?$dual_state_global@PAU__crt_multibyte_data@@@__crt_state_management@@QAEPAPAU__crt_multibyte_data@@XZ 004436c3 f i libucrt:mbctype.obj
 0001:00042753       ?initialize@?$dual_state_global@PAU__crt_multibyte_data@@@__crt_state_management@@QAEXQAU__crt_multibyte_data@@@Z 00443753 f i libucrt:mbctype.obj
 0001:00042c71       ?value@?$dual_state_global@PAE@__crt_state_management@@QAEAAPAEXZ 00443c71 f i libucrt:mbctype.obj
 0001:00042c74       ___acrt_initialize_multibyte 00443c74 f   libucrt:mbctype.obj
 0001:00042cce       ___acrt_update_thread_multibyte_data 00443cce f   libucrt:mbctype.obj
 0001:00042ce5       ___p__mbcasemap            00443ce5 f   libucrt:mbctype.obj
 0001:00042ceb       ___p__mbctype              00443ceb f   libucrt:mbctype.obj
 0001:00042cf1       __getmbcp                  00443cf1 f   libucrt:mbctype.obj
 0001:00042d32       __setmbcp                  00443d32 f   libucrt:mbctype.obj
 0001:00042d58       __setmbcp_nolock           00443d58 f   libucrt:mbctype.obj
 0001:000430e3       __ismbbalnum               004440e3 f   libucrt:ismbbyte.obj
 0001:00043104       __ismbbalnum_l             00444104 f   libucrt:ismbbyte.obj
 0001:00043127       __ismbbalpha               00444127 f   libucrt:ismbbyte.obj
 0001:00043148       __ismbbalpha_l             00444148 f   libucrt:ismbbyte.obj
 0001:0004316b       __ismbbblank               0044416b f   libucrt:ismbbyte.obj
 0001:00043196       __ismbbblank_l             00444196 f   libucrt:ismbbyte.obj
 0001:000431c3       __ismbbgraph               004441c3 f   libucrt:ismbbyte.obj
 0001:000431e4       __ismbbgraph_l             004441e4 f   libucrt:ismbbyte.obj
 0001:00043207       __ismbbkalnum              00444207 f   libucrt:ismbbyte.obj
 0001:00043225       __ismbbkalnum_l            00444225 f   libucrt:ismbbyte.obj
 0001:00043244       __ismbbkana                00444244 f   libucrt:ismbbyte.obj
 0001:0004325b       __ismbbkana_l              0044425b f   libucrt:ismbbyte.obj
 0001:000432bd       __ismbbkprint              004442bd f   libucrt:ismbbyte.obj
 0001:000432db       __ismbbkprint_l            004442db f   libucrt:ismbbyte.obj
 0001:000432fa       __ismbbkpunct              004442fa f   libucrt:ismbbyte.obj
 0001:00043318       __ismbbkpunct_l            00444318 f   libucrt:ismbbyte.obj
 0001:00043337       __ismbblead                00444337 f   libucrt:ismbbyte.obj
 0001:00043355       __ismbblead_l              00444355 f   libucrt:ismbbyte.obj
 0001:00043374       __ismbbprint               00444374 f   libucrt:ismbbyte.obj
 0001:00043395       __ismbbprint_l             00444395 f   libucrt:ismbbyte.obj
 0001:000433b8       __ismbbpunct               004443b8 f   libucrt:ismbbyte.obj
 0001:000433d6       __ismbbpunct_l             004443d6 f   libucrt:ismbbyte.obj
 0001:000433f5       __ismbbtrail               004443f5 f   libucrt:ismbbyte.obj
 0001:00043413       __ismbbtrail_l             00444413 f   libucrt:ismbbyte.obj
 0001:000434f0       ___acrt_MultiByteToWideChar 004444f0 f   libucrt:multibytetowidechar.obj
 0001:000435d8       ___acrt_WideCharToMultiByte 004445d8 f   libucrt:widechartomultibyte.obj
 0001:00043719       ___dcrt_get_narrow_environment_from_os 00444719 f   libucrt:get_environment_from_os.obj
 0001:000437e1       ___dcrt_get_wide_environment_from_os 004447e1 f   libucrt:get_environment_from_os.obj
 0001:00044148       ??$get_or_create_environment_nolock@$$V@?$__crt_char_traits@D@@SAPAPADXZ 00445148 f i libucrt:setenv.obj
 0001:0004414d       ??$get_or_create_environment_nolock@$$V@?$__crt_char_traits@_W@@SAPAPA_WXZ 0044514d f i libucrt:setenv.obj
 0001:00044152       ??$set_environment_variable@ABQADQAD@?$__crt_char_traits@D@@SAHABQAD$$QBQAD@Z 00445152 f i libucrt:setenv.obj
 0001:00044170       ??$set_environment_variable@ABQA_WQA_W@?$__crt_char_traits@_W@@SAHABQA_W$$QBQA_W@Z 00445170 f i libucrt:setenv.obj
 0001:0004418c       ??$tcschr@ABQADD@?$__crt_char_traits@D@@SAPADABQAD$$QAD@Z 0044518c f i libucrt:setenv.obj
 0001:000441ac       ??$tcschr@ABQA_WD@?$__crt_char_traits@_W@@SAPA_WABQA_W$$QAD@Z 004451ac f i libucrt:setenv.obj
 0001:000441d1       ??$tcscpy_s@AAPADABIAAPAD@?$__crt_char_traits@D@@SAHAAPADABI0@Z 004451d1 f i libucrt:setenv.obj
 0001:000441f6       ??$tcscpy_s@AAPA_WABIAAPA_W@?$__crt_char_traits@_W@@SAHAAPA_WABI0@Z 004451f6 f i libucrt:setenv.obj
 0001:0004421b       ??$tcscpy_s@ABQADABIABQAD@?$__crt_char_traits@D@@SAHABQADABI0@Z 0044521b f i libucrt:setenv.obj
 0001:00044240       ??$tcscpy_s@ABQA_WABIABQA_W@?$__crt_char_traits@_W@@SAHABQA_WABI0@Z 00445240 f i libucrt:setenv.obj
 0001:00044265       ??$tcslen@ABQAD@?$__crt_char_traits@D@@SAIABQAD@Z 00445265 f i libucrt:setenv.obj
 0001:00044283       ??$tcslen@ABQA_W@?$__crt_char_traits@_W@@SAIABQA_W@Z 00445283 f i libucrt:setenv.obj
 0001:000442a8       ??$tcsnicoll@ABQBDAAPADABI@?$__crt_char_traits@D@@SAHABQBDAAPADABI@Z 004452a8 f i libucrt:setenv.obj
 0001:000442cd       ??$tcsnicoll@ABQB_WAAPA_WABI@?$__crt_char_traits@_W@@SAHABQB_WAAPA_WABI@Z 004452cd f i libucrt:setenv.obj
 0001:00044316       ?strchr@@YAPADQADH@Z       00445316 f i libucrt:setenv.obj
 0001:00044323       ?wcschr@@YAPA_WPA_W_W@Z    00445323 f i libucrt:setenv.obj
 0001:00044330       ___dcrt_set_variable_in_narrow_environment_nolock 00445330 f   libucrt:setenv.obj
 0001:0004433d       ___dcrt_set_variable_in_wide_environment_nolock 0044533d f   libucrt:setenv.obj
 0001:0004434a       ___acrt_initialize_locks   0044534a f   libucrt:locks.obj
 0001:0004439b       ___acrt_lock               0044539b f   libucrt:locks.obj
 0001:000443b7       ___acrt_uninitialize_locks 004453b7 f   libucrt:locks.obj
 0001:000443f4       ___acrt_unlock             004453f4 f   libucrt:locks.obj
 0001:00044410       __lock_locales             00445410 f   libucrt:locks.obj
 0001:00044421       __unlock_locales           00445421 f   libucrt:locks.obj
 0001:0004442c       ___acrt_app_verifier_enabled 0044542c f   libucrt:peb_access.obj
 0001:00044442       ___acrt_is_secure_process  00445442 f   libucrt:peb_access.obj
 0001:00044653       ___acrt_get_begin_thread_init_policy 00445653 f   libucrt:win_policies.obj
 0001:0004469b       ___acrt_get_developer_information_policy 0044569b f   libucrt:win_policies.obj
 0001:000446e8       ___acrt_get_process_end_policy 004456e8 f   libucrt:win_policies.obj
 0001:00044718       ___acrt_get_windowing_model_policy 00445718 f   libucrt:win_policies.obj
 0001:00044789       ??$?RU__crt_lowio_handle_data@@@__crt_internal_free_policy@@QBEXQBU__crt_lowio_handle_data@@@Z 00445789 f i libucrt:osfinfo.obj
 0001:0004479f       ??0?$__crt_unique_heap_ptr@U__crt_lowio_handle_data@@U__crt_internal_free_policy@@@@QAE@QAU__crt_lowio_handle_data@@@Z 0044579f f i libucrt:osfinfo.obj
 0001:000447b3       ??1?$__crt_unique_heap_ptr@U__crt_lowio_handle_data@@U__crt_internal_free_policy@@@@QAE@XZ 004457b3 f i libucrt:osfinfo.obj
 0001:000447c9       ??B?$__crt_unique_heap_ptr@U__crt_lowio_handle_data@@U__crt_internal_free_policy@@@@QBE_NXZ 004457c9 f i libucrt:osfinfo.obj
 0001:000447d0       ?detach@?$__crt_unique_heap_ptr@U__crt_lowio_handle_data@@U__crt_internal_free_policy@@@@QAEPAU__crt_lowio_handle_data@@XZ 004457d0 f i libucrt:osfinfo.obj
 0001:000447d6       ?get@?$__crt_unique_heap_ptr@U__crt_lowio_handle_data@@U__crt_internal_free_policy@@@@QBEPAU__crt_lowio_handle_data@@XZ 004457d6 f i libucrt:osfinfo.obj
 0001:000447d9       ?is_valid@?$__crt_unique_heap_ptr@U__crt_lowio_handle_data@@U__crt_internal_free_policy@@@@QBE_NXZ 004457d9 f i libucrt:osfinfo.obj
 0001:000447e0       ?release@?$__crt_unique_heap_ptr@U__crt_lowio_handle_data@@U__crt_internal_free_policy@@@@QAEXXZ 004457e0 f i libucrt:osfinfo.obj
 0001:000447f6       ___acrt_lowio_create_handle_array 004457f6 f   libucrt:osfinfo.obj
 0001:0004488f       ___acrt_lowio_destroy_handle_array 0044588f f   libucrt:osfinfo.obj
 0001:000448d1       ___acrt_lowio_ensure_fh_exists 004458d1 f   libucrt:osfinfo.obj
 0001:00044996       ___acrt_lowio_lock_fh      00445996 f   libucrt:osfinfo.obj
 0001:000449c1       ___acrt_lowio_set_os_handle 004459c1 f   libucrt:osfinfo.obj
 0001:00044a77       ___acrt_lowio_unlock_fh    00445a77 f   libucrt:osfinfo.obj
 0001:00044aa2       __alloc_osfhnd             00445aa2 f   libucrt:osfinfo.obj
 0001:00044bf9       __free_osfhnd              00445bf9 f   libucrt:osfinfo.obj
 0001:00044cae       __get_osfhandle            00445cae f   libucrt:osfinfo.obj
 0001:00044d32       __open_osfhandle           00445d32 f   libucrt:osfinfo.obj
 0001:00044eae       ?dangerous_get_state_array@?$dual_state_global@H@__crt_state_management@@QAEPAHXZ 00445eae f i libucrt:txtmode.obj
 0001:00044eb1       ___acrt_initialize_fmode   00445eb1 f   libucrt:txtmode.obj
 0001:00044ecc       ___p__fmode                00445ecc f   libucrt:txtmode.obj
 0001:00044ed2       ??$?RG@__crt_internal_free_policy@@QBEXQBG@Z 00445ed2 f i libucrt:initctype.obj
 0001:00044ee8       ??$?RJ@__crt_internal_free_policy@@QBEXQBJ@Z 00445ee8 f i libucrt:initctype.obj
 0001:00044efe       ??0?$__crt_unique_heap_ptr@GU__crt_internal_free_policy@@@@QAE@QAG@Z 00445efe f i libucrt:initctype.obj
 0001:00044f12       ??0?$__crt_unique_heap_ptr@JU__crt_internal_free_policy@@@@QAE@QAJ@Z 00445f12 f i libucrt:initctype.obj
 0001:00044f26       ??1?$__crt_unique_heap_ptr@GU__crt_internal_free_policy@@@@QAE@XZ 00445f26 f i libucrt:initctype.obj
 0001:00044f3c       ??1?$__crt_unique_heap_ptr@JU__crt_internal_free_policy@@@@QAE@XZ 00445f3c f i libucrt:initctype.obj
 0001:00044f52       ?detach@?$__crt_unique_heap_ptr@GU__crt_internal_free_policy@@@@QAEPAGXZ 00445f52 f i libucrt:initctype.obj
 0001:00044f58       ?detach@?$__crt_unique_heap_ptr@JU__crt_internal_free_policy@@@@QAEPAJXZ 00445f58 f i libucrt:initctype.obj
 0001:00044f5e       ?release@?$__crt_unique_heap_ptr@GU__crt_internal_free_policy@@@@QAEXXZ 00445f5e f i libucrt:initctype.obj
 0001:00044f74       ?release@?$__crt_unique_heap_ptr@JU__crt_internal_free_policy@@@@QAEXXZ 00445f74 f i libucrt:initctype.obj
 0001:00044f8a       ____lc_codepage_func       00445f8a f   libucrt:initctype.obj
 0001:00044fb8       ____lc_collate_cp_func     00445fb8 f   libucrt:initctype.obj
 0001:00044fe6       ____lc_locale_name_func    00445fe6 f   libucrt:initctype.obj
 0001:00045016       ____mb_cur_max_func        00446016 f   libucrt:initctype.obj
 0001:00045044       ____mb_cur_max_l_func      00446044 f   libucrt:initctype.obj
 0001:00045063       ___acrt_locale_initialize_ctype 00446063 f   libucrt:initctype.obj
 0001:000455d7       ??$?RUlconv@@@__crt_internal_free_policy@@QBEXQBUlconv@@@Z 004465d7 f i libucrt:initmon.obj
 0001:000455ed       ??0?$__crt_unique_heap_ptr@Ulconv@@U__crt_internal_free_policy@@@@QAE@QAUlconv@@@Z 004465ed f i libucrt:initmon.obj
 0001:00045601       ??1?$__crt_unique_heap_ptr@Ulconv@@U__crt_internal_free_policy@@@@QAE@XZ 00446601 f i libucrt:initmon.obj
 0001:00045617       ?detach@?$__crt_unique_heap_ptr@Ulconv@@U__crt_internal_free_policy@@@@QAEPAUlconv@@XZ 00446617 f i libucrt:initmon.obj
 0001:0004561d       ?release@?$__crt_unique_heap_ptr@Ulconv@@U__crt_internal_free_policy@@@@QAEXXZ 0044661d f i libucrt:initmon.obj
 0001:00045633       ___acrt_locale_free_monetary 00446633 f   libucrt:initmon.obj
 0001:00045770       ___acrt_locale_initialize_monetary 00446770 f   libucrt:initmon.obj
 0001:00045bed       ___acrt_locale_free_numeric 00446bed f   libucrt:initnum.obj
 0001:00045c70       ___acrt_locale_initialize_numeric 00446c70 f   libucrt:initnum.obj
 0001:00045f58       ??$?RU__crt_lc_time_data@@@__crt_internal_free_policy@@QBEXQBU__crt_lc_time_data@@@Z 00446f58 f i libucrt:inittime.obj
 0001:00045ff8       ??0?$__crt_unique_heap_ptr@U__crt_lc_time_data@@U__crt_internal_free_policy@@@@QAE@QAU__crt_lc_time_data@@@Z 00446ff8 f i libucrt:inittime.obj
 0001:0004600c       ??1?$__crt_unique_heap_ptr@U__crt_lc_time_data@@U__crt_internal_free_policy@@@@QAE@XZ 0044700c f i libucrt:inittime.obj
 0001:00046022       ??B?$__crt_unique_heap_ptr@U__crt_lc_time_data@@U__crt_internal_free_policy@@@@QBE_NXZ 00447022 f i libucrt:inittime.obj
 0001:00046029       ?detach@?$__crt_unique_heap_ptr@U__crt_lc_time_data@@U__crt_internal_free_policy@@@@QAEPAU__crt_lc_time_data@@XZ 00447029 f i libucrt:inittime.obj
 0001:0004605d       ?get@?$__crt_unique_heap_ptr@U__crt_lc_time_data@@U__crt_internal_free_policy@@@@QBEPAU__crt_lc_time_data@@XZ 0044705d f i libucrt:inittime.obj
 0001:00046402       ?is_valid@?$__crt_unique_heap_ptr@U__crt_lc_time_data@@U__crt_internal_free_policy@@@@QBE_NXZ 00447402 f i libucrt:inittime.obj
 0001:00046409       ?release@?$__crt_unique_heap_ptr@U__crt_lc_time_data@@U__crt_internal_free_policy@@@@QAEXXZ 00447409 f i libucrt:inittime.obj
 0001:0004641f       ___acrt_locale_free_time   0044741f f   libucrt:inittime.obj
 0001:0004653c       ___acrt_locale_initialize_time 0044753c f   libucrt:inittime.obj
 0001:000465d5       ___pctype_func             004475d5 f   libucrt:ctype.obj
 0001:00046602       ___pwctype_func            00447602 f   libucrt:ctype.obj
 0001:00046608       __malloc_base              00447608 f   libucrt:malloc_base.obj
 0001:0004678b       _wcsncat_s                 0044778b f   libucrt:wcsncat_s.obj
 0001:00046798       _wcscspn                   00447798 f   libucrt:wcscspn.obj
 0001:000471fb       ??1?$__crt_simd_cleanup_guard@$00@@QAE@XZ 004481fb f i libucrt:strnlen.obj
 0001:000471ff       ??1?$__crt_simd_cleanup_guard@$0A@@@QAE@XZ 004481ff f i libucrt:strnlen.obj
 0001:00047202       ?compare_equals@?$__crt_simd_traits@$00E@@SA?AT__m256i@@T2@0@Z 00448202 f i libucrt:strnlen.obj
 0001:00047207       ?compare_equals@?$__crt_simd_traits@$00G@@SA?AT__m256i@@T2@0@Z 00448207 f i libucrt:strnlen.obj
 0001:0004720c       ?compare_equals@?$__crt_simd_traits@$0A@E@@SA?AT__m128i@@T2@0@Z 0044820c f i libucrt:strnlen.obj
 0001:00047211       ?compare_equals@?$__crt_simd_traits@$0A@G@@SA?AT__m128i@@T2@0@Z 00448211 f i libucrt:strnlen.obj
 0001:00047216       ?compute_byte_mask@?$__crt_simd_pack_traits@$00@@SAHT__m256i@@@Z 00448216 f i libucrt:strnlen.obj
 0001:0004721b       ?compute_byte_mask@?$__crt_simd_pack_traits@$0A@@@SAHT__m128i@@@Z 0044821b f i libucrt:strnlen.obj
 0001:00047220       ?get_zero_pack@?$__crt_simd_pack_traits@$00@@SA?AT__m256i@@XZ 00448220 f i libucrt:strnlen.obj
 0001:00047225       ?get_zero_pack@?$__crt_simd_pack_traits@$0A@@@SA?AT__m128i@@XZ 00448225 f i libucrt:strnlen.obj
 0001:00047229       _strnlen                   00448229 f   libucrt:strnlen.obj
 0001:00047393       _wcslen                    00448393 f   libucrt:strnlen.obj
 0001:00047505       _wcsnlen                   00448505 f   libucrt:strnlen.obj
 0001:00047721       _wcspbrk                   00448721 f   libucrt:wcspbrk.obj
 0001:00047782       ??0?$__crt_scoped_stack_ptr@_W@@QAE@U?$__crt_scoped_stack_ptr_tag@_W@@@Z 00448782 f i libucrt:getstringtypea.obj
 0001:00047796       ??0?$__crt_scoped_stack_ptr_tag@_W@@QAE@QA_W@Z 00448796 f i libucrt:getstringtypea.obj
 0001:000477aa       ??1?$__crt_scoped_stack_ptr@_W@@QAE@XZ 004487aa f i libucrt:getstringtypea.obj
 0001:000477b5       ?get@?$__crt_scoped_stack_ptr@_W@@QBEPA_WXZ 004487b5 f i libucrt:getstringtypea.obj
 0001:000477b8       __MallocaComputeSize       004487b8 f i libucrt:getstringtypea.obj
 0001:000477cf       __MarkAllocaS              004487cf f i libucrt:getstringtypea.obj
 0001:000477ea       ___acrt_GetStringTypeA     004487ea f   libucrt:getstringtypea.obj
 0001:0004792b       __freea_crt                0044892b f i libucrt:getstringtypea.obj
 0001:00047953       ___acrt_add_locale_ref     00448953 f   libucrt:locale_refcounting.obj
 0001:000479ef       ___acrt_free_locale        004489ef f   libucrt:locale_refcounting.obj
 0001:00047b89       ___acrt_locale_add_lc_time_reference 00448b89 f   libucrt:locale_refcounting.obj
 0001:00047bbc       ___acrt_locale_free_lc_time_if_unreferenced 00448bbc f   libucrt:locale_refcounting.obj
 0001:00047bf9       ___acrt_locale_release_lc_time_reference 00448bf9 f   libucrt:locale_refcounting.obj
 0001:00047c2c       ___acrt_release_locale_ref 00448c2c f   libucrt:locale_refcounting.obj
 0001:00047ccd       ___acrt_update_thread_locale_data 00448ccd f   libucrt:locale_refcounting.obj
 0001:00047d6e       __updatetlocinfoEx_nolock  00448d6e f   libucrt:locale_refcounting.obj
 0001:000486df       ___acrt_get_qualified_locale 004496df f   libucrt:get_qualified_locale.obj
 0001:000492d1       ___acrt_get_qualified_locale_downlevel 0044a2d1 f   libucrt:getqloc_downlevel.obj
 0001:0004954d       ??$?B$$A6GHPA_WKJ@Z@__crt_fast_encoded_nullptr_t@@QBEP6GHPA_WKJ@ZXZ 0044a54d f i libucrt:winapi_thunks.obj
 0001:0004961d       ??$__crt_fast_decode_pointer@P6GHPA_WKJ@Z@@YAP6GHPA_WKJ@ZQ6GH0KJ@Z@Z 0044a61d f i libucrt:winapi_thunks.obj
 0001:0004963e       ??$__crt_fast_decode_pointer@PAX@@YAPAXQAX@Z 0044a63e f i libucrt:winapi_thunks.obj
 0001:0004965f       ??$__crt_fast_encode_pointer@P6GHPA_WKJ@Z@@YAP6GHPA_WKJ@ZQ6GH0KJ@Z@Z 0044a65f f i libucrt:winapi_thunks.obj
 0001:00049ea1       _GetCurrentThreadEffectiveToken 0044aea1 f i libucrt:winapi_thunks.obj
 0001:00049ea5       ___acrt_AppPolicyGetProcessTerminationMethodInternal@4 0044aea5 f   libucrt:winapi_thunks.obj
 0001:00049ef5       ___acrt_AppPolicyGetShowDeveloperDiagnosticInternal@4 0044aef5 f   libucrt:winapi_thunks.obj
 0001:00049f45       ___acrt_AppPolicyGetThreadInitializationTypeInternal@4 0044af45 f   libucrt:winapi_thunks.obj
 0001:00049f95       ___acrt_AppPolicyGetWindowingModelInternal@4 0044af95 f   libucrt:winapi_thunks.obj
 0001:00049fe5       ___acrt_AreFileApisANSI@0  0044afe5 f   libucrt:winapi_thunks.obj
 0001:0004a00b       ___acrt_CompareStringEx@36 0044b00b f   libucrt:winapi_thunks.obj
 0001:0004a07f       ___acrt_EnumSystemLocalesEx@16 0044b07f f   libucrt:winapi_thunks.obj
 0001:0004a0e8       ___acrt_FlsAlloc@4         0044b0e8 f   libucrt:winapi_thunks.obj
 0001:0004a136       ___acrt_FlsFree@4          0044b136 f   libucrt:winapi_thunks.obj
 0001:0004a184       ___acrt_FlsGetValue@4      0044b184 f   libucrt:winapi_thunks.obj
 0001:0004a1d2       ___acrt_FlsSetValue@8      0044b1d2 f   libucrt:winapi_thunks.obj
 0001:0004a224       ___acrt_GetDateFormatEx@28 0044b224 f   libucrt:winapi_thunks.obj
 0001:0004a290       ___acrt_GetEnabledXStateFeatures@0 0044b290 f   libucrt:winapi_thunks.obj
 0001:0004a2d1       ___acrt_GetLocaleInfoEx@16 0044b2d1 f   libucrt:winapi_thunks.obj
 0001:0004a31f       ___acrt_GetSystemTimePreciseAsFileTime@4 0044b31f f   libucrt:winapi_thunks.obj
 0001:0004a36d       ___acrt_GetTempPath2W@8    0044b36d f   libucrt:winapi_thunks.obj
 0001:0004a3bf       ___acrt_GetTimeFormatEx@24 0044b3bf f   libucrt:winapi_thunks.obj
 0001:0004a415       ___acrt_GetUserDefaultLocaleName@8 0044b415 f   libucrt:winapi_thunks.obj
 0001:0004a460       ___acrt_GetXStateFeaturesMask@8 0044b460 f   libucrt:winapi_thunks.obj
 0001:0004a4b0       ___acrt_InitializeCriticalSectionEx@12 0044b4b0 f   libucrt:winapi_thunks.obj
 0001:0004a50d       ___acrt_IsValidLocaleName@4 0044b50d f   libucrt:winapi_thunks.obj
 0001:0004a553       ___acrt_LCIDToLocaleName@16 0044b553 f   libucrt:winapi_thunks.obj
 0001:0004a5a1       ___acrt_LCMapStringEx@36   0044b5a1 f   libucrt:winapi_thunks.obj
 0001:0004a615       ___acrt_LocaleNameToLCID@8 0044b615 f   libucrt:winapi_thunks.obj
 0001:0004a652       ___acrt_LocateXStateFeature@12 0044b652 f   libucrt:winapi_thunks.obj
 0001:0004a68c       ___acrt_MessageBoxA@16     0044b68c f   libucrt:winapi_thunks.obj
 0001:0004a6ca       ___acrt_MessageBoxW@16     0044b6ca f   libucrt:winapi_thunks.obj
 0001:0004a708       ___acrt_RoInitialize@4     0044b708 f   libucrt:winapi_thunks.obj
 0001:0004a751       ___acrt_RoUninitialize@0   0044b751 f   libucrt:winapi_thunks.obj
 0001:0004a78a       ___acrt_RtlGenRandom@8     0044b78a f   libucrt:winapi_thunks.obj
 0001:0004a7da       ___acrt_SetThreadStackGuarantee@4 0044b7da f   libucrt:winapi_thunks.obj
 0001:0004a823       ___acrt_can_show_message_box 0044b823 f   libucrt:winapi_thunks.obj
 0001:0004a853       ___acrt_can_use_vista_locale_apis 0044b853 f   libucrt:winapi_thunks.obj
 0001:0004a860       ___acrt_can_use_xstate_apis 0044b860 f   libucrt:winapi_thunks.obj
 0001:0004a86d       ___acrt_eagerly_load_locale_apis 0044b86d f   libucrt:winapi_thunks.obj
 0001:0004a8b1       ___acrt_get_parent_window  0044b8b1 f   libucrt:winapi_thunks.obj
 0001:0004a933       ___acrt_initialize_winapi_thunks 0044b933 f   libucrt:winapi_thunks.obj
 0001:0004a94c       ___acrt_is_interactive     0044b94c f   libucrt:winapi_thunks.obj
 0001:0004aa14       ___acrt_uninitialize_winapi_thunks 0044ba14 f   libucrt:winapi_thunks.obj
 0001:0004aa57       _localeconv                0044ba57 f   libucrt:localeconv.obj
 0001:0004aa89       __recalloc                 0044ba89 f   libucrt:recalloc.obj
 0001:0004aa96       __recalloc_base            0044ba96 f   libucrt:recalloc.obj
 0001:0004ab1e       ___acrt_getheap            0044bb1e f   libucrt:heap_handle.obj
 0001:0004ab24       ___acrt_initialize_heap    0044bb24 f   libucrt:heap_handle.obj
 0001:0004ab39       ___acrt_uninitialize_heap  0044bb39 f   libucrt:heap_handle.obj
 0001:0004ab45       __get_heap_handle          0044bb45 f   libucrt:heap_handle.obj
 0001:0004ab4b       ___acrt_execute_initializers 0044bb4b f   libucrt:shared_initialization.obj
 0001:0004abcd       ___acrt_execute_uninitializers 0044bbcd f   libucrt:shared_initialization.obj
 0001:0004ac0a       ??$?B$$A6AHI@Z@__crt_fast_encoded_nullptr_t@@QBEP6AHI@ZXZ 0044bc0a f i libucrt:new_handler.obj
 0001:0004ac10       ??$__crt_fast_decode_pointer@P6AHI@Z@@YAP6AHI@ZQ6AHI@Z@Z 0044bc10 f i libucrt:new_handler.obj
 0001:0004ac31       ??$__crt_fast_encode_pointer@P6AHI@Z@@YAP6AHI@ZQ6AHI@Z@Z 0044bc31 f i libucrt:new_handler.obj
 0001:0004ac57       ?_set_new_handler@@YAP6AHI@ZH@Z 0044bc57 f   libucrt:new_handler.obj
 0001:0004ac67       ?initialize@?$dual_state_global@P6AHI@Z@__crt_state_management@@QAEXQ6AHI@Z@Z 0044bc67 f i libucrt:new_handler.obj
 0001:0004ac8a       ?value@?$dual_state_global@P6AHI@Z@__crt_state_management@@QAEAAP6AHI@ZXZ 0044bc8a f i libucrt:new_handler.obj
 0001:0004ac8d       ___acrt_initialize_new_handler 0044bc8d f   libucrt:new_handler.obj
 0001:0004ac9f       __callnewh                 0044bc9f f   libucrt:new_handler.obj
 0001:0004acd6       __query_new_handler        0044bcd6 f   libucrt:new_handler.obj
 0001:0004ad42       __set_new_handler          0044bd42 f   libucrt:new_handler.obj
 0001:0004adc0       ??$?B$$A6AXH@Z@__crt_fast_encoded_nullptr_t@@QBEP6AXH@ZXZ 0044bdc0 f i libucrt:signal.obj
 0001:0004ae77       ??$__crt_fast_decode_pointer@P6AXH@Z@@YAP6AXH@ZQ6AXH@Z@Z 0044be77 f i libucrt:signal.obj
 0001:0004ae98       ??$__crt_fast_encode_pointer@P6AXH@Z@@YAP6AXH@ZQ6AXH@Z@Z 0044be98 f i libucrt:signal.obj
 0001:0004b047       ?initialize@?$dual_state_global@P6AXH@Z@__crt_state_management@@QAEXQ6AXH@Z@Z 0044c047 f i libucrt:signal.obj
 0001:0004b11a       ?value@?$dual_state_global@P6AXH@Z@__crt_state_management@@QAEAAP6AXH@ZXZ 0044c11a f i libucrt:signal.obj
 0001:0004b11d       ___acrt_get_sigabrt_handler 0044c11d f   libucrt:signal.obj
 0001:0004b14d       ___acrt_initialize_signal_handlers 0044c14d f   libucrt:signal.obj
 0001:0004b172       ___fpecode                 0044c172 f   libucrt:signal.obj
 0001:0004b17d       ___pxcptinfoptrs           0044c17d f   libucrt:signal.obj
 0001:0004b188       _raise                     0044c188 f   libucrt:signal.obj
 0001:0004b3f6       _signal                    0044c3f6 f   libucrt:signal.obj
 0001:0004b99b       ??0__crt_stdio_stream@@QAE@QAU__crt_stdio_stream_data@@@Z 0044c99b f i libucrt:fflush.obj
 0001:0004bae7       ?__acrt_stdio_reset_buffer@@YAXV__crt_stdio_stream@@@Z 0044cae7 f i libucrt:fflush.obj
 0001:0004bc00       ?has_all_of@__crt_stdio_stream@@QBE_NJ@Z 0044cc00 f i libucrt:fflush.obj
 0001:0004bc7c       ___acrt_stdio_flush_nolock 0044cc7c f   libucrt:fflush.obj
 0001:0004bcff       __fflush_nolock            0044ccff f   libucrt:fflush.obj
 0001:0004bd7d       __flushall                 0044cd7d f   libucrt:fflush.obj
 0001:0004bd88       _fflush                    0044cd88 f   libucrt:fflush.obj
 0001:0004bdef       ?has_temporary_buffer@__crt_stdio_stream@@QBE_NXZ 0044cdef f i libucrt:_sftbuf.obj
 0001:0004bdfe       ___acrt_should_use_temporary_buffer 0044cdfe f   libucrt:_sftbuf.obj
 0001:0004be4b       ___acrt_stdio_begin_temporary_buffering_nolock 0044ce4b f   libucrt:_sftbuf.obj
 0001:0004bf20       ___acrt_stdio_end_temporary_buffering_nolock 0044cf20 f   libucrt:_sftbuf.obj
 0001:0004c0ff       ___control87_2             0044d0ff f   libucrt:ieee87.obj
 0001:0004c6bd       ___fpreset_sse2            0044d6bd f   libucrt:ieee87.obj
 0001:0004c906       __clearfp                  0044d906 f   libucrt:ieee87.obj
 0001:0004ca1b       __control87                0044da1b f   libucrt:ieee87.obj
 0001:0004cddc       __controlfp                0044dddc f   libucrt:ieee87.obj
 0001:0004cdfc       __fpreset                  0044ddfc f   libucrt:ieee87.obj
 0001:0004cf07       __set_controlfp            0044df07 f   libucrt:ieee87.obj
 0001:0004cf96       __statusfp                 0044df96 f   libucrt:ieee87.obj
 0001:0004d057       __statusfp2                0044e057 f   libucrt:ieee87.obj
 0001:0004d0d2       ?__acrt_fp_classify@@YA?AW4__acrt_fp_class@@ABN@Z 0044e0d2 f i libucrt:cvt.obj
 0001:0004d14c       ?__acrt_fp_is_negative@@YA_NABN@Z 0044e14c f i libucrt:cvt.obj
 0001:0004dd3a       ?strrchr@@YAPADQADH@Z      0044ed3a f i libucrt:cvt.obj
 0001:0004dd47       ___acrt_fp_format          0044ed47 f   libucrt:cvt.obj
 0001:0004df28       ?value_or@?$cached@H@__crt_cached_ptd_host@@QBEHH@Z 0044ef28 f i libucrt:wctomb.obj
 0001:0004df43       __wctomb_internal          0044ef43 f   libucrt:wctomb.obj
 0001:0004e107       __wctomb_l                 0044f107 f   libucrt:wctomb.obj
 0001:0004e178       __wctomb_s_l               0044f178 f   libucrt:wctomb.obj
 0001:0004e1c1       _wctomb                    0044f1c1 f   libucrt:wctomb.obj
 0001:0004e220       _wctomb_s                  0044f220 f   libucrt:wctomb.obj
 0001:0004e268       __mbtowc_internal          0044f268 f   libucrt:mbtowc.obj
 0001:0004e3e7       __mbtowc_l                 0044f3e7 f   libucrt:mbtowc.obj
 0001:0004e42d       _mbtowc                    0044f42d f   libucrt:mbtowc.obj
 0001:0004e471       __get_printf_count_output  0044f471 f   libucrt:printf_count_output.obj
 0001:0004e48b       __set_printf_count_output  0044f48b f   libucrt:printf_count_output.obj
 0001:0004e5b4       __fputwc_nolock            0044f5b4 f   libucrt:fputwc.obj
 0001:0004e5f7       __fputwc_nolock_internal   0044f5f7 f   libucrt:fputwc.obj
 0001:0004e77d       __fputwchar                0044f77d f   libucrt:fputwc.obj
 0001:0004e79d       __putwc_nolock             0044f79d f   libucrt:fputwc.obj
 0001:0004e7aa       _fputwc                    0044f7aa f   libucrt:fputwc.obj
 0001:0004e7ed       _putwc                     0044f7ed f   libucrt:fputwc.obj
 0001:0004e7fa       _putwchar                  0044f7fa f   libucrt:fputwc.obj
 0001:0004e807       __iswctype_l               0044f807 f   libucrt:iswctype.obj
 0001:0004e820       _iswctype                  0044f820 f   libucrt:iswctype.obj
 0001:0004e8a3       ?is_in_use@__crt_stdio_stream@@QBE_NXZ 0044f8a3 f i libucrt:closeall.obj
 0001:0004e8b2       __fcloseall                0044f8b2 f   libucrt:closeall.obj
 0001:0004e987       ?has_crt_buffer@__crt_stdio_stream@@QBE_NXZ 0044f987 f i libucrt:_freebuf.obj
 0001:0004e996       ___acrt_stdio_free_buffer_nolock 0044f996 f   libucrt:_freebuf.obj
 0001:0004eebc       __lseek                    0044febc f   libucrt:lseek.obj
 0001:0004ef00       __lseek_internal           0044ff00 f   libucrt:lseek.obj
 0001:0004ef0d       __lseek_nolock             0044ff0d f   libucrt:lseek.obj
 0001:0004ef51       __lseek_nolock_internal    0044ff51 f   libucrt:lseek.obj
 0001:0004ef5e       __lseeki64                 0044ff5e f   libucrt:lseek.obj
 0001:0004efae       __lseeki64_internal        0044ffae f   libucrt:lseek.obj
 0001:0004efd3       __lseeki64_nolock          0044ffd3 f   libucrt:lseek.obj
 0001:0004f023       __lseeki64_nolock_internal 00450023 f   libucrt:lseek.obj
 0001:0004fa32       __utf8_no_of_trailbytes    00450a32 f i libucrt:write.obj
 0001:0004fa47       __write                    00450a47 f   libucrt:write.obj
 0001:0004fa8b       __write_internal           00450a8b f   libucrt:write.obj
 0001:0004fbe0       __write_nolock             00450be0 f   libucrt:write.obj
 0001:0004fe83       ___acrt_stdio_allocate_buffer_nolock 00450e83 f   libucrt:_getbuf.obj
 0001:0004fef6       ___acrt_OutputDebugStringA@4 00450ef6 f   libucrt:outputdebugstringa.obj
 0001:00050070       _qsort                     00451070 f   libucrt:qsort.obj
 0001:0005077d       _strncpy_s                 0045177d f   libucrt:strncpy_s.obj
 0001:00050790       _strpbrk                   00451790 f   libucrt:strpbrk.obj
 0001:000507e0       __mbsdec                   004517e0 f   libucrt:mbsdec.obj
 0001:000507fc       __mbsdec_l                 004517fc f   libucrt:mbsdec.obj
 0001:000508ac       ??B?$__crt_scoped_stack_ptr@_W@@QBE_NXZ 004518ac f i libucrt:lcmapstringa.obj
 0001:00050b1d       ___acrt_LCMapStringA       00451b1d f   libucrt:lcmapstringa.obj
 0001:00050b8a       __wcsnicoll                00451b8a f   libucrt:wcsnicol.obj
 0001:00050c12       __wcsnicoll_l              00451c12 f   libucrt:wcsnicol.obj
 0001:00050d02       __strnicoll                00451d02 f   libucrt:strnicol.obj
 0001:00050d35       __strnicoll_l              00451d35 f   libucrt:strnicol.obj
 0001:00050e2f       ___acrt_SetEnvironmentVariableA 00451e2f f   libucrt:setenvironmentvariablea.obj
 0001:00050fff       ___acrt_GetLocaleInfoA     00451fff f   libucrt:getlocaleinfoa.obj
 0001:0005185a       __i64toa                   0045285a f   libucrt:xtoa.obj
 0001:000518ab       __i64toa_s                 004528ab f   libucrt:xtoa.obj
 0001:000518f9       __i64tow                   004528f9 f   libucrt:xtoa.obj
 0001:0005194a       __i64tow_s                 0045294a f   libucrt:xtoa.obj
 0001:00051998       __itoa                     00452998 f   libucrt:xtoa.obj
 0001:000519da       __itoa_s                   004529da f   libucrt:xtoa.obj
 0001:00051a19       __itow                     00452a19 f   libucrt:xtoa.obj
 0001:00051a5b       __itow_s                   00452a5b f   libucrt:xtoa.obj
 0001:00051a9a       __ltoa                     00452a9a f   libucrt:xtoa.obj
 0001:00051adc       __ltoa_s                   00452adc f   libucrt:xtoa.obj
 0001:00051b1b       __ltow                     00452b1b f   libucrt:xtoa.obj
 0001:00051b5d       __ltow_s                   00452b5d f   libucrt:xtoa.obj
 0001:00051b9c       __ui64toa                  00452b9c f   libucrt:xtoa.obj
 0001:00051bc6       __ui64toa_s                00452bc6 f   libucrt:xtoa.obj
 0001:00051bee       __ui64tow                  00452bee f   libucrt:xtoa.obj
 0001:00051c18       __ui64tow_s                00452c18 f   libucrt:xtoa.obj
 0001:00051c40       __ultoa                    00452c40 f   libucrt:xtoa.obj
 0001:00051c66       __ultoa_s                  00452c66 f   libucrt:xtoa.obj
 0001:00051c8a       __ultow                    00452c8a f   libucrt:xtoa.obj
 0001:00051cb0       __ultow_s                  00452cb0 f   libucrt:xtoa.obj
 0001:00051cd4       ___ascii_wcsicmp           00452cd4 f   libucrt:wcsicmp.obj
 0001:00051d20       __towlower_fast_internal   00452d20 f i libucrt:wcsicmp.obj
 0001:00051d55       __towlower_internal        00452d55 f i libucrt:wcsicmp.obj
 0001:00051da3       __wcsicmp                  00452da3 f   libucrt:wcsicmp.obj
 0001:00051dfe       __wcsicmp_l                00452dfe f   libucrt:wcsicmp.obj
 0001:00051ee4       ___ascii_wcsnicmp          00452ee4 f   libucrt:wcsnicmp.obj
 0001:00051f46       __wcsnicmp                 00452f46 f   libucrt:wcsnicmp.obj
 0001:00051fa5       __wcsnicmp_l               00452fa5 f   libucrt:wcsnicmp.obj
 0001:00052154       ___acrt_DownlevelLCIDToLocaleName 00453154 f   libucrt:lcidtoname_downlevel.obj
 0001:0005221f       ___acrt_DownlevelLocaleNameToLCID 0045321f f   libucrt:lcidtoname_downlevel.obj
 0001:00052256       __msize                    00453256 f   libucrt:msize.obj
 0001:00052263       __msize_base               00453263 f   libucrt:msize.obj
 0001:000522a2       __realloc_base             004532a2 f   libucrt:realloc_base.obj
 0001:000524de       __commit                   004534de f   libucrt:commit.obj
 0001:0005257a       __isatty                   0045357a f   libucrt:isatty.obj
 0001:000525e5       ___clrfp_sse2              004535e5 f   libucrt:fpctrl.obj
 0001:00052623       ___ctrlfp_sse2             00453623 f   libucrt:fpctrl.obj
 0001:0005266c       ___fclrf_sse2              0045366c f   libucrt:fpctrl.obj
 0001:00052690       ___get_fpsr_sse2           00453690 f   libucrt:fpctrl.obj
 0001:000526b3       ___set_fpsr_sse2           004536b3 f   libucrt:fpctrl.obj
 0001:00052753       ___set_statfp_sse2         00453753 f   libucrt:fpctrl.obj
 0001:00052774       ___statfp_sse2             00453774 f   libucrt:fpctrl.obj
 0001:0005278e       __clrfp                    0045378e f   libucrt:fpctrl.obj
 0001:000527a3       __ctrlfp                   004537a3 f   libucrt:fpctrl.obj
 0001:000527d7       __set_statfp               004537d7 f   libucrt:fpctrl.obj
 0001:00052846       __statfp                   00453846 f   libucrt:fpctrl.obj
 0001:00052936       ___acrt_fp_strflt_to_string 00453936 f   libucrt:_fptostr.obj
 0001:000541e0       ??0big_integer@__crt_strtox@@QAE@ABU01@@Z 004551e0 f i libucrt:cfout.obj
 0001:00054220       ??0big_integer@__crt_strtox@@QAE@XZ 00455220 f i libucrt:cfout.obj
 0001:000542d0       ??4big_integer@__crt_strtox@@QAEAAU01@ABU01@@Z 004552d0 f i libucrt:cfout.obj
 0001:00054310       ??8__crt_strtox@@YA_NABUbig_integer@0@0@Z 00455310 f i libucrt:cfout.obj
 0001:00054360       ??9__crt_strtox@@YA_NABUbig_integer@0@0@Z 00455360 f i libucrt:cfout.obj
 0001:000543b0       ?add_carry@__crt_strtox@@YAIAAIII@Z 004553b0 f i libucrt:cfout.obj
 0001:000543e0       ?add_multiply_carry@__crt_strtox@@YAIAAIIII@Z 004553e0 f i libucrt:cfout.obj
 0001:00054410       ?bit_scan_reverse@__crt_strtox@@YAII@Z 00455410 f i libucrt:cfout.obj
 0001:00054440       ?count_sequential_high_zeroes@__crt_strtox@@YAII@Z 00455440 f i libucrt:cfout.obj
 0001:00054470       ?divide@__crt_strtox@@YA_KAAUbig_integer@1@ABU21@@Z 00455470 f i libucrt:cfout.obj
 0001:00054a50       ?is_zero@__crt_strtox@@YA_NABUbig_integer@1@@Z 00455a50 f i libucrt:cfout.obj
 0001:00054a70       ?make_big_integer@__crt_strtox@@YA?AUbig_integer@1@_K@Z 00455a70 f i libucrt:cfout.obj
 0001:00054aa0       ?make_big_integer_power_of_two@__crt_strtox@@YA?AUbig_integer@1@I@Z 00455aa0 f i libucrt:cfout.obj
 0001:00054b00       ?multiply@__crt_strtox@@YA_NAAUbig_integer@1@ABU21@@Z 00455b00 f i libucrt:cfout.obj
 0001:00054f40       ?multiply@__crt_strtox@@YA_NAAUbig_integer@1@I@Z 00455f40 f i libucrt:cfout.obj
 0001:00055040       ?multiply_64_32@__crt_strtox@@YA_K_KI@Z 00456040 f i libucrt:cfout.obj
 0001:00055060       ?multiply_by_power_of_ten@__crt_strtox@@YA_NAAUbig_integer@1@I@Z 00456060 f i libucrt:cfout.obj
 0001:00055760       ?multiply_core@__crt_strtox@@YAIQAIII@Z 00456760 f i libucrt:cfout.obj
 0001:000557b0       ?shift_left@__crt_strtox@@YA_NAAUbig_integer@1@I@Z 004567b0 f i libucrt:cfout.obj
 0001:0005592a       ___acrt_fltout             0045692a f   libucrt:cfout.obj
 0001:0005752d       ___fpe_flt_rounds          0045852d f   libucrt:fegetround.obj
 0001:0005756e       _fegetround                0045856e f   libucrt:fegetround.obj
 0001:0005757e       ?__c32rtomb_utf8@__crt_mbstring@@YAIPAD_UPAU_Mbstatet@@AAV__crt_cached_ptd_host@@@Z 0045857e f   libucrt:c32rtomb.obj
 0001:0005765a       _c32rtomb                  0045865a f   libucrt:c32rtomb.obj
 0001:000576d5       ?__mbrtowc_utf8@__crt_mbstring@@YAIPA_WPBDIPAU_Mbstatet@@AAV__crt_cached_ptd_host@@@Z 004586d5 f   libucrt:mbrtowc.obj
 0001:00057728       ?__mbsrtowcs_utf8@__crt_mbstring@@YAIPA_WPAPBDIPAU_Mbstatet@@AAV__crt_cached_ptd_host@@@Z 00458728 f   libucrt:mbrtowc.obj
 0001:00057db0       _btowc                     00458db0 f   libucrt:mbrtowc.obj
 0001:00057e3d       _mbrlen                    00458e3d f   libucrt:mbrtowc.obj
 0001:00057e97       _mbrtowc                   00458e97 f   libucrt:mbrtowc.obj
 0001:00057f17       _mbsrtowcs                 00458f17 f   libucrt:mbrtowc.obj
 0001:00057f5f       _mbsrtowcs_s               00458f5f f   libucrt:mbrtowc.obj
 0001:00057faf       ___acrt_GetStringTypeW     00458faf f   libucrt:getstringtypew.obj
 0001:0005813b       __fclose_nolock            0045913b f   libucrt:fclose.obj
 0001:00058177       _fclose                    00459177 f   libucrt:fclose.obj
 0001:000582ca       __putwch                   004592ca f   libucrt:putwch.obj
 0001:00058302       __putwch_nolock            00459302 f   libucrt:putwch.obj
 0001:00058340       __putwch_nolock_internal   00459340 f   libucrt:putwch.obj
 0001:000589de       __read                     004599de f   libucrt:read.obj
 0001:00058b3d       __read_nolock              00459b3d f   libucrt:read.obj
 0001:000592f5       __mbstowcs_l               0045a2f5 f   libucrt:mbstowcs.obj
 0001:0005933b       __mbstowcs_s_l             0045a33b f   libucrt:mbstowcs.obj
 0001:00059388       _mbstowcs                  0045a388 f   libucrt:mbstowcs.obj
 0001:000593cc       _mbstowcs_s                0045a3cc f   libucrt:mbstowcs.obj
 0001:00059418       ___strncnt                 0045a418 f   libucrt:strncnt.obj
 0001:0005943b       ___acrt_CompareStringW     0045a43b f   libucrt:comparestringw.obj
 0001:000594b9       __strnicmp                 0045a4b9 f   libucrt:strnicmp.obj
 0001:00059541       __strnicmp_l               0045a541 f   libucrt:strnicmp.obj
 0001:00059984       ___acrt_CompareStringA     0045a984 f   libucrt:comparestringa.obj
 0001:000599db       __towlower_l               0045a9db f   libucrt:towlower.obj
 0001:00059ae4       _towlower                  0045aae4 f   libucrt:towlower.obj
 0001:00059afb       _fegetenv                  0045aafb f   libucrt:fegetenv.obj
 0001:00059b1f       _fesetenv                  0045ab1f f   libucrt:fesetenv.obj
 0001:00059b7e       _feholdexcept              0045ab7e f   libucrt:feholdexcept.obj
 0001:00059be0       __CIlog10                  0045abe0 f   libucrt:log10_impl.obj
 0001:00059c1b       __CIlog10_default          0045ac1b f   libucrt:log10_impl.obj
 0001:00059c2f       __log10_default            0045ac2f     libucrt:log10_impl.obj
 0001:00059d40       _ceil                      0045ad40 f   libucrt:ceil_pentium4.obj
 0001:00059d80       __ceil_pentium4            0045ad80 f   libucrt:ceil_pentium4.obj
 0001:00059ea4       ??$__acrt_fenv_shift_bits@W4__acrt_fenv_abstract_control@@@@YA?AW4__acrt_fenv_abstract_control@@W40@0I@Z 0045aea4 f i libucrt:_fenvutils.obj
 0001:00059eba       ??$__acrt_fenv_shift_bits@W4__acrt_fenv_abstract_status@@@@YA?AW4__acrt_fenv_abstract_status@@W40@0I@Z 0045aeba f i libucrt:_fenvutils.obj
 0001:00059ed0       ??$__acrt_fenv_translate_bit@W4__acrt_fenv_abstract_control@@W4__acrt_fenv_machine_sse_control@@@@YA?AW4__acrt_fenv_abstract_control@@W4__acrt_fenv_machine_sse_control@@0W40@1@Z 0045aed0 f i libucrt:_fenvutils.obj
 0001:00059eee       ??$__acrt_fenv_translate_bit@W4__acrt_fenv_abstract_control@@W4__acrt_fenv_machine_x87_control@@@@YA?AW4__acrt_fenv_abstract_control@@W4__acrt_fenv_machine_x87_control@@0W40@1@Z 0045aeee f i libucrt:_fenvutils.obj
 0001:00059f0c       ??$__acrt_fenv_translate_bit@W4__acrt_fenv_abstract_status@@W4__acrt_fenv_machine_sse_status@@@@YA?AW4__acrt_fenv_abstract_status@@W4__acrt_fenv_machine_sse_status@@0W40@1@Z 0045af0c f i libucrt:_fenvutils.obj
 0001:00059f26       ??$__acrt_fenv_translate_bit@W4__acrt_fenv_abstract_status@@W4__acrt_fenv_machine_x87_status@@@@YA?AW4__acrt_fenv_abstract_status@@W4__acrt_fenv_machine_x87_status@@0W40@1@Z 0045af26 f i libucrt:_fenvutils.obj
 0001:00059f40       ??$__acrt_fenv_translate_bit@W4__acrt_fenv_machine_sse_control@@W4__acrt_fenv_abstract_control@@@@YA?AW4__acrt_fenv_machine_sse_control@@W4__acrt_fenv_abstract_control@@0W40@1@Z 0045af40 f i libucrt:_fenvutils.obj
 0001:00059f5c       ??$__acrt_fenv_translate_bit@W4__acrt_fenv_machine_sse_status@@W4__acrt_fenv_abstract_status@@@@YA?AW4__acrt_fenv_machine_sse_status@@W4__acrt_fenv_abstract_status@@0W40@1@Z 0045af5c f i libucrt:_fenvutils.obj
 0001:00059f76       ??$__acrt_fenv_translate_bit@W4__acrt_fenv_machine_x87_control@@W4__acrt_fenv_abstract_control@@@@YA?AW4__acrt_fenv_machine_x87_control@@W4__acrt_fenv_abstract_control@@0W40@1@Z 0045af76 f i libucrt:_fenvutils.obj
 0001:00059f92       ??$__acrt_fenv_translate_bit@W4__acrt_fenv_machine_x87_status@@W4__acrt_fenv_abstract_status@@@@YA?AW4__acrt_fenv_machine_x87_status@@W4__acrt_fenv_abstract_status@@0W40@1@Z 0045af92 f i libucrt:_fenvutils.obj
 0001:00059fac       ??$__acrt_fenv_unshift_bits@W4__acrt_fenv_abstract_control@@@@YA?AW4__acrt_fenv_abstract_control@@W40@0I@Z 0045afac f i libucrt:_fenvutils.obj
 0001:00059fc2       ??$__acrt_fenv_unshift_bits@W4__acrt_fenv_abstract_status@@@@YA?AW4__acrt_fenv_abstract_status@@W40@0I@Z 0045afc2 f i libucrt:_fenvutils.obj
 0001:0005a4b1       ??I@YA?AW4__acrt_fenv_abstract_control@@W40@0@Z 0045b4b1 f i libucrt:_fenvutils.obj
 0001:0005a4c1       ??I@YA?AW4__acrt_fenv_abstract_status@@W40@0@Z 0045b4c1 f i libucrt:_fenvutils.obj
 0001:0005a4d1       ??I@YA?AW4__acrt_fenv_machine_sse_control@@W40@0@Z 0045b4d1 f i libucrt:_fenvutils.obj
 0001:0005a4e1       ??I@YA?AW4__acrt_fenv_machine_sse_status@@W40@0@Z 0045b4e1 f i libucrt:_fenvutils.obj
 0001:0005a4f1       ??I@YA?AW4__acrt_fenv_machine_x87_control@@W40@0@Z 0045b4f1 f i libucrt:_fenvutils.obj
 0001:0005a501       ??I@YA?AW4__acrt_fenv_machine_x87_status@@W40@0@Z 0045b501 f i libucrt:_fenvutils.obj
 0001:0005a511       ??U@YA?AW4__acrt_fenv_abstract_control@@W40@0@Z 0045b511 f i libucrt:_fenvutils.obj
 0001:0005a521       ??U@YA?AW4__acrt_fenv_abstract_status@@W40@0@Z 0045b521 f i libucrt:_fenvutils.obj
 0001:0005a531       ??U@YA?AW4__acrt_fenv_machine_sse_control@@W40@0@Z 0045b531 f i libucrt:_fenvutils.obj
 0001:0005a541       ??U@YA?AW4__acrt_fenv_machine_x87_control@@W40@0@Z 0045b541 f i libucrt:_fenvutils.obj
 0001:0005a551       ??_5@YAAAW4__acrt_fenv_abstract_control@@AAW40@W40@@Z 0045b551 f i libucrt:_fenvutils.obj
 0001:0005a563       ??_5@YAAAW4__acrt_fenv_abstract_status@@AAW40@W40@@Z 0045b563 f i libucrt:_fenvutils.obj
 0001:0005a575       ??_5@YAAAW4__acrt_fenv_machine_sse_control@@AAW40@W40@@Z 0045b575 f i libucrt:_fenvutils.obj
 0001:0005a58a       ??_5@YAAAW4__acrt_fenv_machine_sse_status@@AAW40@W40@@Z 0045b58a f i libucrt:_fenvutils.obj
 0001:0005a59c       ??_5@YAAAW4__acrt_fenv_machine_x87_control@@AAW40@W40@@Z 0045b59c f i libucrt:_fenvutils.obj
 0001:0005a5b1       ??_5@YAAAW4__acrt_fenv_machine_x87_status@@AAW40@W40@@Z 0045b5b1 f i libucrt:_fenvutils.obj
 0001:0005a5c3       ?__acrt_fenv_shift_abstract_sse_control@@YA?AW4__acrt_fenv_abstract_control@@W41@@Z 0045b5c3 f i libucrt:_fenvutils.obj
 0001:0005a5e7       ?__acrt_fenv_shift_abstract_sse_status@@YA?AW4__acrt_fenv_abstract_status@@W41@@Z 0045b5e7 f i libucrt:_fenvutils.obj
 0001:0005a5fb       ?__acrt_fenv_shift_abstract_x87_control@@YA?AW4__acrt_fenv_abstract_control@@W41@@Z 0045b5fb f i libucrt:_fenvutils.obj
 0001:0005a61f       ?__acrt_fenv_shift_abstract_x87_status@@YA?AW4__acrt_fenv_abstract_status@@W41@@Z 0045b61f f i libucrt:_fenvutils.obj
 0001:0005a633       ?__acrt_fenv_unshift_abstract_sse_control@@YA?AW4__acrt_fenv_abstract_control@@W41@@Z 0045b633 f i libucrt:_fenvutils.obj
 0001:0005a659       ?__acrt_fenv_unshift_abstract_sse_status@@YA?AW4__acrt_fenv_abstract_status@@W41@@Z 0045b659 f i libucrt:_fenvutils.obj
 0001:0005a66d       ?__acrt_fenv_unshift_abstract_x87_control@@YA?AW4__acrt_fenv_abstract_control@@W41@@Z 0045b66d f i libucrt:_fenvutils.obj
 0001:0005a693       ?__acrt_fenv_unshift_abstract_x87_status@@YA?AW4__acrt_fenv_abstract_status@@W41@@Z 0045b693 f i libucrt:_fenvutils.obj
 0001:0005ace5       ___acrt_fenv_expand_round_control 0045bce5 f   libucrt:_fenvutils.obj
 0001:0005ad28       ___acrt_fenv_get_common_round_control 0045bd28 f   libucrt:_fenvutils.obj
 0001:0005ad52       ___acrt_fenv_get_control   0045bd52 f   libucrt:_fenvutils.obj
 0001:0005adf2       ___acrt_fenv_get_fp_status_word_from_exception_mask 0045bdf2 f   libucrt:_fenvutils.obj
 0001:0005ae12       ___acrt_fenv_get_status    0045be12 f   libucrt:_fenvutils.obj
 0001:0005aee6       ___acrt_fenv_set_control   0045bee6 f   libucrt:_fenvutils.obj
 0001:0005af7f       ___acrt_fenv_set_status    0045bf7f f   libucrt:_fenvutils.obj
 0001:0005b0ba       ?reset_and_return@__crt_mbstring@@YAIIPAU_Mbstatet@@@Z 0045c0ba f   libucrt:common_utf8.obj
 0001:0005b0d3       ?return_illegal_sequence@__crt_mbstring@@YAIPAU_Mbstatet@@AAV__crt_cached_ptd_host@@@Z 0045c0d3 f   libucrt:common_utf8.obj
 0001:0005b0fd       ?__mbrtoc32_utf8@__crt_mbstring@@YAIPA_UPBDIPAU_Mbstatet@@AAV__crt_cached_ptd_host@@@Z 0045c0fd f   libucrt:mbrtoc32.obj
 0001:0005b31a       _mbrtoc32                  0045c31a f   libucrt:mbrtoc32.obj
 0001:0005b577       __close                    0045c577 f   libucrt:close.obj
 0001:0005b5b3       __close_internal           0045c5b3 f   libucrt:close.obj
 0001:0005b67e       __close_nolock             0045c67e f   libucrt:close.obj
 0001:0005b6ba       __close_nolock_internal    0045c6ba f   libucrt:close.obj
 0001:0005b782       ??$?RU__crt_stdio_stream_data@@@__crt_internal_free_policy@@QBEXQBU__crt_stdio_stream_data@@@Z 0045c782 f i libucrt:stream.obj
 0001:0005b798       ??0?$__crt_unique_heap_ptr@U__crt_stdio_stream_data@@U__crt_internal_free_policy@@@@QAE@QAU__crt_stdio_stream_data@@@Z 0045c798 f i libucrt:stream.obj
 0001:0005b7ac       ??0__crt_stdio_stream@@QAE@XZ 0045c7ac f i libucrt:stream.obj
 0001:0005b7b2       ??1?$__crt_unique_heap_ptr@U__crt_stdio_stream_data@@U__crt_internal_free_policy@@@@QAE@XZ 0045c7b2 f i libucrt:stream.obj
 0001:0005b7c8       ?__acrt_stdio_allocate_stream@@YA?AV__crt_stdio_stream@@XZ 0045c7c8 f   libucrt:stream.obj
 0001:0005b84b       ?__acrt_stdio_free_stream@@YAXV__crt_stdio_stream@@@Z 0045c84b f   libucrt:stream.obj
 0001:0005b894       ?deallocate@__crt_stdio_stream@@QAEXXZ 0045c894 f i libucrt:stream.obj
 0001:0005b8a0       ?detach@?$__crt_unique_heap_ptr@U__crt_stdio_stream_data@@U__crt_internal_free_policy@@@@QAEPAU__crt_stdio_stream_data@@XZ 0045c8a0 f i libucrt:stream.obj
 0001:0005b998       ?lock@__crt_stdio_stream@@QBEXXZ 0045c998 f i libucrt:stream.obj
 0001:0005b9a3       ?release@?$__crt_unique_heap_ptr@U__crt_stdio_stream_data@@U__crt_internal_free_policy@@@@QAEXXZ 0045c9a3 f i libucrt:stream.obj
 0001:0005b9b9       ?try_allocate@__crt_stdio_stream@@QAE_NXZ 0045c9b9 f i libucrt:stream.obj
 0001:0005b9e1       ?unlock@__crt_stdio_stream@@QBEXXZ 0045c9e1 f i libucrt:stream.obj
 0001:0005bac6       ___dcrt_lowio_ensure_console_output_initialized 0045cac6 f   libucrt:initcon.obj
 0001:0005baec       ___dcrt_terminate_console_output 0045caec f   libucrt:initcon.obj
 0001:0005bb08       ___dcrt_write_console      0045cb08 f   libucrt:initcon.obj
 0001:0005bb80       ___ascii_strnicmp          0045cb80 f   libucrt:_strnicm.obj
 0001:0005bbf9       ___acrt_LCMapStringW       0045cbf9 f   libucrt:lcmapstringw.obj
 0001:0005bc46       ___acrt_initialize_sse2    0045cc46 f   libucrt:mathfcns.obj
 0001:0005bc5a       __set_SSE2_enable          0045cc5a f   libucrt:mathfcns.obj
 0001:0005bc90       __CIlog10_pentium4         0045cc90 f   libucrt:log10_pentium4.obj
 0001:0005bca8       __log10_pentium4           0045cca8     libucrt:log10_pentium4.obj
 0001:0005bff0       __fFEXP                    0045cff0 f   libucrt:87tran.obj
 0001:0005c047       __rtinfpopse               0045d047     libucrt:87tran.obj
 0001:0005c049       __rtinfnpopse              0045d049     libucrt:87tran.obj
 0001:0005c059       __fFLN                     0045d059     libucrt:87tran.obj
 0001:0005c10e       __rtinfpop                 0045d10e     libucrt:87tran.obj
 0001:0005c110       __rtinfnpop                0045d110     libucrt:87tran.obj
 0001:0005c120       __rtforexpinf              0045d120 f   libucrt:87tran.obj
 0001:0005c12d       __ffexpm1                  0045d12d     libucrt:87tran.obj
 0001:0005c260       __trandisp1                0045d260 f   libucrt:87disp.obj
 0001:0005c2d5       __trandisp2                0045d2d5 f   libucrt:87disp.obj
 0001:0005c36f       __rttospopde               0045d36f     libucrt:87disp.obj
 0001:0005c374       __rttospop                 0045d374     libucrt:87disp.obj
 0001:0005c380       __rtnospop                 0045d380 f   libucrt:87disp.obj
 0001:0005c390       __rttosnpop                0045d390 f   libucrt:87disp.obj
 0001:0005c391       __rtnospopde               0045d391     libucrt:87disp.obj
 0001:0005c398       __rtzeropop                0045d398     libucrt:87disp.obj
 0001:0005c39a       __rtzeronpop               0045d39a     libucrt:87disp.obj
 0001:0005c3a0       __rtzerospop               0045d3a0 f   libucrt:87disp.obj
 0001:0005c3ad       __rtonepop                 0045d3ad     libucrt:87disp.obj
 0001:0005c3b0       __rtonenpop                0045d3b0 f   libucrt:87disp.obj
 0001:0005c3c0       __tosnan1                  0045d3c0 f   libucrt:87disp.obj
 0001:0005c3f0       __nosnan2                  0045d3f0 f   libucrt:87disp.obj
 0001:0005c400       __tosnan2                  0045d400 f   libucrt:87disp.obj
 0001:0005c430       __nan2                     0045d430 f   libucrt:87disp.obj
 0001:0005c470       __rtindfpop                0045d470 f   libucrt:87disp.obj
 0001:0005c472       __rtindfnpop               0045d472     libucrt:87disp.obj
 0001:0005c483       __rttosnpopde              0045d483     libucrt:87disp.obj
 0001:0005c490       __rtatan2inf               0045d490 f   libucrt:87disp.obj
 0001:0005c4ad       __rtchsifneg               0045d4ad     libucrt:87disp.obj
 0001:0005c549       ___setfflag                0045d549 f   libucrt:fp_flags.obj
 0001:0005c570       __twoToTOS                 0045d570 f   libucrt:common.obj
 0001:0005c585       __load_CW                  0045d585 f   libucrt:common.obj
 0001:0005c59c       __convertTOStoQNaN         0045d59c f   libucrt:common.obj
 0001:0005c5b5       __fload_withFB             0045d5b5 f   libucrt:common.obj
 0001:0005c5f8       __checkTOS_withFB          0045d5f8 f   libucrt:common.obj
 0001:0005c60e       __fast_exit                0045d60e f   libucrt:common.obj
 0001:0005c61b       __math_exit                0045d61b f   libucrt:common.obj
 0001:0005c645       __check_overflow_exit      0045d645 f   libucrt:common.obj
 0001:0005c659       __check_range_exit         0045d659 f   libucrt:common.obj
 0001:0005c760       __startTwoArgErrorHandling 0045d760 f   libucrt:genexcep.obj
 0001:0005c777       __startOneArgErrorHandling 0045d777 f   libucrt:genexcep.obj
 0001:0005c7c7       ___libm_error_support      0045d7c7 f   libucrt:libm_error.obj
 0001:0005ca38       ___libm_setusermatherr     0045da38 f   libucrt:libm_error.obj
 0001:0005ca68       __ceil_default             0045da68 f   libucrt:ceil.obj
 0001:0005cb55       __d_inttype                0045db55 f   libucrt:powhlp.obj
 0001:0005cbd7       __powhlp                   0045dbd7 f   libucrt:powhlp.obj
 0001:0005cd4c       __87except                 0045dd4c f   libucrt:87except.obj
 0001:0005cea0       __frnd                     0045dea0 f   libucrt:frnd.obj
 0001:0005ceb9       ?should_round_up@__crt_strtox@@YA_N_N000@Z 0045deb9 f i libucrt:fpexcept.obj
 0001:0005cf19       __errcode                  0045df19 f   libucrt:fpexcept.obj
 0001:0005cf5a       __except1                  0045df5a f   libucrt:fpexcept.obj
 0001:0005d05b       __except2                  0045e05b f   libucrt:fpexcept.obj
 0001:0005d1a4       __handle_exc               0045e1a4 f   libucrt:fpexcept.obj
 0001:0005d4c4       __handle_qnan2             0045e4c4 f   libucrt:fpexcept.obj
 0001:0005d4d4       __raise_exc                0045e4d4 f   libucrt:fpexcept.obj
 0001:0005d4ff       __raise_exc_ex             0045e4ff f   libucrt:fpexcept.obj
 0001:0005d8ac       __raise_excf               0045e8ac f   libucrt:fpexcept.obj
 0001:0005d8d7       __set_errno_from_matherr   0045e8d7 f   libucrt:fpexcept.obj
 0001:0005d914       __umatherr                 0045e914 f   libucrt:fpexcept.obj
 0001:0005d9dc       __add_exp                  0045e9dc f   libucrt:util.obj
 0001:0005da16       __decomp                   0045ea16 f   libucrt:util.obj
 0001:0005db1c       __get_exp                  0045eb1c f   libucrt:util.obj
 0001:0005db3a       __set_bexp                 0045eb3a f   libucrt:util.obj
 0001:0005db6a       __set_exp                  0045eb6a f   libucrt:util.obj
 0001:0005dba2       __sptype                   0045eba2 f   libucrt:util.obj
 0001:0005dc1d       __chgsign                  0045ec1d f   libucrt:ieeemisc.obj
 0001:0005dc4f       __chgsignf                 0045ec4f f   libucrt:ieeemisc.obj
 0001:0005dc78       __copysign                 0045ec78 f   libucrt:ieeemisc.obj
 0001:0005dca3       __copysignf                0045eca3 f   libucrt:ieeemisc.obj
 0001:0005dcc6       __finite                   0045ecc6 f   libucrt:ieeemisc.obj
 0001:0005dce6       __fpclass                  0045ece6 f   libucrt:ieeemisc.obj
 0001:0005ddb3       __isnan                    0045edb3 f   libucrt:ieeemisc.obj
 0001:0005ddf7       __logb                     0045edf7 f   libucrt:ieeemisc.obj
 0001:0005defb       __nextafter                0045eefb f   libucrt:ieeemisc.obj
 0001:0005df21       __scalb                    0045ef21 f   libucrt:ieeemisc.obj
 0001:0005df41       _ldexp                     0045ef41 f   libucrt:ldexp.obj
 0001:0005e1b0       _nextafter                 0045f1b0 f   libucrt:nextafter.obj
 0001:0005e1d6       _nexttoward                0045f1d6 f   libucrt:nexttoward.obj
 0001:0005e43b       __d_int                    0045f43b f   libucrt:_test.obj
 0001:0005e582       __dtest                    0045f582 f   libucrt:_test.obj
 0001:0005e5ff       __fd_int                   0045f5ff f   libucrt:_test.obj
 0001:0005e6ff       __fdtest                   0045f6ff f   libucrt:_test.obj
 0001:0005e760       __fperrraise               0045f760 f   libucrt:_test.obj
 0001:0005e789       __ld_int                   0045f789 f   libucrt:_test.obj
 0001:0005e796       __ldtest                   0045f796 f   libucrt:_test.obj
 0001:0005e7a3       __dclass                   0045f7a3 f   libucrt:nan.obj
 0001:0005e7b8       __dpcomp                   0045f7b8 f   libucrt:nan.obj
 0001:0005e823       __dsign                    0045f823 f   libucrt:nan.obj
 0001:0005e837       _nan                       0045f837 f   libucrt:nan.obj
 0001:0005e83e       __ldclass                  0045f83e f   libucrt:nanl.obj
 0001:0005e853       __ldpcomp                  0045f853 f   libucrt:nanl.obj
 0001:0005e8be       __ldsign                   0045f8be f   libucrt:nanl.obj
 0001:0005e8d2       _nanl                      0045f8d2 f   libucrt:nanl.obj
 0001:0005e8d9       ??_4@YAAAW4__acrt_fenv_abstract_status@@AAW40@W40@@Z 0045f8d9 f i libucrt:fegetexceptflag.obj
 0001:0005e8eb       _fegetexceptflag           0045f8eb f   libucrt:fegetexceptflag.obj
 0001:0005e928       ??S@YA?AW4__acrt_fenv_abstract_status@@W40@@Z 0045f928 f i libucrt:fesetexceptflag.obj
 0001:0005e937       _fesetexceptflag           0045f937 f   libucrt:fesetexceptflag.obj
 0001:0005e9b1       _fetestexcept              0045f9b1 f   libucrt:fetestexcept.obj
 0001:0005e9e0       __FindPESection            0045f9e0 f   LIBCMT:pesect.obj
 0001:0005ea40       __IsNonwritableInCurrentImage 0045fa40 f   LIBCMT:pesect.obj
 0001:0005eb30       __ValidateImageBase        0045fb30 f   LIBCMT:pesect.obj
 0001:0005eb6d       ??1type_info@@UAE@XZ       0045fb6d f   LIBCMT:std_type_info_static.obj
 0001:0005eb74       ??_Etype_info@@UAEPAXI@Z   0045fb74 f i LIBCMT:std_type_info_static.obj
 0001:0005eb74       ??_Gtype_info@@UAEPAXI@Z   0045fb74 f i LIBCMT:std_type_info_static.obj
 0001:0005eb9f       __EH_epilog3               0045fb9f f   LIBCMT:ehprolg3.obj
 0001:0005ebb8       __EH_epilog3_GS            0045fbb8 f   LIBCMT:ehprolg3.obj
 0001:0005ebca       __EH_epilog3_catch_GS      0045fbca f   LIBCMT:ehprolg3.obj
 0001:0005ebdc       __EH_prolog3               0045fbdc f   LIBCMT:ehprolg3.obj
 0001:0005ec1b       __EH_prolog3_GS            0045fc1b f   LIBCMT:ehprolg3.obj
 0001:0005ec5e       __EH_prolog3_catch         0045fc5e f   LIBCMT:ehprolg3.obj
 0001:0005eca1       __EH_prolog3_catch_GS      0045fca1 f   LIBCMT:ehprolg3.obj
 0001:0005ecf0       __aulldvrm                 0045fcf0 f   LIBCMT:ulldvrm.obj
 0001:0005edaa       @_guard_check_icall@4      0045fdaa f i LIBCMT:checkcfg.obj
 0001:0005edb0       ??3@YAXPAXI@Z              0045fdb0 f   LIBCMT:delete_scalar_size.obj
 0001:0005edc1       __except_handler4_noexcept 0045fdc1 f   LIBCMT:chandler4_noexcept.obj
 0001:0005ee20       __aulldiv                  0045fe20 f   LIBCMT:ulldiv.obj
 0001:0005eeb0       __aullrem                  0045feb0 f   LIBCMT:ullrem.obj
 0001:0005ef50       __allmul                   0045ff50 f   LIBCMT:llmul.obj
 0001:0005efa0       __alloca_probe_16          0045ffa0 f   LIBCMT:alloca16.obj
 0001:0005efb6       __alloca_probe_8           0045ffb6     LIBCMT:alloca16.obj
 0001:0005efe0       __alldiv                   0045ffe0 f   LIBCMT:lldiv.obj
 0001:0005f0c0       __allrem                   004600c0 f   LIBCMT:llrem.obj
 0001:0005f1a0       __allshl                   004601a0 f   LIBCMT:llshl.obj
 0001:0005f1d0       __aullshr                  004601d0 f   LIBCMT:ullshr.obj
 0001:0005f200       __alloca_probe             00460200 f   LIBCMT:chkstk.obj
 0001:0005f200       __chkstk                   00460200 f   LIBCMT:chkstk.obj
 0001:0005f240       __ftol2_sse_excpt          00460240 f   LIBCMT:ftol2.obj
 0001:0005f250       __ftol2_sse                00460250 f   LIBCMT:ftol2.obj
 0001:0005f260       __ftoi2                    00460260 f   LIBCMT:ftol2.obj
 0001:0005f300       __ftoui2                   00460300 f   LIBCMT:ftol2.obj
 0001:0005f3d0       __ftol2                    004603d0 f   LIBCMT:ftol2.obj
 0001:0005f4b0       __ftoul2                   004604b0 f   LIBCMT:ftol2.obj
 0001:0005f5a0       __ftoul2_legacy            004605a0 f   LIBCMT:ftol2.obj
 0001:0005f5bb       ??3@YAXPAX@Z               004605bb f   LIBCMT:delete_scalar.obj
 0001:0005f5c0       _InterlockedPushEntrySList@8 004605c0 f   kernel32:KERNEL32.dll
 0001:0005f5c6       _InterlockedFlushSList@4   004605c6 f   kernel32:KERNEL32.dll
 0001:0005f5cc       _RtlUnwind@16              004605cc f   kernel32:KERNEL32.dll
 0001:0005f5d2       _GetLastError@0            004605d2 f   kernel32:KERNEL32.dll
 0001:0005f5d8       _SetLastError@4            004605d8 f   kernel32:KERNEL32.dll
 0001:0005f5de       _EnterCriticalSection@4    004605de f   kernel32:KERNEL32.dll
 0001:0005f5e4       _LeaveCriticalSection@4    004605e4 f   kernel32:KERNEL32.dll
 0001:0005f5ea       _DeleteCriticalSection@4   004605ea f   kernel32:KERNEL32.dll
 0001:0005f5f0       _InitializeCriticalSectionAndSpinCount@8 004605f0 f   kernel32:KERNEL32.dll
 0001:0005f5f6       _TlsAlloc@0                004605f6 f   kernel32:KERNEL32.dll
 0001:0005f5fc       _TlsGetValue@4             004605fc f   kernel32:KERNEL32.dll
 0001:0005f602       _TlsSetValue@8             00460602 f   kernel32:KERNEL32.dll
 0001:0005f608       _TlsFree@4                 00460608 f   kernel32:KERNEL32.dll
 0001:0005f60e       _FreeLibrary@4             0046060e f   kernel32:KERNEL32.dll
 0001:0005f614       _GetProcAddress@8          00460614 f   kernel32:KERNEL32.dll
 0001:0005f61a       _LoadLibraryExW@12         0046061a f   kernel32:KERNEL32.dll
 0001:0005f620       _EncodePointer@4           00460620 f   kernel32:KERNEL32.dll
 0001:0005f626       _RaiseException@16         00460626 f   kernel32:KERNEL32.dll
 0001:0005f62c       _GetStdHandle@4            0046062c f   kernel32:KERNEL32.dll
 0001:0005f632       _WriteFile@20              00460632 f   kernel32:KERNEL32.dll
 0001:0005f638       _GetModuleFileNameW@12     00460638 f   kernel32:KERNEL32.dll
 0001:0005f63e       _ExitProcess@4             0046063e f   kernel32:KERNEL32.dll
 0001:0005f644       _GetModuleHandleExW@12     00460644 f   kernel32:KERNEL32.dll
 0001:0005f64a       _GetCommandLineA@0         0046064a f   kernel32:KERNEL32.dll
 0001:0005f650       _GetCommandLineW@0         00460650 f   kernel32:KERNEL32.dll
 0001:0005f656       _GetCurrentThread@0        00460656 f   kernel32:KERNEL32.dll
 0001:0005f65c       _GetFileSizeEx@8           0046065c f   kernel32:KERNEL32.dll
 0001:0005f662       _SetFilePointerEx@20       00460662 f   kernel32:KERNEL32.dll
 0001:0005f668       _GetFileType@4             00460668 f   kernel32:KERNEL32.dll
 0001:0005f66e       _OutputDebugStringW@4      0046066e f   kernel32:KERNEL32.dll
 0001:0005f674       _HeapAlloc@12              00460674 f   kernel32:KERNEL32.dll
 0001:0005f67a       _HeapFree@12               0046067a f   kernel32:KERNEL32.dll
 0001:0005f680       _FindClose@4               00460680 f   kernel32:KERNEL32.dll
 0001:0005f686       _FindFirstFileExW@24       00460686 f   kernel32:KERNEL32.dll
 0001:0005f68c       _FindNextFileW@8           0046068c f   kernel32:KERNEL32.dll
 0001:0005f692       _IsValidCodePage@4         00460692 f   kernel32:KERNEL32.dll
 0001:0005f698       _GetACP@0                  00460698 f   kernel32:KERNEL32.dll
 0001:0005f69e       _GetOEMCP@0                0046069e f   kernel32:KERNEL32.dll
 0001:0005f6a4       _GetCPInfo@8               004606a4 f   kernel32:KERNEL32.dll
 0001:0005f6aa       _MultiByteToWideChar@24    004606aa f   kernel32:KERNEL32.dll
 0001:0005f6b0       _WideCharToMultiByte@32    004606b0 f   kernel32:KERNEL32.dll
 0001:0005f6b6       _GetEnvironmentStringsW@0  004606b6 f   kernel32:KERNEL32.dll
 0001:0005f6bc       _FreeEnvironmentStringsW@4 004606bc f   kernel32:KERNEL32.dll
 0001:0005f6c2       _SetEnvironmentVariableW@8 004606c2 f   kernel32:KERNEL32.dll
 0001:0005f6c8       _SetStdHandle@8            004606c8 f   kernel32:KERNEL32.dll
 0001:0005f6ce       _GetStringTypeW@16         004606ce f   kernel32:KERNEL32.dll
 0001:0005f6d4       _GetLocaleInfoW@16         004606d4 f   kernel32:KERNEL32.dll
 0001:0005f6da       _IsValidLocale@8           004606da f   kernel32:KERNEL32.dll
 0001:0005f6e0       _GetUserDefaultLCID@0      004606e0 f   kernel32:KERNEL32.dll
 0001:0005f6e6       _EnumSystemLocalesW@8      004606e6 f   kernel32:KERNEL32.dll
 0001:0005f6ec       _GetTempPathW@8            004606ec f   kernel32:KERNEL32.dll
 0001:0005f6f2       _GetDateFormatW@24         004606f2 f   kernel32:KERNEL32.dll
 0001:0005f6f8       _GetTimeFormatW@24         004606f8 f   kernel32:KERNEL32.dll
 0001:0005f6fe       _CompareStringW@24         004606fe f   kernel32:KERNEL32.dll
 0001:0005f704       _LCMapStringW@24           00460704 f   kernel32:KERNEL32.dll
 0001:0005f70a       _GetProcessHeap@0          0046070a f   kernel32:KERNEL32.dll
 0001:0005f710       _SetConsoleCtrlHandler@8   00460710 f   kernel32:KERNEL32.dll
 0001:0005f716       _GetConsoleOutputCP@0      00460716 f   kernel32:KERNEL32.dll
 0001:0005f71c       _GetConsoleMode@8          0046071c f   kernel32:KERNEL32.dll
 0001:0005f722       _HeapSize@12               00460722 f   kernel32:KERNEL32.dll
 0001:0005f728       _HeapReAlloc@16            00460728 f   kernel32:KERNEL32.dll
 0001:0005f72e       _FlushFileBuffers@4        0046072e f   kernel32:KERNEL32.dll
 0001:0005f734       _ReadFile@20               00460734 f   kernel32:KERNEL32.dll
 0001:0005f73a       _ReadConsoleW@20           0046073a f   kernel32:KERNEL32.dll
 0001:0005f740       _CloseHandle@4             00460740 f   kernel32:KERNEL32.dll
 0001:0005f746       _CreateFileW@28            00460746 f   kernel32:KERNEL32.dll
 0001:0005f74c       _WriteConsoleW@20          0046074c f   kernel32:KERNEL32.dll
 0001:0005f752       _DecodePointer@4           00460752 f   kernel32:KERNEL32.dll
 0001:0005f8bb       _memcmp                    004608bb f   libvcruntime:memcmp.obj
 0001:00063060       _strchr                    00464060 f   libvcruntime:strchr.obj
 0001:000630ce       ___from_strstr_to_strchr   004640ce     libvcruntime:strchr.obj
 0001:000631d5       _wcschr                    004641d5 f   libvcruntime:wcschr.obj
 0001:000632a0       _strrchr                   004642a0 f   libvcruntime:strrchr.obj
 0001:00063424       __filter_x86_sse2_floating_point_exception 00464424 f   LIBCMT:x86_exception_filter.obj
 0001:00063424       __filter_x86_sse2_floating_point_exception_default 00464424 f   LIBCMT:x86_exception_filter.obj
 0002:00000000       ___xc_a                    00469000     LIBCMT:initializers.obj
 0002:00000208       ___xc_z                    00469208     LIBCMT:initializers.obj
 0002:0000030c       ___xi_a                    0046930c     LIBCMT:initializers.obj
 0002:00000618       ___acrt_stdio_initializer  00469618     libucrt:stdio_initializer.obj
 0002:0000061c       ___acrt_multibyte_initializer 0046961c     libucrt:multibyte_initializer.obj
 0002:00000620       ___acrt_fmode_initializer  00469620     libucrt:fmode_initializer.obj
 0002:00000624       ___acrt_tran_sse2_initializer 00469624     libucrt:sse2_initializer.obj
 0002:0000072c       ___xi_z                    0046972c     LIBCMT:initializers.obj
 0002:00000830       ___xp_a                    00469830     LIBCMT:initializers.obj
 0002:00000934       ___acrt_locale_terminator  00469934     libucrt:locale_initializer.obj
 0002:00000938       ___dcrt_console_output_terminator 00469938     libucrt:console_output_initializer.obj
 0002:00000a40       ___acrt_stdio_terminator   00469a40     libucrt:stdio_initializer.obj
 0002:00000b44       ___xp_z                    00469b44     LIBCMT:initializers.obj
 0002:00000c48       ___xt_a                    00469c48     LIBCMT:initializers.obj
 0002:00000d4c       ___xt_z                    00469d4c     LIBCMT:initializers.obj
 0002:00000e50       _NUM_ASCII_PROPERTIES      00469e50     main.obj
 0002:00000e58       _s_ascii_properties        00469e58     main.obj
 0002:00000ec8       __pDestructExceptionObject 00469ec8     libvcruntime:ehhelpers.obj
 0002:0000130c       ??_C@_08EHJDFFNH@__based?$CI@ 0046a30c     libvcruntime:undname.obj
 0002:00001318       ??_C@_07KOLFKCDI@__cdecl@  0046a318     libvcruntime:undname.obj
 0002:00001324       ??_C@_08GHMPAG@__pascal@   0046a324     libvcruntime:undname.obj
 0002:00001330       ??_C@_09IFJBGAPI@__stdcall@ 0046a330     libvcruntime:undname.obj
 0002:0000133c       ??_C@_0L@NPHFGOKO@__thiscall@ 0046a33c     libvcruntime:undname.obj
 0002:0000134c       ??_C@_0L@JMKHOMEK@__fastcall@ 0046a34c     libvcruntime:undname.obj
 0002:0000135c       ??_C@_0N@BCKKPABJ@__vectorcall@ 0046a35c     libvcruntime:undname.obj
 0002:0000136c       ??_C@_09HIJEGCPM@__clrcall@ 0046a36c     libvcruntime:undname.obj
 0002:00001378       ??_C@_06GHPCKEAG@__eabi@   0046a378     libvcruntime:undname.obj
 0002:00001380       ??_C@_09IOPIDJLG@__swift_1@ 0046a380     libvcruntime:undname.obj
 0002:0000138c       ??_C@_09KFNFGKHF@__swift_2@ 0046a38c     libvcruntime:undname.obj
 0002:00001398       ??_C@_09LMMOFLDE@__swift_3@ 0046a398     libvcruntime:undname.obj
 0002:000013a4       ??_C@_07JOMMBBKO@__ptr64@  0046a3a4     libvcruntime:undname.obj
 0002:000013b0       ??_C@_0L@PILCLIHE@__restrict@ 0046a3b0     libvcruntime:undname.obj
 0002:000013c0       ??_C@_0M@GFIIJFMG@__unaligned@ 0046a3c0     libvcruntime:undname.obj
 0002:000013d0       ??_C@_09DHDLOLLB@restrict?$CI@ 0046a3d0     libvcruntime:undname.obj
 0002:000013dc       ??_C@_00CNPNBAHC@@         0046a3dc     libvcruntime:undname.obj
 0002:000013e0       ??_C@_04NIHEBCM@?5new@     0046a3e0     libvcruntime:undname.obj
 0002:000013e8       ??_C@_07FPCDHGMM@?5delete@ 0046a3e8     libvcruntime:undname.obj
 0002:000013f4       ??_C@_01NEMOKFLO@?$DN@     0046a3f4     libvcruntime:undname.obj
 0002:000013f8       ??_C@_02GPIOPFAK@?$DO?$DO@ 0046a3f8     libvcruntime:undname.obj
 0002:000013fc       ??_C@_02FODMEDOG@?$DM?$DM@ 0046a3fc     libvcruntime:undname.obj
 0002:00001400       ??_C@_01DCLJPIOD@?$CB@     0046a400     libvcruntime:undname.obj
 0002:00001404       ??_C@_02EGOFBIJA@?$DN?$DN@ 0046a404     libvcruntime:undname.obj
 0002:00001408       ??_C@_02FDNJECIE@?$CB?$DN@ 0046a408     libvcruntime:undname.obj
 0002:0000140c       ??_C@_02GPECMEKF@?$FL?$FN@ 0046a40c     libvcruntime:undname.obj
 0002:00001410       ??_C@_08LHJFAFGD@operator@ 0046a410     libvcruntime:undname.obj
 0002:0000141c       ??_C@_02HBOOOICD@?9?$DO@   0046a41c     libvcruntime:undname.obj
 0002:00001420       ??_C@_01NBENCBCI@?$CK@     0046a420     libvcruntime:undname.obj
 0002:00001424       ??_C@_02ECNGHCIF@?$CL?$CL@ 0046a424     libvcruntime:undname.obj
 0002:00001428       ??_C@_02BAABKJLB@?9?9@     0046a428     libvcruntime:undname.obj
 0002:0000142c       ??_C@_01JOAMLHOP@?9@       0046a42c     libvcruntime:undname.obj
 0002:00001430       ??_C@_01MIFGBAGJ@?$CL@     0046a430     libvcruntime:undname.obj
 0002:00001434       ??_C@_01HNPIGOCE@?$CG@     0046a434     libvcruntime:undname.obj
 0002:00001438       ??_C@_03MNHNFDLC@?9?$DO?$CK@ 0046a438     libvcruntime:undname.obj
 0002:0000143c       ??_C@_01KMDKNFGN@?1@       0046a43c     libvcruntime:undname.obj
 0002:00001440       ??_C@_01FGNFDNOH@?$CF@     0046a440     libvcruntime:undname.obj
 0002:00001444       ??_C@_01MNNFJEPP@?$DM@     0046a444     libvcruntime:undname.obj
 0002:00001448       ??_C@_02EHCHHCKH@?$DM?$DN@ 0046a448     libvcruntime:undname.obj
 0002:0000144c       ??_C@_01PPODPGHN@?$DO@     0046a44c     libvcruntime:undname.obj
 0002:00001450       ??_C@_02EEKDKGMJ@?$DO?$DN@ 0046a450     libvcruntime:undname.obj
 0002:00001454       ??_C@_01IHBHIGKO@?0@       0046a454     libvcruntime:undname.obj
 0002:00001458       ??_C@_02HCKGKOFO@?$CI?$CJ@ 0046a458     libvcruntime:undname.obj
 0002:0000145c       ??_C@_01PJKLJHI@?$HO@      0046a45c     libvcruntime:undname.obj
 0002:00001460       ??_C@_01JKBOJNNK@?$FO@     0046a460     libvcruntime:undname.obj
 0002:00001464       ??_C@_01DNKMNLPK@?$HM@     0046a464     libvcruntime:undname.obj
 0002:00001468       ??_C@_02PPKAJPJL@?$CG?$CG@ 0046a468     libvcruntime:undname.obj
 0002:0000146c       ??_C@_02NONPIBCD@?$HM?$HM@ 0046a46c     libvcruntime:undname.obj
 0002:00001470       ??_C@_02FPIMKNGF@?$CK?$DN@ 0046a470     libvcruntime:undname.obj
 0002:00001474       ??_C@_02FOEOMHFC@?$CL?$DN@ 0046a474     libvcruntime:undname.obj
 0002:00001478       ??_C@_02FKMDLLOA@?9?$DN@   0046a478     libvcruntime:undname.obj
 0002:0000147c       ??_C@_02FJEHGPIO@?1?$DN@   0046a47c     libvcruntime:undname.obj
 0002:00001480       ??_C@_02FENAOKFI@?$CF?$DN@ 0046a480     libvcruntime:undname.obj
 0002:00001484       ??_C@_03IKFCCPFF@?$DO?$DO?$DN@ 0046a484     libvcruntime:undname.obj
 0002:00001488       ??_C@_03CDNPDDLA@?$DM?$DM?$DN@ 0046a488     libvcruntime:undname.obj
 0002:0000148c       ??_C@_02FGJGFEAB@?$CG?$DN@ 0046a48c     libvcruntime:undname.obj
 0002:00001490       ??_C@_02DHLNPPGH@?$HM?$DN@ 0046a490     libvcruntime:undname.obj
 0002:00001494       ??_C@_02MHEGNOJ@?$FO?$DN@  0046a494     libvcruntime:undname.obj
 0002:00001498       ??_C@_09IFPLHPGF@?$GAvftable?8@ 0046a498     libvcruntime:undname.obj
 0002:000014a4       ??_C@_09BLBHBJP@?$GAvbtable?8@ 0046a4a4     libvcruntime:undname.obj
 0002:000014b0       ??_C@_07FEEIOKP@?$GAvcall?8@ 0046a4b0     libvcruntime:undname.obj
 0002:000014bc       ??_C@_08LLFFHHDJ@?$GAtypeof?8@ 0046a4bc     libvcruntime:undname.obj
 0002:000014c8       ??_C@_0BF@KDPPACIK@?$GAlocal?5static?5guard?8@ 0046a4c8     libvcruntime:undname.obj
 0002:000014e4       ??_C@_08OBABFOLI@?$GAstring?8@ 0046a4e4     libvcruntime:undname.obj
 0002:000014f0       ??_C@_0BD@JDLKDPAB@?$GAvbase?5destructor?8@ 0046a4f0     libvcruntime:undname.obj
 0002:00001508       ??_C@_0BN@DEGPLNFK@?$GAvector?5deleting?5destructor?8@ 0046a508     libvcruntime:undname.obj
 0002:0000152c       ??_C@_0BO@OBMKPJIG@?$GAdefault?5constructor?5closure?8@ 0046a52c     libvcruntime:undname.obj
 0002:00001550       ??_C@_0BN@IMDCHIKM@?$GAscalar?5deleting?5destructor?8@ 0046a550     libvcruntime:undname.obj
 0002:00001574       ??_C@_0BO@PFGOCPJJ@?$GAvector?5constructor?5iterator?8@ 0046a574     libvcruntime:undname.obj
 0002:00001598       ??_C@_0BN@LFPFMEDL@?$GAvector?5destructor?5iterator?8@ 0046a598     libvcruntime:undname.obj
 0002:000015bc       ??_C@_0CE@IKBNEHA@?$GAvector?5vbase?5constructor?5itera@ 0046a5bc     libvcruntime:undname.obj
 0002:000015e8       ??_C@_0BL@NILFHHPC@?$GAvirtual?5displacement?5map?8@ 0046a5e8     libvcruntime:undname.obj
 0002:00001608       ??_C@_0CB@JONCMFFK@?$GAeh?5vector?5constructor?5iterator@ 0046a608     libvcruntime:undname.obj
 0002:00001630       ??_C@_0CA@GCEOPDGL@?$GAeh?5vector?5destructor?5iterator?8@ 0046a630     libvcruntime:undname.obj
 0002:00001658       ??_C@_0CH@OOJPLCPH@?$GAeh?5vector?5vbase?5constructor?5it@ 0046a658     libvcruntime:undname.obj
 0002:00001688       ??_C@_0BL@LLKPOHJI@?$GAcopy?5constructor?5closure?8@ 0046a688     libvcruntime:undname.obj
 0002:000016a8       ??_C@_0BA@KBCDOMBN@?$GAudt?5returning?8@ 0046a6a8     libvcruntime:undname.obj
 0002:000016bc       ??_C@_03KLGMFNMG@?$GAEH@   0046a6bc     libvcruntime:undname.obj
 0002:000016c0       ??_C@_05KHLCHHI@?$GARTTI@  0046a6c0     libvcruntime:undname.obj
 0002:000016c8       ??_C@_0BA@KKLDJDLB@?$GAlocal?5vftable?8@ 0046a6c8     libvcruntime:undname.obj
 0002:000016dc       ??_C@_0CE@IIHCMGGL@?$GAlocal?5vftable?5constructor?5clos@ 0046a6dc     libvcruntime:undname.obj
 0002:00001708       ??_C@_06FHBGPFGH@?5new?$FL?$FN@ 0046a708     libvcruntime:undname.obj
 0002:00001710       ??_C@_09LBNFPBCA@?5delete?$FL?$FN@ 0046a710     libvcruntime:undname.obj
 0002:0000171c       ??_C@_0P@HJKNJFNN@?$GAomni?5callsig?8@ 0046a71c     libvcruntime:undname.obj
 0002:00001730       ??_C@_0BL@CNOONJFP@?$GAplacement?5delete?5closure?8@ 0046a730     libvcruntime:undname.obj
 0002:00001750       ??_C@_0BN@CKNJLHMB@?$GAplacement?5delete?$FL?$FN?5closure?8@ 0046a750     libvcruntime:undname.obj
 0002:00001774       ??_C@_0CG@CFDHKGGD@?$GAmanaged?5vector?5constructor?5ite@ 0046a774     libvcruntime:undname.obj
 0002:000017a4       ??_C@_0CF@IMGKMJNO@?$GAmanaged?5vector?5destructor?5iter@ 0046a7a4     libvcruntime:undname.obj
 0002:000017d0       ??_C@_0CG@HLDDJMAG@?$GAeh?5vector?5copy?5constructor?5ite@ 0046a7d0     libvcruntime:undname.obj
 0002:00001800       ??_C@_0CM@FCBBDIGB@?$GAeh?5vector?5vbase?5copy?5construct@ 0046a800     libvcruntime:undname.obj
 0002:00001834       ??_C@_0BL@CLIPGLGB@?$GAdynamic?5initializer?5for?5?8@ 0046a834     libvcruntime:undname.obj
 0002:00001854       ??_C@_0CB@PDBIFEP@?$GAdynamic?5atexit?5destructor?5for?5@ 0046a854     libvcruntime:undname.obj
 0002:0000187c       ??_C@_0CD@CGAJBKEJ@?$GAvector?5copy?5constructor?5iterat@ 0046a87c     libvcruntime:undname.obj
 0002:000018a8       ??_C@_0CJ@GJELGAMM@?$GAvector?5vbase?5copy?5constructor?5@ 0046a8a8     libvcruntime:undname.obj
 0002:000018dc       ??_C@_0CL@FGIJHLCE@?$GAmanaged?5vector?5copy?5constructo@ 0046a8dc     libvcruntime:undname.obj
 0002:00001910       ??_C@_0BM@PMGGMLDN@?$GAlocal?5static?5thread?5guard?8@ 0046a910     libvcruntime:undname.obj
 0002:00001934       ??_C@_0N@BDNMDMOL@operator?5?$CC?$CC?5@ 0046a934     libvcruntime:undname.obj
 0002:00001944       ??_C@_0BC@GGEBGALA@operator?5co_await@ 0046a944     libvcruntime:undname.obj
 0002:0000195c       ??_C@_0M@GAAIMMOH@operator?$DM?$DN?$DO@ 0046a95c     libvcruntime:undname.obj
 0002:0000196c       ??_C@_0BC@DAFEJGAK@?5Type?5Descriptor?8@ 0046a96c     libvcruntime:undname.obj
 0002:00001984       ??_C@_0BM@LDKODKLH@?5Base?5Class?5Descriptor?5at?5?$CI@ 0046a984     libvcruntime:undname.obj
 0002:000019a8       ??_C@_0BD@LGICGFMM@?5Base?5Class?5Array?8@ 0046a9a8     libvcruntime:undname.obj
 0002:000019c0       ??_C@_0BN@MECKDCOJ@?5Class?5Hierarchy?5Descriptor?8@ 0046a9c0     libvcruntime:undname.obj
 0002:000019e4       ??_C@_0BK@CFCOFLF@?5Complete?5Object?5Locator?8@ 0046a9e4     libvcruntime:undname.obj
 0002:00001a04       ??_C@_0BG@JNJLAMPM@?$GAanonymous?5namespace?8@ 0046aa04     libvcruntime:undname.obj
 0002:00001a20       ??_C@_04HEJADOOB@CV?3?5@   0046aa20     libvcruntime:undname.obj
 0002:00001a28       ??_C@_02MOLJINC@?3?3@      0046aa28     libvcruntime:undname.obj
 0002:00001a2c       ??_C@_0BE@JAEOCHPE@template?9parameter?9@ 0046aa2c     libvcruntime:undname.obj
 0002:00001a44       ??_C@_0BF@LNLGBBNL@?$GAtemplate?9parameter?9@ 0046aa44     libvcruntime:undname.obj
 0002:00001a60       ??_C@_0O@KHGCOMHP@generic?9type?9@ 0046aa60     libvcruntime:undname.obj
 0002:00001a70       ??_C@_0P@ODDENDLM@?$GAgeneric?9type?9@ 0046aa70     libvcruntime:undname.obj
 0002:00001a84       ??_C@_02OHHJMEON@?8?8@     0046aa84     libvcruntime:undname.obj
 0002:00001a88       ??_C@_0BN@IBLMMFAP@?$GAnon?9type?9template?9parameter@ 0046aa88     libvcruntime:undname.obj
 0002:00001aac       ??_C@_03DLDNIBIK@?$CFlf@   0046aaac     libvcruntime:undname.obj
 0002:00001ab0       ??_C@_04OFALKAJ@?$DP?$DP_C@ 0046aab0     libvcruntime:undname.obj
 0002:00001ab8       ??_C@_03KHICJKCI@?4?4?4@   0046aab8     libvcruntime:undname.obj
 0002:00001abc       ??_C@_04HIBGFPH@NULL@      0046aabc     libvcruntime:undname.obj
 0002:00001ac4       ??_C@_02DPKJAMEF@?$CFd@    0046aac4     libvcruntime:undname.obj
 0002:00001ac8       ??_C@_0BK@IHCCFNEL@?$GAtemplate?9type?9parameter?9@ 0046aac8     libvcruntime:undname.obj
 0002:00001ae8       ??_C@_0BK@OFCNNNKO@?$GAgeneric?9class?9parameter?9@ 0046aae8     libvcruntime:undname.obj
 0002:00001b08       ??_C@_0BL@NGJBLFIL@?$GAgeneric?9method?9parameter?9@ 0046ab08     libvcruntime:undname.obj
 0002:00001b28       ??_C@_07OHNGEDJK@nullptr@  0046ab28     libvcruntime:undname.obj
 0002:00001b34       ??_C@_06COJIGPIB@lambda@   0046ab34     libvcruntime:undname.obj
 0002:00001b3c       ??_C@_04GKJNKENE@void@     0046ab3c     libvcruntime:undname.obj
 0002:00001b44       ??_C@_0BE@EODMJLIF@?$GAtemplate?9parameter@ 0046ab44     libvcruntime:undname.obj
 0002:00001b5c       ??_C@_03OPGICMGF@?$HN?8?5@ 0046ab5c     libvcruntime:undname.obj
 0002:00001b60       ??_C@_02IGFCGPIL@?$HN?8@   0046ab60     libvcruntime:undname.obj
 0002:00001b64       ??_C@_0N@CBHHHENL@?$GAvtordispex?$HL@ 0046ab64     libvcruntime:undname.obj
 0002:00001b74       ??_C@_0L@GHPFDFH@?$GAvtordisp?$HL@ 0046ab74     libvcruntime:undname.obj
 0002:00001b84       ??_C@_0L@HNGCOGAE@?$GAadjustor?$HL@ 0046ab84     libvcruntime:undname.obj
 0002:00001b94       ??_C@_0CB@KJDOOODE@?$GAlocal?5static?5destructor?5helper@ 0046ab94     libvcruntime:undname.obj
 0002:00001bbc       ??_C@_0DB@ILEFOCIJ@?$GAtemplate?5static?5data?5member?5co@ 0046abbc     libvcruntime:undname.obj
 0002:00001bf8       ??_C@_0DA@HGFJFBBE@?$GAtemplate?5static?5data?5member?5de@ 0046abf8     libvcruntime:undname.obj
 0002:00001c34       ??_C@_07PGOEDBHP@static?5@ 0046ac34     libvcruntime:undname.obj
 0002:00001c40       ??_C@_08NIEOINHE@virtual?5@ 0046ac40     libvcruntime:undname.obj
 0002:00001c4c       ??_C@_09LAPHOOG@private?3?5@ 0046ac4c     libvcruntime:undname.obj
 0002:00001c58       ??_C@_0M@GAIFPFIP@protected?3?5@ 0046ac58     libvcruntime:undname.obj
 0002:00001c68       ??_C@_08GPDDCMKI@public?3?5@ 0046ac68     libvcruntime:undname.obj
 0002:00001c74       ??_C@_08KJLFOPNE@?$FLthunk?$FN?3@ 0046ac74     libvcruntime:undname.obj
 0002:00001c80       ??_C@_0M@DHNBOJMP@extern?5?$CCC?$CC?5@ 0046ac80     libvcruntime:undname.obj
 0002:00001c90       ??_C@_02KCKGHPCA@?$CJ?5@   0046ac90     libvcruntime:undname.obj
 0002:00001c94       ??_C@_05CIHEBHNO@char?5@   0046ac94     libvcruntime:undname.obj
 0002:00001c9c       ??_C@_06EHJMALKF@short?5@  0046ac9c     libvcruntime:undname.obj
 0002:00001ca4       ??_C@_04LAHKHJMA@int?5@    0046aca4     libvcruntime:undname.obj
 0002:00001cac       ??_C@_05CJIMAING@long?5@   0046acac     libvcruntime:undname.obj
 0002:00001cb4       ??_C@_09EBBEKKIH@unsigned?5@ 0046acb4     libvcruntime:undname.obj
 0002:00001cc0       ??_C@_05BEFAKPML@void?5@   0046acc0     libvcruntime:undname.obj
 0002:00001cc8       ??_C@_09GAIEOBLP@volatile?5@ 0046acc8     libvcruntime:undname.obj
 0002:00001cd4       ??_C@_08PABEKFH@volatile@  0046acd4     libvcruntime:undname.obj
 0002:00001ce0       ??_C@_0BA@LKIJLKPP@std?3?3nullptr_t?5@ 0046ace0     libvcruntime:undname.obj
 0002:00001cf4       ??_C@_0P@GCOCNKDM@std?3?3nullptr_t@ 0046acf4     libvcruntime:undname.obj
 0002:00001d08       ??_C@_0L@EGPHHEKN@?$DMellipsis?$DO@ 0046ad08     libvcruntime:undname.obj
 0002:00001d18       ??_C@_04EENFHACM@?0?4?4?4@ 0046ad18     libvcruntime:undname.obj
 0002:00001d20       ??_C@_0M@ELJOJFFH@?0?$DMellipsis?$DO@ 0046ad20     libvcruntime:undname.obj
 0002:00001d30       ??_C@_09DNHFEOJI@?5noexcept@ 0046ad30     libvcruntime:undname.obj
 0002:00001d3c       ??_C@_03PBJBJNON@cpu@      0046ad3c     libvcruntime:undname.obj
 0002:00001d40       ??_C@_03DCBBJBAA@amp@      0046ad40     libvcruntime:undname.obj
 0002:00001d44       ??_C@_02KEGNLNML@?0?5@     0046ad44     libvcruntime:undname.obj
 0002:00001d48       ??_C@_04ENMBGAPA@char@     0046ad48     libvcruntime:undname.obj
 0002:00001d50       ??_C@_05BFKKPKCG@short@    0046ad50     libvcruntime:undname.obj
 0002:00001d58       ??_C@_03JBIPMCLC@int@      0046ad58     libvcruntime:undname.obj
 0002:00001d5c       ??_C@_04GOKPGOLB@long@     0046ad5c     libvcruntime:undname.obj
 0002:00001d64       ??_C@_05KNFBNCOH@float@    0046ad64     libvcruntime:undname.obj
 0002:00001d6c       ??_C@_06BNJCAIGJ@double@   0046ad6c     libvcruntime:undname.obj
 0002:00001d74       ??_C@_04DDKJGDCM@bool@     0046ad74     libvcruntime:undname.obj
 0002:00001d7c       ??_C@_06EBGKOKIG@__int8@   0046ad7c     libvcruntime:undname.obj
 0002:00001d84       ??_C@_07ICFHOGAF@__int16@  0046ad84     libvcruntime:undname.obj
 0002:00001d90       ??_C@_07OFLPPHGP@__int32@  0046ad90     libvcruntime:undname.obj
 0002:00001d9c       ??_C@_07LFCOJCAC@__int64@  0046ad9c     libvcruntime:undname.obj
 0002:00001da8       ??_C@_08GAHOLHEO@__int128@ 0046ada8     libvcruntime:undname.obj
 0002:00001db4       ??_C@_09EEKGDCPH@?$DMunknown?$DO@ 0046adb4     libvcruntime:undname.obj
 0002:00001dc0       ??_C@_07CFHGOPCN@char8_t@  0046adc0     libvcruntime:undname.obj
 0002:00001dcc       ??_C@_08HBIPOFJB@char16_t@ 0046adcc     libvcruntime:undname.obj
 0002:00001dd8       ??_C@_08IECNCBKG@char32_t@ 0046add8     libvcruntime:undname.obj
 0002:00001de4       ??_C@_07CLGGIAMF@wchar_t@  0046ade4     libvcruntime:undname.obj
 0002:00001df0       ??_C@_04HAPDLBFF@auto@     0046adf0     libvcruntime:undname.obj
 0002:00001df8       ??_C@_0P@LHCGKIGK@decltype?$CIauto?$CJ@ 0046adf8     libvcruntime:undname.obj
 0002:00001e0c       ??_C@_05PCNBGHCF@this?5@   0046ae0c     libvcruntime:undname.obj
 0002:00001e14       ??_C@_06GCICPBLB@__w64?5@  0046ae14     libvcruntime:undname.obj
 0002:00001e1c       ??_C@_07NFANNNEC@UNKNOWN@  0046ae1c     libvcruntime:undname.obj
 0002:00001e28       ??_C@_07EDHNAJHC@signed?5@ 0046ae28     libvcruntime:undname.obj
 0002:00001e34       ??_C@_05BNCCCJPP@const@    0046ae34     libvcruntime:undname.obj
 0002:00001e3c       ??_C@_09EFNPDFFP@?5volatile@ 0046ae3c     libvcruntime:undname.obj
 0002:00001e48       ??_C@_0P@GCIFDJCJ@?$GAunknown?5ecsu?8@ 0046ae48     libvcruntime:undname.obj
 0002:00001e5c       ??_C@_06MOJHIBMG@union?5@  0046ae5c     libvcruntime:undname.obj
 0002:00001e64       ??_C@_07DIBCDNGL@struct?5@ 0046ae64     libvcruntime:undname.obj
 0002:00001e70       ??_C@_06LJBABKPM@class?5@  0046ae70     libvcruntime:undname.obj
 0002:00001e78       ??_C@_08KOFANOFK@coclass?5@ 0046ae78     libvcruntime:undname.obj
 0002:00001e84       ??_C@_0N@DLIEFKNA@cointerface?5@ 0046ae84     libvcruntime:undname.obj
 0002:00001e94       ??_C@_05LJGMCFOG@enum?5@   0046ae94     libvcruntime:undname.obj
 0002:00001e9c       ??_C@_06LIJLOJAG@const?5@  0046ae9c     libvcruntime:undname.obj
 0002:00001ea4       ??_C@_02KJPKDIBN@?$CG?5@   0046aea4     libvcruntime:undname.obj
 0002:00001ea8       ??_C@_03PCKGMOPB@?$CG?$CG?5@ 0046aea8     libvcruntime:undname.obj
 0002:00001eac       ??_C@_0M@EALIELKG@cli?3?3array?$DM@ 0046aeac     libvcruntime:undname.obj
 0002:00001ebc       ??_C@_0O@GKABPPIF@cli?3?3pin_ptr?$DM@ 0046aebc     libvcruntime:undname.obj
 0002:00001ecc       ??_C@_02GOGNNPBN@?$CJ?$FL@ 0046aecc     libvcruntime:undname.obj
 0002:00001ed0       ??_C@_06EEGAIFAK@?$HLflat?$HN@ 0046aed0     libvcruntime:undname.obj
 0002:00001ed8       ??_C@_05JIBOFOHK@?$HLfor?5@ 0046aed8     libvcruntime:undname.obj
 0002:00001ee0       ??_C@_02MDINNEEG@s?5@      0046aee0     libvcruntime:undname.obj
 0002:00001ee8       ??_7DNameNode@@6B@         0046aee8     libvcruntime:undname.obj
 0002:00001f00       ??_7charNode@@6B@          0046af00     libvcruntime:undname.obj
 0002:00001f18       ??_7pcharNode@@6B@         0046af18     libvcruntime:undname.obj
 0002:00001f30       ??_7pDNameNode@@6B@        0046af30     libvcruntime:undname.obj
 0002:00001f48       ??_7DNameStatusNode@@6B@   0046af48     libvcruntime:undname.obj
 0002:00001f60       ??_7pairNode@@6B@          0046af60     libvcruntime:undname.obj
 0002:000020ac       ??_C@_04OKOHEJBO@?5?$DP?$DP?5@ 0046b0ac     libvcruntime:undname.obj
 0002:000020b4       ?nodes@?1??make@DNameStatusNode@@SAPBV2@W4DNameStatus@@@Z@4QBV2@B 0046b0b4     libvcruntime:undname.obj
 0002:00002100       ??_C@_1DM@KHCHBNEB@?$AAa?$AAp?$AAi?$AA?9?$AAm?$AAs?$AA?9?$AAw?$AAi?$AAn?$AA?9?$AAc?$AAo?$AAr?$AAe@ 0046b100     libvcruntime:winapi_downlevel.obj
 0002:00002148       ??_C@_1DK@LPPGFMPP@?$AAa?$AAp?$AAi?$AA?9?$AAm?$AAs?$AA?9?$AAw?$AAi?$AAn?$AA?9?$AAc?$AAo?$AAr?$AAe@ 0046b148     libvcruntime:winapi_downlevel.obj
 0002:00002190       ??_C@_1BC@GDMECMAK@?$AAk?$AAe?$AAr?$AAn?$AAe?$AAl?$AA3?$AA2@ 0046b190     libvcruntime:winapi_downlevel.obj
 0002:000021a8       ??_C@_1BA@PFFKHIOG@?$AAa?$AAp?$AAi?$AA?9?$AAm?$AAs?$AA?9@ 0046b1a8     libvcruntime:winapi_downlevel.obj
 0002:000021c8       ??_C@_08KNHFBNJ@FlsAlloc@  0046b1c8     libvcruntime:winapi_downlevel.obj
 0002:000021e0       ??_C@_07PEJMOBNF@FlsFree@  0046b1e0     libvcruntime:winapi_downlevel.obj
 0002:000021f8       ??_C@_0M@GDNOONDI@FlsGetValue@ 0046b1f8     libvcruntime:winapi_downlevel.obj
 0002:00002214       ??_C@_0M@JCPCPOEF@FlsSetValue@ 0046b214     libvcruntime:winapi_downlevel.obj
 0002:00002230       ??_C@_0BM@HCFOFFN@InitializeCriticalSectionEx@ 0046b230     libvcruntime:winapi_downlevel.obj
 0002:00002258       ??_7exception@std@@6B@     0046b258     libvcruntime:frame.obj
 0002:00002264       ??_C@_0BC@EOODALEL@Unknown?5exception@ 0046b264     libvcruntime:frame.obj
 0002:00002280       ??_7bad_exception@std@@6B@ 0046b280     libvcruntime:frame.obj
 0002:0000228c       ??_C@_0O@DPKOEFFH@bad?5exception@ 0046b28c     libvcruntime:frame.obj
 0002:000022a0       ___acrt_exception_action_table 0046b2a0     libucrt:exception_filter.obj
 0002:0000234c       ___acrt_signal_action_table_count 0046b34c     libucrt:exception_filter.obj
 0002:00002350       ___acrt_signal_action_table_size 0046b350     libucrt:exception_filter.obj
 0002:00002354       ___acrt_signal_action_first_fpe_index 0046b354     libucrt:exception_filter.obj
 0002:00002358       ___acrt_signal_action_fpe_count 0046b358     libucrt:exception_filter.obj
 0002:0000235c       ??_C@_1DE@JNGNBFGO@?$AAR?$AAu?$AAn?$AAt?$AAi?$AAm?$AAe?$AA?5?$AAE?$AAr?$AAr?$AAo?$AAr?$AA?$CB?$AA?6@ 0046b35c     libucrt:report_runtime_error.obj
 0002:0000239c       ??_C@_1CO@EAEJAADC@?$AA?$DM?$AAp?$AAr?$AAo?$AAg?$AAr?$AAa?$AAm?$AA?5?$AAn?$AAa?$AAm?$AAe?$AA?5?$AAu@ 0046b39c     libucrt:report_runtime_error.obj
 0002:000023d4       ??_C@_17LGKOMLJ@?$AA?4?$AA?4?$AA?4@ 0046b3d4     libucrt:report_runtime_error.obj
 0002:000023e0       ??_C@_15IABLJNFO@?$AA?6?$AA?6@ 0046b3e0     libucrt:report_runtime_error.obj
 0002:000023e8       ??_C@_1EK@MBDPDCGA@?$AAM?$AAi?$AAc?$AAr?$AAo?$AAs?$AAo?$AAf?$AAt?$AA?5?$AAV?$AAi?$AAs?$AAu?$AAa@ 0046b3e8     libucrt:report_runtime_error.obj
 0002:00002440       ??_C@_1BI@BGOHAHKC@?$AAm?$AAs?$AAc?$AAo?$AAr?$AAe?$AAe?$AA?4?$AAd?$AAl?$AAl@ 0046b440     libucrt:exit.obj
 0002:0000245c       ??_C@_0P@MIGLKIOC@CorExitProcess@ 0046b45c     libucrt:exit.obj
 0002:00002508       ___lc_category             0046b508     libucrt:wsetlocale.obj
 0002:00002560       ??_C@_1O@GIFLHMA@?$AAL?$AAC?$AA_?$AAA?$AAL?$AAL@ 0046b560     libucrt:wsetlocale.obj
 0002:00002570       ??_C@_1BG@PPOMIBNJ@?$AAL?$AAC?$AA_?$AAC?$AAO?$AAL?$AAL?$AAA?$AAT?$AAE@ 0046b570     libucrt:wsetlocale.obj
 0002:0000258c       ??_C@_1BC@FFJGAPJM@?$AAL?$AAC?$AA_?$AAC?$AAT?$AAY?$AAP?$AAE@ 0046b58c     libucrt:wsetlocale.obj
 0002:000025a4       ??_C@_1BI@PCKFNJFB@?$AAL?$AAC?$AA_?$AAM?$AAO?$AAN?$AAE?$AAT?$AAA?$AAR?$AAY@ 0046b5a4     libucrt:wsetlocale.obj
 0002:000025c0       ??_C@_1BG@ENIEDKID@?$AAL?$AAC?$AA_?$AAN?$AAU?$AAM?$AAE?$AAR?$AAI?$AAC@ 0046b5c0     libucrt:wsetlocale.obj
 0002:000025dc       ??_C@_1BA@HAAOMIIG@?$AAL?$AAC?$AA_?$AAT?$AAI?$AAM?$AAE@ 0046b5dc     libucrt:wsetlocale.obj
 0002:000025f0       ??_C@_15NBPDDFIP@?$AA?$DN?$AA?$DL@ 0046b5f0     libucrt:wsetlocale.obj
 0002:000025f8       ??_C@_13PJJBFPED@?$AA?$DL@ 0046b5f8     libucrt:wsetlocale.obj
 0002:000025fc       ??_C@_13NMPKAAJP@?$AA?$DN@ 0046b5fc     libucrt:wsetlocale.obj
 0002:00002600       ??_C@_13IMODFHAA@?$AA?9@   0046b600     libucrt:wsetlocale.obj
 0002:00002604       ??_C@_17EFJLDFDO@?$AA?9?$AA_?$AA?4@ 0046b604     libucrt:wsetlocale.obj
 0002:00002610       ??_C@_13FHBKNHDA@?$AAC@    0046b610     libucrt:wsetlocale.obj
 0002:00002614       ??_C@_17MBJJLFDM@?$AA_?$AA?4?$AA?0@ 0046b614     libucrt:wsetlocale.obj
 0002:00002620       ??_C@_13ENNFDPBH@?$AA_@    0046b620     libucrt:wsetlocale.obj
 0002:00002624       ??_C@_13JOFGPIOO@?$AA?4@   0046b624     libucrt:wsetlocale.obj
 0002:000026c4       __Fenv1                    0046b6c4     libucrt:output.obj
 0002:000026d0       ?standard_lookup_table_spectre@__crt_stdio_output@@3V?$spectre_mitigated_lookup_table@Ustate_transition_pair@__crt_stdio_output@@$0IA@@1@B 0046b6d0     libucrt:output.obj
 0002:00002808       ?format_validation_lookup_table_spectre@__crt_stdio_output@@3V?$spectre_mitigated_lookup_table@Ustate_transition_pair@__crt_stdio_output@@$0IA@@1@B 0046b808     libucrt:output.obj
 0002:0000293c       ??_C@_1O@CEDCILHN@?$AA?$CI?$AAn?$AAu?$AAl?$AAl?$AA?$CJ@ 0046b93c     libucrt:output.obj
 0002:0000294c       ??_C@_06OJHGLDPL@?$CInull?$CJ@ 0046b94c     libucrt:output.obj
 0002:00002958       ___lc_time_c               0046b958     libucrt:nlsdata.obj
 0002:00002b04       ??_C@_03KOEHGMDN@Sun@      0046bb04     libucrt:nlsdata.obj
 0002:00002b08       ??_C@_03PDAGKDH@Mon@       0046bb08     libucrt:nlsdata.obj
 0002:00002b0c       ??_C@_03NAGEINEP@Tue@      0046bb0c     libucrt:nlsdata.obj
 0002:00002b10       ??_C@_03MHOMLAJA@Wed@      0046bb10     libucrt:nlsdata.obj
 0002:00002b14       ??_C@_03IOFIKPDN@Thu@      0046bb14     libucrt:nlsdata.obj
 0002:00002b18       ??_C@_03IDIOELNC@Fri@      0046bb18     libucrt:nlsdata.obj
 0002:00002b1c       ??_C@_03FEFJNEK@Sat@       0046bb1c     libucrt:nlsdata.obj
 0002:00002b20       ??_C@_06OOPIFAJ@Sunday@    0046bb20     libucrt:nlsdata.obj
 0002:00002b28       ??_C@_06JLEDEDGH@Monday@   0046bb28     libucrt:nlsdata.obj
 0002:00002b30       ??_C@_07BAAGCFCM@Tuesday@  0046bb30     libucrt:nlsdata.obj
 0002:00002b3c       ??_C@_09DLIGFAKA@Wednesday@ 0046bb3c     libucrt:nlsdata.obj
 0002:00002b48       ??_C@_08HACCIKIA@Thursday@ 0046bb48     libucrt:nlsdata.obj
 0002:00002b54       ??_C@_06JECMNKMI@Friday@   0046bb54     libucrt:nlsdata.obj
 0002:00002b5c       ??_C@_08INBOOONO@Saturday@ 0046bb5c     libucrt:nlsdata.obj
 0002:00002b68       ??_C@_03JIHJHPIE@Jan@      0046bb68     libucrt:nlsdata.obj
 0002:00002b6c       ??_C@_03HJBDCHOM@Feb@      0046bb6c     libucrt:nlsdata.obj
 0002:00002b70       ??_C@_03ODNJBKGA@Mar@      0046bb70     libucrt:nlsdata.obj
 0002:00002b74       ??_C@_03LEOLGMJP@Apr@      0046bb74     libucrt:nlsdata.obj
 0002:00002b78       ??_C@_03CNMDKL@May@        0046bb78     libucrt:nlsdata.obj
 0002:00002b7c       ??_C@_03IDFGHECI@Jun@      0046bb7c     libucrt:nlsdata.obj
 0002:00002b80       ??_C@_03LBGABGKK@Jul@      0046bb80     libucrt:nlsdata.obj
 0002:00002b84       ??_C@_03IFJFEIGA@Aug@      0046bb84     libucrt:nlsdata.obj
 0002:00002b88       ??_C@_03GGCAPAJC@Sep@      0046bb88     libucrt:nlsdata.obj
 0002:00002b8c       ??_C@_03BMAOKBAD@Oct@      0046bb8c     libucrt:nlsdata.obj
 0002:00002b90       ??_C@_03JPJOFNIA@Nov@      0046bb90     libucrt:nlsdata.obj
 0002:00002b94       ??_C@_03MKABNOCG@Dec@      0046bb94     libucrt:nlsdata.obj
 0002:00002b98       ??_C@_07CGJPFGJA@January@  0046bb98     libucrt:nlsdata.obj
 0002:00002ba4       ??_C@_08GNJGEPFN@February@ 0046bba4     libucrt:nlsdata.obj
 0002:00002bb0       ??_C@_05HPCKOFNC@March@    0046bbb0     libucrt:nlsdata.obj
 0002:00002bb8       ??_C@_05DMJDNLEJ@April@    0046bbb8     libucrt:nlsdata.obj
 0002:00002bc0       ??_C@_04CNLMGBGM@June@     0046bbc0     libucrt:nlsdata.obj
 0002:00002bc8       ??_C@_04MIEPOIFP@July@     0046bbc8     libucrt:nlsdata.obj
 0002:00002bd0       ??_C@_06LBBHFDDG@August@   0046bbd0     libucrt:nlsdata.obj
 0002:00002bd8       ??_C@_09BHHEALKD@September@ 0046bbd8     libucrt:nlsdata.obj
 0002:00002be4       ??_C@_07JJNFCEND@October@  0046bbe4     libucrt:nlsdata.obj
 0002:00002bf0       ??_C@_08HCHEGEOA@November@ 0046bbf0     libucrt:nlsdata.obj
 0002:00002bfc       ??_C@_08EDHMEBNP@December@ 0046bbfc     libucrt:nlsdata.obj
 0002:00002c08       ??_C@_02DEDBPAFC@AM@       0046bc08     libucrt:nlsdata.obj
 0002:00002c0c       ??_C@_02CJNFDJBF@PM@       0046bc0c     libucrt:nlsdata.obj
 0002:00002c10       ??_C@_08BPBNCDIB@MM?1dd?1yy@ 0046bc10     libucrt:nlsdata.obj
 0002:00002c1c       ??_C@_0BE@CKGJFCPC@dddd?0?5MMMM?5dd?0?5yyyy@ 0046bc1c     libucrt:nlsdata.obj
 0002:00002c34       ??_C@_08JCCMCCIL@HH?3mm?3ss@ 0046bc34     libucrt:nlsdata.obj
 0002:00002c40       ??_C@_17MBGCMIPB@?$AAS?$AAu?$AAn@ 0046bc40     libucrt:nlsdata.obj
 0002:00002c4c       ??_C@_17KBOMKBF@?$AAM?$AAo?$AAn@ 0046bc4c     libucrt:nlsdata.obj
 0002:00002c58       ??_C@_17BMKGEGOJ@?$AAT?$AAu?$AAe@ 0046bc58     libucrt:nlsdata.obj
 0002:00002c64       ??_C@_17CJEDCEPE@?$AAW?$AAe?$AAd@ 0046bc64     libucrt:nlsdata.obj
 0002:00002c70       ??_C@_17PDPHAADD@?$AAT?$AAh?$AAu@ 0046bc70     libucrt:nlsdata.obj
 0002:00002c7c       ??_C@_17HFOLPPLP@?$AAF?$AAr?$AAi@ 0046bc7c     libucrt:nlsdata.obj
 0002:00002c88       ??_C@_17GGIBDPIH@?$AAS?$AAa?$AAt@ 0046bc88     libucrt:nlsdata.obj
 0002:00002c94       ??_C@_1O@IHNHDHPB@?$AAS?$AAu?$AAn?$AAd?$AAa?$AAy@ 0046bc94     libucrt:nlsdata.obj
 0002:00002ca4       ??_C@_1O@MMNBFLIA@?$AAM?$AAo?$AAn?$AAd?$AAa?$AAy@ 0046bca4     libucrt:nlsdata.obj
 0002:00002cb4       ??_C@_1BA@ENFBFFEK@?$AAT?$AAu?$AAe?$AAs?$AAd?$AAa?$AAy@ 0046bcb4     libucrt:nlsdata.obj
 0002:00002cc8       ??_C@_1BE@EBOGMDOH@?$AAW?$AAe?$AAd?$AAn?$AAe?$AAs?$AAd?$AAa?$AAy@ 0046bcc8     libucrt:nlsdata.obj
 0002:00002ce0       ??_C@_1BC@HHMNLIHE@?$AAT?$AAh?$AAu?$AAr?$AAs?$AAd?$AAa?$AAy@ 0046bce0     libucrt:nlsdata.obj
 0002:00002cf8       ??_C@_1O@PDICJHAG@?$AAF?$AAr?$AAi?$AAd?$AAa?$AAy@ 0046bcf8     libucrt:nlsdata.obj
 0002:00002d08       ??_C@_1BC@ENMNNPAJ@?$AAS?$AAa?$AAt?$AAu?$AAr?$AAd?$AAa?$AAy@ 0046bd08     libucrt:nlsdata.obj
 0002:00002d20       ??_C@_17DKNBKCHM@?$AAJ?$AAa?$AAn@ 0046bd20     libucrt:nlsdata.obj
 0002:00002d2c       ??_C@_17LMDJEKJN@?$AAF?$AAe?$AAb@ 0046bd2c     libucrt:nlsdata.obj
 0002:00002d38       ??_C@_17CKNLEDEC@?$AAM?$AAa?$AAr@ 0046bd38     libucrt:nlsdata.obj
 0002:00002d44       ??_C@_17LFPOIHDD@?$AAA?$AAp?$AAr@ 0046bd44     libucrt:nlsdata.obj
 0002:00002d50       ??_C@_17PNNKMEED@?$AAM?$AAa?$AAy@ 0046bd50     libucrt:nlsdata.obj
 0002:00002d5c       ??_C@_17KCJGOCPB@?$AAJ?$AAu?$AAn@ 0046bd5c     libucrt:nlsdata.obj
 0002:00002d68       ??_C@_17IJPCKHK@?$AAJ?$AAu?$AAl@ 0046bd68     libucrt:nlsdata.obj
 0002:00002d74       ??_C@_17ICPELBCN@?$AAA?$AAu?$AAg@ 0046bd74     libucrt:nlsdata.obj
 0002:00002d80       ??_C@_17HCHCOKMG@?$AAS?$AAe?$AAp@ 0046bd80     libucrt:nlsdata.obj
 0002:00002d8c       ??_C@_17FNLKOI@?$AAO?$AAc?$AAt@ 0046bd8c     libucrt:nlsdata.obj
 0002:00002d98       ??_C@_17BBDMLCIG@?$AAN?$AAo?$AAv@ 0046bd98     libucrt:nlsdata.obj
 0002:00002da4       ??_C@_17EGKACKIF@?$AAD?$AAe?$AAc@ 0046bda4     libucrt:nlsdata.obj
 0002:00002db0       ??_C@_1BA@EFMEIEBA@?$AAJ?$AAa?$AAn?$AAu?$AAa?$AAr?$AAy@ 0046bdb0     libucrt:nlsdata.obj
 0002:00002dc4       ??_C@_1BC@JGDDFFAM@?$AAF?$AAe?$AAb?$AAr?$AAu?$AAa?$AAr?$AAy@ 0046bdc4     libucrt:nlsdata.obj
 0002:00002ddc       ??_C@_1M@IKEENEDF@?$AAM?$AAa?$AAr?$AAc?$AAh@ 0046bddc     libucrt:nlsdata.obj
 0002:00002dec       ??_C@_1M@GJNLMHFD@?$AAA?$AAp?$AAr?$AAi?$AAl@ 0046bdec     libucrt:nlsdata.obj
 0002:00002dfc       ??_C@_19EPFLPGAP@?$AAJ?$AAu?$AAn?$AAe@ 0046bdfc     libucrt:nlsdata.obj
 0002:00002e08       ??_C@_19BIFMLPCD@?$AAJ?$AAu?$AAl?$AAy@ 0046be08     libucrt:nlsdata.obj
 0002:00002e14       ??_C@_1O@PAHLKOAC@?$AAA?$AAu?$AAg?$AAu?$AAs?$AAt@ 0046be14     libucrt:nlsdata.obj
 0002:00002e24       ??_C@_1BE@DKAAMBJL@?$AAS?$AAe?$AAp?$AAt?$AAe?$AAm?$AAb?$AAe?$AAr@ 0046be24     libucrt:nlsdata.obj
 0002:00002e3c       ??_C@_1BA@EPANDLNG@?$AAO?$AAc?$AAt?$AAo?$AAb?$AAe?$AAr@ 0046be3c     libucrt:nlsdata.obj
 0002:00002e50       ??_C@_1BC@BGLIFPF@?$AAN?$AAo?$AAv?$AAe?$AAm?$AAb?$AAe?$AAr@ 0046be50     libucrt:nlsdata.obj
 0002:00002e68       ??_C@_1BC@FEMKIFH@?$AAD?$AAe?$AAc?$AAe?$AAm?$AAb?$AAe?$AAr@ 0046be68     libucrt:nlsdata.obj
 0002:00002e80       ??_C@_15ODEHAHHF@?$AAA?$AAM@ 0046be80     libucrt:nlsdata.obj
 0002:00002e88       ??_C@_15CLMNNGEL@?$AAP?$AAM@ 0046be88     libucrt:nlsdata.obj
 0002:00002e90       ??_C@_1BC@IEBCMHCM@?$AAM?$AAM?$AA?1?$AAd?$AAd?$AA?1?$AAy?$AAy@ 0046be90     libucrt:nlsdata.obj
 0002:00002ea8       ??_C@_1CI@KNAKOEBC@?$AAd?$AAd?$AAd?$AAd?$AA?0?$AA?5?$AAM?$AAM?$AAM?$AAM?$AA?5?$AAd?$AAd?$AA?0?$AA?5@ 0046bea8     libucrt:nlsdata.obj
 0002:00002ed8       ??_C@_1BC@GDGBMEMK@?$AAH?$AAH?$AA?3?$AAm?$AAm?$AA?3?$AAs?$AAs@ 0046bed8     libucrt:nlsdata.obj
 0002:00002ef0       ??_C@_1M@BMHNFIME@?$AAe?$AAn?$AA?9?$AAU?$AAS@ 0046bef0     libucrt:nlsdata.obj
 0002:000030c4       ??_C@_1M@HPNHIDJI@?$AAj?$AAa?$AA?9?$AAJ?$AAP@ 0046c0c4     libucrt:mbctype.obj
 0002:000030d4       ??_C@_1M@BIBDDEMK@?$AAz?$AAh?$AA?9?$AAC?$AAN@ 0046c0d4     libucrt:mbctype.obj
 0002:000030e4       ??_C@_1M@JLOOOEGK@?$AAk?$AAo?$AA?9?$AAK?$AAR@ 0046c0e4     libucrt:mbctype.obj
 0002:000030f4       ??_C@_1M@CLNBBOPM@?$AAz?$AAh?$AA?9?$AAT?$AAW@ 0046c0f4     libucrt:mbctype.obj
 0002:00003104       _RtlNtPathSeperatorString  0046c104     libucrt:peb_access.obj
 0002:00003110       ??_C@_13FPGAJAPJ@?$AA?2@   0046c110     libucrt:peb_access.obj
 0002:00003114       _RtlDosPathSeperatorsString 0046c114     libucrt:peb_access.obj
 0002:00003120       ??_C@_15MNCACJLI@?$AA?2?$AA?1@ 0046c120     libucrt:peb_access.obj
 0002:00003128       _RtlAlternateDosPathSeperatorString 0046c128     libucrt:peb_access.obj
 0002:00003134       ??_C@_13CGOKJPIL@?$AA?1@   0046c134     libucrt:peb_access.obj
 0002:00003138       ___newctype                0046c138     libucrt:ctype.obj
 0002:000034d8       ___newclmap                0046c4d8     libucrt:ctype.obj
 0002:000036a8       ___newcumap                0046c6a8     libucrt:ctype.obj
 0002:00003878       __wctype                   0046c878     libucrt:ctype.obj
 0002:00003ae8       ___acrt_rg_language        0046cae8     libucrt:get_qualified_locale.obj
 0002:00003e90       ___acrt_rg_language_count  0046ce90     libucrt:get_qualified_locale.obj
 0002:00003e98       ___acrt_rg_country         0046ce98     libucrt:get_qualified_locale.obj
 0002:00003fe4       ___acrt_rg_country_count   0046cfe4     libucrt:get_qualified_locale.obj
 0002:00003fe8       ??_C@_1BC@LLOKLNP@?$AAa?$AAm?$AAe?$AAr?$AAi?$AAc?$AAa?$AAn@ 0046cfe8     libucrt:get_qualified_locale.obj
 0002:00004000       ??_C@_1CC@HEIGCDGG@?$AAa?$AAm?$AAe?$AAr?$AAi?$AAc?$AAa?$AAn?$AA?5?$AAe?$AAn?$AAg?$AAl?$AAi?$AAs@ 0046d000     libucrt:get_qualified_locale.obj
 0002:00004028       ??_C@_1CC@IHCNOMIN@?$AAa?$AAm?$AAe?$AAr?$AAi?$AAc?$AAa?$AAn?$AA?9?$AAe?$AAn?$AAg?$AAl?$AAi?$AAs@ 0046d028     libucrt:get_qualified_locale.obj
 0002:00004050       ??_C@_1BG@GKAGPCGG@?$AAa?$AAu?$AAs?$AAt?$AAr?$AAa?$AAl?$AAi?$AAa?$AAn@ 0046d050     libucrt:get_qualified_locale.obj
 0002:0000406c       ??_C@_1BA@GMENCENF@?$AAb?$AAe?$AAl?$AAg?$AAi?$AAa?$AAn@ 0046d06c     libucrt:get_qualified_locale.obj
 0002:00004080       ??_C@_1BC@PJMIIAAN@?$AAc?$AAa?$AAn?$AAa?$AAd?$AAi?$AAa?$AAn@ 0046d080     libucrt:get_qualified_locale.obj
 0002:00004098       ??_C@_17NOIMNFBF@?$AAc?$AAh?$AAh@ 0046d098     libucrt:get_qualified_locale.obj
 0002:000040a4       ??_C@_17GGDALCHA@?$AAc?$AAh?$AAi@ 0046d0a4     libucrt:get_qualified_locale.obj
 0002:000040b0       ??_C@_1BA@NPNJKIBL@?$AAc?$AAh?$AAi?$AAn?$AAe?$AAs?$AAe@ 0046d0b0     libucrt:get_qualified_locale.obj
 0002:000040c4       ??_C@_1CC@DINBAMMJ@?$AAc?$AAh?$AAi?$AAn?$AAe?$AAs?$AAe?$AA?9?$AAh?$AAo?$AAn?$AAg?$AAk?$AAo?$AAn@ 0046d0c4     libucrt:get_qualified_locale.obj
 0002:000040ec       ??_C@_1CG@IOBJPACO@?$AAc?$AAh?$AAi?$AAn?$AAe?$AAs?$AAe?$AA?9?$AAs?$AAi?$AAm?$AAp?$AAl?$AAi?$AAf@ 0046d0ec     libucrt:get_qualified_locale.obj
 0002:0000411c       ??_C@_1CE@GAJNDCKG@?$AAc?$AAh?$AAi?$AAn?$AAe?$AAs?$AAe?$AA?9?$AAs?$AAi?$AAn?$AAg?$AAa?$AAp?$AAo@ 0046d11c     libucrt:get_qualified_locale.obj
 0002:00004148       ??_C@_1CI@PAJPIOOD@?$AAc?$AAh?$AAi?$AAn?$AAe?$AAs?$AAe?$AA?9?$AAt?$AAr?$AAa?$AAd?$AAi?$AAt?$AAi@ 0046d148     libucrt:get_qualified_locale.obj
 0002:00004178       ??_C@_1BM@NILJBMMD@?$AAd?$AAu?$AAt?$AAc?$AAh?$AA?9?$AAb?$AAe?$AAl?$AAg?$AAi?$AAa?$AAn@ 0046d178     libucrt:get_qualified_locale.obj
 0002:0000419c       ??_C@_1CC@OOJPJNEJ@?$AAe?$AAn?$AAg?$AAl?$AAi?$AAs?$AAh?$AA?9?$AAa?$AAm?$AAe?$AAr?$AAi?$AAc?$AAa@ 0046d19c     libucrt:get_qualified_locale.obj
 0002:000041c4       ??_C@_1BI@IOLFEEM@?$AAe?$AAn?$AAg?$AAl?$AAi?$AAs?$AAh?$AA?9?$AAa?$AAu?$AAs@ 0046d1c4     libucrt:get_qualified_locale.obj
 0002:000041e0       ??_C@_1BO@HFFNLENJ@?$AAe?$AAn?$AAg?$AAl?$AAi?$AAs?$AAh?$AA?9?$AAb?$AAe?$AAl?$AAi?$AAz?$AAe@ 0046d1e0     libucrt:get_qualified_locale.obj
 0002:00004204       ??_C@_1BI@HAPKJMPO@?$AAe?$AAn?$AAg?$AAl?$AAi?$AAs?$AAh?$AA?9?$AAc?$AAa?$AAn@ 0046d204     libucrt:get_qualified_locale.obj
 0002:00004220       ??_C@_1CE@HLNDMIOJ@?$AAe?$AAn?$AAg?$AAl?$AAi?$AAs?$AAh?$AA?9?$AAc?$AAa?$AAr?$AAi?$AAb?$AAb?$AAe@ 0046d220     libucrt:get_qualified_locale.obj
 0002:0000424c       ??_C@_1BI@LDHJHHAC@?$AAe?$AAn?$AAg?$AAl?$AAi?$AAs?$AAh?$AA?9?$AAi?$AAr?$AAe@ 0046d24c     libucrt:get_qualified_locale.obj
 0002:00004268       ??_C@_1CA@NJMMCFOC@?$AAe?$AAn?$AAg?$AAl?$AAi?$AAs?$AAh?$AA?9?$AAj?$AAa?$AAm?$AAa?$AAi?$AAc?$AAa@ 0046d268     libucrt:get_qualified_locale.obj
 0002:00004290       ??_C@_1BG@BHJEBBGG@?$AAe?$AAn?$AAg?$AAl?$AAi?$AAs?$AAh?$AA?9?$AAn?$AAz@ 0046d290     libucrt:get_qualified_locale.obj
 0002:000042ac       ??_C@_1CK@FGOEJJCO@?$AAe?$AAn?$AAg?$AAl?$AAi?$AAs?$AAh?$AA?9?$AAs?$AAo?$AAu?$AAt?$AAh?$AA?5?$AAa@ 0046d2ac     libucrt:get_qualified_locale.obj
 0002:000042e0       ??_C@_1DE@PDBJPCJ@?$AAe?$AAn?$AAg?$AAl?$AAi?$AAs?$AAh?$AA?9?$AAt?$AAr?$AAi?$AAn?$AAi?$AAd?$AAa@ 0046d2e0     libucrt:get_qualified_locale.obj
 0002:00004320       ??_C@_1BG@JGCANDME@?$AAe?$AAn?$AAg?$AAl?$AAi?$AAs?$AAh?$AA?9?$AAu?$AAk@ 0046d320     libucrt:get_qualified_locale.obj
 0002:0000433c       ??_C@_1BG@DINKMLE@?$AAe?$AAn?$AAg?$AAl?$AAi?$AAs?$AAh?$AA?9?$AAu?$AAs@ 0046d33c     libucrt:get_qualified_locale.obj
 0002:00004358       ??_C@_1BI@NMFDBHJE@?$AAe?$AAn?$AAg?$AAl?$AAi?$AAs?$AAh?$AA?9?$AAu?$AAs?$AAa@ 0046d358     libucrt:get_qualified_locale.obj
 0002:00004374       ??_C@_1BO@OIHKJKII@?$AAf?$AAr?$AAe?$AAn?$AAc?$AAh?$AA?9?$AAb?$AAe?$AAl?$AAg?$AAi?$AAa?$AAn@ 0046d374     libucrt:get_qualified_locale.obj
 0002:00004398       ??_C@_1CA@NKAELJKI@?$AAf?$AAr?$AAe?$AAn?$AAc?$AAh?$AA?9?$AAc?$AAa?$AAn?$AAa?$AAd?$AAi?$AAa?$AAn@ 0046d398     libucrt:get_qualified_locale.obj
 0002:000043c0       ??_C@_1CE@MGKCNLGN@?$AAf?$AAr?$AAe?$AAn?$AAc?$AAh?$AA?9?$AAl?$AAu?$AAx?$AAe?$AAm?$AAb?$AAo?$AAu@ 0046d3c0     libucrt:get_qualified_locale.obj
 0002:000043ec       ??_C@_1BK@CEGEAILM@?$AAf?$AAr?$AAe?$AAn?$AAc?$AAh?$AA?9?$AAs?$AAw?$AAi?$AAs?$AAs@ 0046d3ec     libucrt:get_qualified_locale.obj
 0002:0000440c       ??_C@_1CA@PAFKEOCC@?$AAg?$AAe?$AAr?$AAm?$AAa?$AAn?$AA?9?$AAa?$AAu?$AAs?$AAt?$AAr?$AAi?$AAa?$AAn@ 0046d40c     libucrt:get_qualified_locale.obj
 0002:00004434       ??_C@_1CI@HCFHGOFD@?$AAg?$AAe?$AAr?$AAm?$AAa?$AAn?$AA?9?$AAl?$AAi?$AAc?$AAh?$AAt?$AAe?$AAn?$AAs@ 0046d434     libucrt:get_qualified_locale.obj
 0002:00004464       ??_C@_1CE@FEDDNPDG@?$AAg?$AAe?$AAr?$AAm?$AAa?$AAn?$AA?9?$AAl?$AAu?$AAx?$AAe?$AAm?$AAb?$AAo?$AAu@ 0046d464     libucrt:get_qualified_locale.obj
 0002:00004490       ??_C@_1BK@LIMINNMN@?$AAg?$AAe?$AAr?$AAm?$AAa?$AAn?$AA?9?$AAs?$AAw?$AAi?$AAs?$AAs@ 0046d490     libucrt:get_qualified_locale.obj
 0002:000044b0       ??_C@_1BM@LGMDBEPD@?$AAi?$AAr?$AAi?$AAs?$AAh?$AA?9?$AAe?$AAn?$AAg?$AAl?$AAi?$AAs?$AAh@ 0046d4b0     libucrt:get_qualified_locale.obj
 0002:000044d4       ??_C@_1BM@NNCFBAEE@?$AAi?$AAt?$AAa?$AAl?$AAi?$AAa?$AAn?$AA?9?$AAs?$AAw?$AAi?$AAs?$AAs@ 0046d4d4     libucrt:get_qualified_locale.obj
 0002:000044f8       ??_C@_1BE@FEDJNPIB@?$AAn?$AAo?$AAr?$AAw?$AAe?$AAg?$AAi?$AAa?$AAn@ 0046d4f8     libucrt:get_qualified_locale.obj
 0002:00004510       ??_C@_1CC@CILKDEIE@?$AAn?$AAo?$AAr?$AAw?$AAe?$AAg?$AAi?$AAa?$AAn?$AA?9?$AAb?$AAo?$AAk?$AAm?$AAa@ 0046d510     libucrt:get_qualified_locale.obj
 0002:00004538       ??_C@_1CE@DHMMHEPL@?$AAn?$AAo?$AAr?$AAw?$AAe?$AAg?$AAi?$AAa?$AAn?$AA?9?$AAn?$AAy?$AAn?$AAo?$AAr@ 0046d538     libucrt:get_qualified_locale.obj
 0002:00004564       ??_C@_1CK@OPNMHECD@?$AAp?$AAo?$AAr?$AAt?$AAu?$AAg?$AAu?$AAe?$AAs?$AAe?$AA?9?$AAb?$AAr?$AAa?$AAz@ 0046d564     libucrt:get_qualified_locale.obj
 0002:00004598       ??_C@_1CE@KEEHCDB@?$AAs?$AAp?$AAa?$AAn?$AAi?$AAs?$AAh?$AA?9?$AAa?$AAr?$AAg?$AAe?$AAn?$AAt?$AAi@ 0046d598     libucrt:get_qualified_locale.obj
 0002:000045c4       ??_C@_1CA@GIAOLHJD@?$AAs?$AAp?$AAa?$AAn?$AAi?$AAs?$AAh?$AA?9?$AAb?$AAo?$AAl?$AAi?$AAv?$AAi?$AAa@ 0046d5c4     libucrt:get_qualified_locale.obj
 0002:000045ec       ??_C@_1BM@OJNDFNPD@?$AAs?$AAp?$AAa?$AAn?$AAi?$AAs?$AAh?$AA?9?$AAc?$AAh?$AAi?$AAl?$AAe@ 0046d5ec     libucrt:get_qualified_locale.obj
 0002:00004610       ??_C@_1CC@OCOLPALL@?$AAs?$AAp?$AAa?$AAn?$AAi?$AAs?$AAh?$AA?9?$AAc?$AAo?$AAl?$AAo?$AAm?$AAb?$AAi@ 0046d610     libucrt:get_qualified_locale.obj
 0002:00004638       ??_C@_1CG@BPOFMKBB@?$AAs?$AAp?$AAa?$AAn?$AAi?$AAs?$AAh?$AA?9?$AAc?$AAo?$AAs?$AAt?$AAa?$AA?5?$AAr@ 0046d638     libucrt:get_qualified_locale.obj
 0002:00004668       ??_C@_1DG@IGOBAPBB@?$AAs?$AAp?$AAa?$AAn?$AAi?$AAs?$AAh?$AA?9?$AAd?$AAo?$AAm?$AAi?$AAn?$AAi?$AAc@ 0046d668     libucrt:get_qualified_locale.obj
 0002:000046a8       ??_C@_1CA@JHAPGEGI@?$AAs?$AAp?$AAa?$AAn?$AAi?$AAs?$AAh?$AA?9?$AAe?$AAc?$AAu?$AAa?$AAd?$AAo?$AAr@ 0046d6a8     libucrt:get_qualified_locale.obj
 0002:000046d0       ??_C@_1CI@LAPALJPP@?$AAs?$AAp?$AAa?$AAn?$AAi?$AAs?$AAh?$AA?9?$AAe?$AAl?$AA?5?$AAs?$AAa?$AAl?$AAv@ 0046d6d0     libucrt:get_qualified_locale.obj
 0002:00004700       ??_C@_1CE@PDGBOFOM@?$AAs?$AAp?$AAa?$AAn?$AAi?$AAs?$AAh?$AA?9?$AAg?$AAu?$AAa?$AAt?$AAe?$AAm?$AAa@ 0046d700     libucrt:get_qualified_locale.obj
 0002:0000472c       ??_C@_1CC@NBEBAODI@?$AAs?$AAp?$AAa?$AAn?$AAi?$AAs?$AAh?$AA?9?$AAh?$AAo?$AAn?$AAd?$AAu?$AAr?$AAa@ 0046d72c     libucrt:get_qualified_locale.obj
 0002:00004754       ??_C@_1CA@LLKGHBMF@?$AAs?$AAp?$AAa?$AAn?$AAi?$AAs?$AAh?$AA?9?$AAm?$AAe?$AAx?$AAi?$AAc?$AAa?$AAn@ 0046d754     libucrt:get_qualified_locale.obj
 0002:0000477c       ??_C@_1BO@LKNDOIGD@?$AAs?$AAp?$AAa?$AAn?$AAi?$AAs?$AAh?$AA?9?$AAm?$AAo?$AAd?$AAe?$AAr?$AAn@ 0046d77c     libucrt:get_qualified_locale.obj
 0002:000047a0       ??_C@_1CE@NMDMOEEB@?$AAs?$AAp?$AAa?$AAn?$AAi?$AAs?$AAh?$AA?9?$AAn?$AAi?$AAc?$AAa?$AAr?$AAa?$AAg@ 0046d7a0     libucrt:get_qualified_locale.obj
 0002:000047cc       ??_C@_1BO@LLCBEJGB@?$AAs?$AAp?$AAa?$AAn?$AAi?$AAs?$AAh?$AA?9?$AAp?$AAa?$AAn?$AAa?$AAm?$AAa@ 0046d7cc     libucrt:get_qualified_locale.obj
 0002:000047f0       ??_C@_1CC@FKPGGIHO@?$AAs?$AAp?$AAa?$AAn?$AAi?$AAs?$AAh?$AA?9?$AAp?$AAa?$AAr?$AAa?$AAg?$AAu?$AAa@ 0046d7f0     libucrt:get_qualified_locale.obj
 0002:00004818       ??_C@_1BK@CDEIHOOP@?$AAs?$AAp?$AAa?$AAn?$AAi?$AAs?$AAh?$AA?9?$AAp?$AAe?$AAr?$AAu@ 0046d818     libucrt:get_qualified_locale.obj
 0002:00004838       ??_C@_1CI@GAHAKKGP@?$AAs?$AAp?$AAa?$AAn?$AAi?$AAs?$AAh?$AA?9?$AAp?$AAu?$AAe?$AAr?$AAt?$AAo?$AA?5@ 0046d838     libucrt:get_qualified_locale.obj
 0002:00004868       ??_C@_1CA@NKJBCAGP@?$AAs?$AAp?$AAa?$AAn?$AAi?$AAs?$AAh?$AA?9?$AAu?$AAr?$AAu?$AAg?$AAu?$AAa?$AAy@ 0046d868     libucrt:get_qualified_locale.obj
 0002:00004890       ??_C@_1CE@ODILCONM@?$AAs?$AAp?$AAa?$AAn?$AAi?$AAs?$AAh?$AA?9?$AAv?$AAe?$AAn?$AAe?$AAz?$AAu?$AAe@ 0046d890     libucrt:get_qualified_locale.obj
 0002:000048bc       ??_C@_1CA@OBNMCGFO@?$AAs?$AAw?$AAe?$AAd?$AAi?$AAs?$AAh?$AA?9?$AAf?$AAi?$AAn?$AAl?$AAa?$AAn?$AAd@ 0046d8bc     libucrt:get_qualified_locale.obj
 0002:000048e4       ??_C@_1M@PIPDDPPI@?$AAs?$AAw?$AAi?$AAs?$AAs@ 0046d8e4     libucrt:get_qualified_locale.obj
 0002:000048f4       ??_C@_15PJPFLCCM@?$AAu?$AAk@ 0046d8f4     libucrt:get_qualified_locale.obj
 0002:000048fc       ??_C@_15GMFIMNFM@?$AAu?$AAs@ 0046d8fc     libucrt:get_qualified_locale.obj
 0002:00004904       ??_C@_17HAEBFAGL@?$AAu?$AAs?$AAa@ 0046d904     libucrt:get_qualified_locale.obj
 0002:00004910       ??_C@_1BA@DPFJEPHB@?$AAa?$AAm?$AAe?$AAr?$AAi?$AAc?$AAa@ 0046d910     libucrt:get_qualified_locale.obj
 0002:00004924       ??_C@_1BA@ELOGGFK@?$AAb?$AAr?$AAi?$AAt?$AAa?$AAi?$AAn@ 0046d924     libucrt:get_qualified_locale.obj
 0002:00004938       ??_C@_1M@GHBGIGDA@?$AAc?$AAh?$AAi?$AAn?$AAa@ 0046d938     libucrt:get_qualified_locale.obj
 0002:00004948       ??_C@_1M@NCHEJOPO@?$AAc?$AAz?$AAe?$AAc?$AAh@ 0046d948     libucrt:get_qualified_locale.obj
 0002:00004958       ??_C@_1BA@BKPAPBLA@?$AAe?$AAn?$AAg?$AAl?$AAa?$AAn?$AAd@ 0046d958     libucrt:get_qualified_locale.obj
 0002:0000496c       ??_C@_1BM@HKBCKIPC@?$AAg?$AAr?$AAe?$AAa?$AAt?$AA?5?$AAb?$AAr?$AAi?$AAt?$AAa?$AAi?$AAn@ 0046d96c     libucrt:get_qualified_locale.obj
 0002:00004990       ??_C@_1BA@PPCHPGJB@?$AAh?$AAo?$AAl?$AAl?$AAa?$AAn?$AAd@ 0046d990     libucrt:get_qualified_locale.obj
 0002:000049a4       ??_C@_1BE@JBMPEGDG@?$AAh?$AAo?$AAn?$AAg?$AA?9?$AAk?$AAo?$AAn?$AAg@ 0046d9a4     libucrt:get_qualified_locale.obj
 0002:000049bc       ??_C@_1BI@KOELBBPJ@?$AAn?$AAe?$AAw?$AA?9?$AAz?$AAe?$AAa?$AAl?$AAa?$AAn?$AAd@ 0046d9bc     libucrt:get_qualified_locale.obj
 0002:000049d8       ??_C@_15HIEBHAIO@?$AAn?$AAz@ 0046d9d8     libucrt:get_qualified_locale.obj
 0002:000049e0       ??_C@_1BC@CHBCPFPI@?$AAp?$AAr?$AA?5?$AAc?$AAh?$AAi?$AAn?$AAa@ 0046d9e0     libucrt:get_qualified_locale.obj
 0002:000049f8       ??_C@_1BC@JAOIIFKD@?$AAp?$AAr?$AA?9?$AAc?$AAh?$AAi?$AAn?$AAa@ 0046d9f8     libucrt:get_qualified_locale.obj
 0002:00004a10       ??_C@_1BI@BEHPPHKC@?$AAp?$AAu?$AAe?$AAr?$AAt?$AAo?$AA?9?$AAr?$AAi?$AAc?$AAo@ 0046da10     libucrt:get_qualified_locale.obj
 0002:00004a2c       ??_C@_1O@PAEOFKDI@?$AAs?$AAl?$AAo?$AAv?$AAa?$AAk@ 0046da2c     libucrt:get_qualified_locale.obj
 0002:00004a3c       ??_C@_1BK@FIHMCKAM@?$AAs?$AAo?$AAu?$AAt?$AAh?$AA?5?$AAa?$AAf?$AAr?$AAi?$AAc?$AAa@ 0046da3c     libucrt:get_qualified_locale.obj
 0002:00004a5c       ??_C@_1BI@NAEOODKB@?$AAs?$AAo?$AAu?$AAt?$AAh?$AA?5?$AAk?$AAo?$AAr?$AAe?$AAa@ 0046da5c     libucrt:get_qualified_locale.obj
 0002:00004a78       ??_C@_1BK@FBDGGIFF@?$AAs?$AAo?$AAu?$AAt?$AAh?$AA?9?$AAa?$AAf?$AAr?$AAi?$AAc?$AAa@ 0046da78     libucrt:get_qualified_locale.obj
 0002:00004a98       ??_C@_1BI@GHLEJDPK@?$AAs?$AAo?$AAu?$AAt?$AAh?$AA?9?$AAk?$AAo?$AAr?$AAe?$AAa@ 0046da98     libucrt:get_qualified_locale.obj
 0002:00004ab4       ??_C@_1CE@PLHLOMJF@?$AAt?$AAr?$AAi?$AAn?$AAi?$AAd?$AAa?$AAd?$AA?5?$AA?$CG?$AA?5?$AAt?$AAo?$AAb?$AAa@ 0046dab4     libucrt:get_qualified_locale.obj
 0002:00004ae0       ??_C@_1BO@MODIMHHI@?$AAu?$AAn?$AAi?$AAt?$AAe?$AAd?$AA?9?$AAk?$AAi?$AAn?$AAg?$AAd?$AAo?$AAm@ 0046dae0     libucrt:get_qualified_locale.obj
 0002:00004b04       ??_C@_1BM@FFHJONBJ@?$AAu?$AAn?$AAi?$AAt?$AAe?$AAd?$AA?9?$AAs?$AAt?$AAa?$AAt?$AAe?$AAs@ 0046db04     libucrt:get_qualified_locale.obj
 0002:00004b28       ??_C@_19MPDNHKDG@?$AAu?$AAt?$AAf?$AA8@ 0046db28     libucrt:get_qualified_locale.obj
 0002:00004b34       ??_C@_17DNCLJFIF@?$AAA?$AAC?$AAP@ 0046db34     libucrt:get_qualified_locale.obj
 0002:00004b40       ??_C@_1M@FPEIIFAM@?$AAu?$AAt?$AAf?$AA?9?$AA8@ 0046db40     libucrt:get_qualified_locale.obj
 0002:00004b50       ??_C@_17CIKBIHLH@?$AAO?$AAC?$AAP@ 0046db50     libucrt:get_qualified_locale.obj
 0002:00004b5c       ___rglangidNotDefault      0046db5c     libucrt:getqloc_downlevel.obj
 0002:00004be8       ??_C@_1EA@JGEFHKEI@?$AAa?$AAp?$AAi?$AA?9?$AAm?$AAs?$AA?9?$AAw?$AAi?$AAn?$AA?9?$AAc?$AAo?$AAr?$AAe@ 0046dbe8     libucrt:winapi_thunks.obj
 0002:00004c34       ??_C@_1DI@KMEPCBPN@?$AAa?$AAp?$AAi?$AA?9?$AAm?$AAs?$AA?9?$AAw?$AAi?$AAn?$AA?9?$AAc?$AAo?$AAr?$AAe@ 0046dc34     libucrt:winapi_thunks.obj
 0002:00004c78       ??_C@_1DI@IJCEHOCB@?$AAa?$AAp?$AAi?$AA?9?$AAm?$AAs?$AA?9?$AAw?$AAi?$AAn?$AA?9?$AAc?$AAo?$AAr?$AAe@ 0046dc78     libucrt:winapi_thunks.obj
 0002:00004cc0       ??_C@_1EI@MPIAOHOC@?$AAa?$AAp?$AAi?$AA?9?$AAm?$AAs?$AA?9?$AAw?$AAi?$AAn?$AA?9?$AAc?$AAo?$AAr?$AAe@ 0046dcc0     libucrt:winapi_thunks.obj
 0002:00004d18       ??_C@_1FK@FPHCKFIE@?$AAa?$AAp?$AAi?$AA?9?$AAm?$AAs?$AA?9?$AAw?$AAi?$AAn?$AA?9?$AAc?$AAo?$AAr?$AAe@ 0046dd18     libucrt:winapi_thunks.obj
 0002:00004d88       ??_C@_1EM@DILCGIIO@?$AAa?$AAp?$AAi?$AA?9?$AAm?$AAs?$AA?9?$AAw?$AAi?$AAn?$AA?9?$AAc?$AAo?$AAr?$AAe@ 0046dd88     libucrt:winapi_thunks.obj
 0002:00004de4       ??_C@_1DM@LNCGDDPN@?$AAa?$AAp?$AAi?$AA?9?$AAm?$AAs?$AA?9?$AAw?$AAi?$AAn?$AA?9?$AAc?$AAo?$AAr?$AAe@ 0046dde4     libucrt:winapi_thunks.obj
 0002:00004e2c       ??_C@_1DO@FPAPJEMD@?$AAa?$AAp?$AAi?$AA?9?$AAm?$AAs?$AA?9?$AAw?$AAi?$AAn?$AA?9?$AAc?$AAo?$AAr?$AAe@ 0046de2c     libucrt:winapi_thunks.obj
 0002:00004e78       ??_C@_1DK@NDHNAHIO@?$AAa?$AAp?$AAi?$AA?9?$AAm?$AAs?$AA?9?$AAw?$AAi?$AAn?$AA?9?$AAc?$AAo?$AAr?$AAe@ 0046de78     libucrt:winapi_thunks.obj
 0002:00004ec0       ??_C@_1DM@KGHDGBCM@?$AAa?$AAp?$AAi?$AA?9?$AAm?$AAs?$AA?9?$AAw?$AAi?$AAn?$AA?9?$AAc?$AAo?$AAr?$AAe@ 0046dec0     libucrt:winapi_thunks.obj
 0002:00004f08       ??_C@_1EO@IJIOEFOH@?$AAa?$AAp?$AAi?$AA?9?$AAm?$AAs?$AA?9?$AAw?$AAi?$AAn?$AA?9?$AAr?$AAt?$AAc?$AAo@ 0046df08     libucrt:winapi_thunks.obj
 0002:00004f68       ??_C@_1FG@HHGEKANL@?$AAa?$AAp?$AAi?$AA?9?$AAm?$AAs?$AA?9?$AAw?$AAi?$AAn?$AA?9?$AAs?$AAe?$AAc?$AAu@ 0046df68     libucrt:winapi_thunks.obj
 0002:00004fd0       ??_C@_1EG@DBIOJECG@?$AAe?$AAx?$AAt?$AA?9?$AAm?$AAs?$AA?9?$AAw?$AAi?$AAn?$AA?9?$AAn?$AAt?$AAu?$AAs@ 0046dfd0     libucrt:winapi_thunks.obj
 0002:00005028       ??_C@_1EO@FIHMJCLF@?$AAe?$AAx?$AAt?$AA?9?$AAm?$AAs?$AA?9?$AAw?$AAi?$AAn?$AA?9?$AAn?$AAt?$AAu?$AAs@ 0046e028     libucrt:winapi_thunks.obj
 0002:00005088       ??_C@_1BC@DNHGCMLG@?$AAa?$AAd?$AAv?$AAa?$AAp?$AAi?$AA3?$AA2@ 0046e088     libucrt:winapi_thunks.obj
 0002:000050a0       ??_C@_1BG@CJPGBMEF@?$AAk?$AAe?$AAr?$AAn?$AAe?$AAl?$AAb?$AAa?$AAs?$AAe@ 0046e0a0     libucrt:winapi_thunks.obj
 0002:000050bc       ??_C@_1M@OAIMIKLP@?$AAn?$AAt?$AAd?$AAl?$AAl@ 0046e0bc     libucrt:winapi_thunks.obj
 0002:000050d0       ??_C@_1EG@DPGNFKGC@?$AAa?$AAp?$AAi?$AA?9?$AAm?$AAs?$AA?9?$AAw?$AAi?$AAn?$AA?9?$AAa?$AAp?$AAp?$AAm@ 0046e0d0     libucrt:winapi_thunks.obj
 0002:00005124       ??_C@_1O@BCCLBEOE@?$AAu?$AAs?$AAe?$AAr?$AA3?$AA2@ 0046e124     libucrt:winapi_thunks.obj
 0002:00005134       ??_C@_1DM@BPJLHKCE@?$AAa?$AAp?$AAi?$AA?9?$AAm?$AAs?$AA?9?$AAw?$AAi?$AAn?$AA?9?$AAc?$AAo?$AAr?$AAe@ 0046e134     libucrt:winapi_thunks.obj
 0002:0000517c       ??_C@_1BA@IAIFMGEF@?$AAe?$AAx?$AAt?$AA?9?$AAm?$AAs?$AA?9@ 0046e17c     libucrt:winapi_thunks.obj
 0002:00005194       ??_C@_0BA@FHFNEAED@AreFileApisANSI@ 0046e194     libucrt:winapi_thunks.obj
 0002:000051b4       ??_C@_0BA@IHGNDAEB@CompareStringEx@ 0046e1b4     libucrt:winapi_thunks.obj
 0002:000051d4       ??_C@_0BE@LJANKFHF@EnumSystemLocalesEx@ 0046e1d4     libucrt:winapi_thunks.obj
 0002:000051f8       ??_C@_0BA@HNOPNCHB@GetActiveWindow@ 0046e1f8     libucrt:winapi_thunks.obj
 0002:00005218       ??_C@_0BA@EPCJIIPD@GetDateFormatEx@ 0046e218     libucrt:winapi_thunks.obj
 0002:00005238       ??_C@_0O@NNMIPI@GetTempPath2W@ 0046e238     libucrt:winapi_thunks.obj
 0002:00005254       ??_C@_0BJ@DIBIJBHA@GetEnabledXStateFeatures@ 0046e254     libucrt:winapi_thunks.obj
 0002:00005280       ??_C@_0BD@HHGDFDBJ@GetLastActivePopup@ 0046e280     libucrt:winapi_thunks.obj
 0002:000052a4       ??_C@_0BA@ONOKGCMP@GetLocaleInfoEx@ 0046e2a4     libucrt:winapi_thunks.obj
 0002:000052c4       ??_C@_0BI@DFKBFLJE@GetProcessWindowStation@ 0046e2c4     libucrt:winapi_thunks.obj
 0002:000052e4       ??_C@_0BP@FPNJPEJC@GetSystemTimePreciseAsFileTime@ 0046e2e4     libucrt:winapi_thunks.obj
 0002:00005318       ??_C@_0BA@CIJJKCJJ@GetTimeFormatEx@ 0046e318     libucrt:winapi_thunks.obj
 0002:00005338       ??_C@_0BJ@PBCCBIPI@GetUserDefaultLocaleName@ 0046e338     libucrt:winapi_thunks.obj
 0002:00005364       ??_C@_0BK@DEKFELLI@GetUserObjectInformationW@ 0046e364     libucrt:winapi_thunks.obj
 0002:00005390       ??_C@_0BG@IKLDMBLM@GetXStateFeaturesMask@ 0046e390     libucrt:winapi_thunks.obj
 0002:000053c4       ??_C@_0BC@CELBKLLA@IsValidLocaleName@ 0046e3c4     libucrt:winapi_thunks.obj
 0002:000053e8       ??_C@_0O@KKBNKAPF@LCMapStringEx@ 0046e3e8     libucrt:winapi_thunks.obj
 0002:00005404       ??_C@_0BB@CDHDDLLP@LCIDToLocaleName@ 0046e404     libucrt:winapi_thunks.obj
 0002:00005424       ??_C@_0BB@HBDEELFH@LocaleNameToLCID@ 0046e424     libucrt:winapi_thunks.obj
 0002:00005444       ??_C@_0BE@KINNKFDA@LocateXStateFeature@ 0046e444     libucrt:winapi_thunks.obj
 0002:00005468       ??_C@_0M@CHKKJDAI@MessageBoxA@ 0046e468     libucrt:winapi_thunks.obj
 0002:00005484       ??_C@_0M@DLDCCGNP@MessageBoxW@ 0046e484     libucrt:winapi_thunks.obj
 0002:00005498       ??_C@_0N@PPOMPGGK@RoInitialize@ 0046e498     libucrt:winapi_thunks.obj
 0002:000054ac       ??_C@_0P@LLFHBIJD@RoUninitialize@ 0046e4ac     libucrt:winapi_thunks.obj
 0002:000054c4       ??_C@_0CF@OJOFEIGO@AppPolicyGetProcessTerminationM@ 0046e4c4     libucrt:winapi_thunks.obj
 0002:000054f4       ??_C@_0CF@NNDFDCOC@AppPolicyGetThreadInitializatio@ 0046e4f4     libucrt:winapi_thunks.obj
 0002:00005524       ??_C@_0CE@OICFMIKE@AppPolicyGetShowDeveloperDiagno@ 0046e524     libucrt:winapi_thunks.obj
 0002:00005554       ??_C@_0BL@ODDJNEDA@AppPolicyGetWindowingModel@ 0046e554     libucrt:winapi_thunks.obj
 0002:00005580       ??_C@_0BI@BKLFFAPO@SetThreadStackGuarantee@ 0046e580     libucrt:winapi_thunks.obj
 0002:000055a8       ??_C@_0BC@JEAENNKH@SystemFunction036@ 0046e5a8     libucrt:winapi_thunks.obj
 0002:00005644       ??_C@_03OEIAHPBN@INF@      0046e644     libucrt:cvt.obj
 0002:00005648       ??_C@_03OJHLLCGB@inf@      0046e648     libucrt:cvt.obj
 0002:0000564c       ??_C@_03LKNCIKJB@NAN@      0046e64c     libucrt:cvt.obj
 0002:00005650       ??_C@_03LHCJEHON@nan@      0046e650     libucrt:cvt.obj
 0002:00005654       ??_C@_09OFJJIMPC@NAN?$CISNAN?$CJ@ 0046e654     libucrt:cvt.obj
 0002:00005660       ??_C@_09IPFBKMDL@nan?$CIsnan?$CJ@ 0046e660     libucrt:cvt.obj
 0002:0000566c       ??_C@_08IKHNHAJ@NAN?$CIIND?$CJ@ 0046e66c     libucrt:cvt.obj
 0002:00005678       ??_C@_08OFCDMILK@nan?$CIind?$CJ@ 0046e678     libucrt:cvt.obj
 0002:00005684       ??_C@_05KLBDPFGC@e?$CL000@ 0046e684     libucrt:cvt.obj
 0002:00005f1c       ??_C@_15EMKDOKLE@?$AAa?$AAr@ 0046ef1c     libucrt:lcidtoname_downlevel.obj
 0002:00005f24       ??_C@_15KNPADPLH@?$AAb?$AAg@ 0046ef24     libucrt:lcidtoname_downlevel.obj
 0002:00005f2c       ??_C@_15EDMHLDMO@?$AAc?$AAa@ 0046ef2c     libucrt:lcidtoname_downlevel.obj
 0002:00005f34       ??_C@_1O@BPEAJADD@?$AAz?$AAh?$AA?9?$AAC?$AAH?$AAS@ 0046ef34     libucrt:lcidtoname_downlevel.obj
 0002:00005f44       ??_C@_15LJNHCMNK@?$AAc?$AAs@ 0046ef44     libucrt:lcidtoname_downlevel.obj
 0002:00005f4c       ??_C@_15FOMCIDHG@?$AAd?$AAa@ 0046ef4c     libucrt:lcidtoname_downlevel.obj
 0002:00005f54       ??_C@_15NBKABECB@?$AAd?$AAe@ 0046ef54     libucrt:lcidtoname_downlevel.obj
 0002:00005f5c       ??_C@_15GHPEIIAO@?$AAe?$AAl@ 0046ef5c     libucrt:lcidtoname_downlevel.obj
 0002:00005f64       ??_C@_15MNPNEAIF@?$AAe?$AAn@ 0046ef64     libucrt:lcidtoname_downlevel.obj
 0002:00005f6c       ??_C@_15GPIOMPMH@?$AAe?$AAs@ 0046ef6c     libucrt:lcidtoname_downlevel.obj
 0002:00005f74       ??_C@_15NGLOAKJC@?$AAf?$AAi@ 0046ef74     libucrt:lcidtoname_downlevel.obj
 0002:00005f7c       ??_C@_15FBKGNKAM@?$AAf?$AAr@ 0046ef7c     libucrt:lcidtoname_downlevel.obj
 0002:00005f84       ??_C@_15KGGCNEFK@?$AAh?$AAe@ 0046ef84     libucrt:lcidtoname_downlevel.obj
 0002:00005f8c       ??_C@_15PGHLIDMF@?$AAh?$AAu@ 0046ef8c     libucrt:lcidtoname_downlevel.obj
 0002:00005f94       ??_C@_15BIEMAPLM@?$AAi?$AAs@ 0046ef94     libucrt:lcidtoname_downlevel.obj
 0002:00005f9c       ??_C@_15IFJLDHAF@?$AAi?$AAt@ 0046ef9c     libucrt:lcidtoname_downlevel.obj
 0002:00005fa4       ??_C@_15GEMIOCAG@?$AAj?$AAa@ 0046efa4     libucrt:lcidtoname_downlevel.obj
 0002:00005fac       ??_C@_15EPELEGJA@?$AAk?$AAo@ 0046efac     libucrt:lcidtoname_downlevel.obj
 0002:00005fb4       ??_C@_15NDDHIMN@?$AAn?$AAl@ 0046efb4     libucrt:lcidtoname_downlevel.obj
 0002:00005fbc       ??_C@_15BPIGNHCD@?$AAn?$AAo@ 0046efbc     libucrt:lcidtoname_downlevel.obj
 0002:00005fc4       ??_C@_15DEOPBLCG@?$AAp?$AAl@ 0046efc4     libucrt:lcidtoname_downlevel.obj
 0002:00005fcc       ??_C@_15KBECGEFG@?$AAp?$AAt@ 0046efcc     libucrt:lcidtoname_downlevel.obj
 0002:00005fd4       ??_C@_15GLJCBFMD@?$AAr?$AAo@ 0046efd4     libucrt:lcidtoname_downlevel.obj
 0002:00005fdc       ??_C@_15FEDGKCDI@?$AAr?$AAu@ 0046efdc     libucrt:lcidtoname_downlevel.obj
 0002:00005fe4       ??_C@_15GLKMLLHM@?$AAh?$AAr@ 0046efe4     libucrt:lcidtoname_downlevel.obj
 0002:00005fec       ??_C@_15CPKMFBDB@?$AAs?$AAk@ 0046efec     libucrt:lcidtoname_downlevel.obj
 0002:00005ff4       ??_C@_15BAAIOGMK@?$AAs?$AAq@ 0046eff4     libucrt:lcidtoname_downlevel.obj
 0002:00005ffc       ??_C@_15INNPNOHD@?$AAs?$AAv@ 0046effc     libucrt:lcidtoname_downlevel.obj
 0002:00006004       ??_C@_15CABMMOGH@?$AAt?$AAh@ 0046f004     libucrt:lcidtoname_downlevel.obj
 0002:0000600c       ??_C@_15BPLIHJJM@?$AAt?$AAr@ 0046f00c     libucrt:lcidtoname_downlevel.obj
 0002:00006014       ??_C@_15NEOEKKDJ@?$AAu?$AAr@ 0046f014     libucrt:lcidtoname_downlevel.obj
 0002:0000601c       ??_C@_15NFICGAJK@?$AAi?$AAd@ 0046f01c     libucrt:lcidtoname_downlevel.obj
 0002:00006024       ??_C@_15HPJPHDM@?$AAb?$AAe@ 0046f024     libucrt:lcidtoname_downlevel.obj
 0002:0000602c       ??_C@_15LCHLGJII@?$AAs?$AAl@ 0046f02c     libucrt:lcidtoname_downlevel.obj
 0002:00006034       ??_C@_15PCFJPHHO@?$AAe?$AAt@ 0046f034     libucrt:lcidtoname_downlevel.obj
 0002:0000603c       ??_C@_15HPFPGODN@?$AAl?$AAv@ 0046f03c     libucrt:lcidtoname_downlevel.obj
 0002:00006044       ??_C@_15NFFGKGLG@?$AAl?$AAt@ 0046f044     libucrt:lcidtoname_downlevel.obj
 0002:0000604c       ??_C@_15BDAKCCHN@?$AAf?$AAa@ 0046f04c     libucrt:lcidtoname_downlevel.obj
 0002:00006054       ??_C@_15NFGIAIAJ@?$AAv?$AAi@ 0046f054     libucrt:lcidtoname_downlevel.obj
 0002:0000605c       ??_C@_15LMKNDMHN@?$AAh?$AAy@ 0046f05c     libucrt:lcidtoname_downlevel.obj
 0002:00006064       ??_C@_15IJBHMCFL@?$AAa?$AAz@ 0046f064     libucrt:lcidtoname_downlevel.obj
 0002:0000606c       ??_C@_15EKOFJABL@?$AAe?$AAu@ 0046f06c     libucrt:lcidtoname_downlevel.obj
 0002:00006074       ??_C@_15BGHADCNK@?$AAm?$AAk@ 0046f074     libucrt:lcidtoname_downlevel.obj
 0002:0000607c       ??_C@_15JDNICKHM@?$AAa?$AAf@ 0046f07c     libucrt:lcidtoname_downlevel.obj
 0002:00006084       ??_C@_15KPJEDBKD@?$AAk?$AAa@ 0046f084     libucrt:lcidtoname_downlevel.obj
 0002:0000608c       ??_C@_15PDNFFFEO@?$AAf?$AAo@ 0046f08c     libucrt:lcidtoname_downlevel.obj
 0002:00006094       ??_C@_15OMLEGLOC@?$AAh?$AAi@ 0046f094     libucrt:lcidtoname_downlevel.obj
 0002:0000609c       ??_C@_15IDNNENKK@?$AAm?$AAs@ 0046f09c     libucrt:lcidtoname_downlevel.obj
 0002:000060a4       ??_C@_15MACJNBMH@?$AAk?$AAk@ 0046f0a4     libucrt:lcidtoname_downlevel.obj
 0002:000060ac       ??_C@_15DKDJEOND@?$AAk?$AAy@ 0046f0ac     libucrt:lcidtoname_downlevel.obj
 0002:000060b4       ??_C@_15DFGDLJBG@?$AAs?$AAw@ 0046f0b4     libucrt:lcidtoname_downlevel.obj
 0002:000060bc       ??_C@_15BBFAICNG@?$AAu?$AAz@ 0046f0bc     libucrt:lcidtoname_downlevel.obj
 0002:000060c4       ??_C@_15DKNDCGEA@?$AAt?$AAt@ 0046f0c4     libucrt:lcidtoname_downlevel.obj
 0002:000060cc       ??_C@_15MGIFMDPL@?$AAp?$AAa@ 0046f0cc     libucrt:lcidtoname_downlevel.obj
 0002:000060d4       ??_C@_15HCNDBBA@?$AAg?$AAu@ 0046f0d4     libucrt:lcidtoname_downlevel.obj
 0002:000060dc       ??_C@_15FNBEIBON@?$AAt?$AAa@ 0046f0dc     libucrt:lcidtoname_downlevel.obj
 0002:000060e4       ??_C@_15NCHGBGLK@?$AAt?$AAe@ 0046f0e4     libucrt:lcidtoname_downlevel.obj
 0002:000060ec       ??_C@_15PHPHCBPF@?$AAk?$AAn@ 0046f0ec     libucrt:lcidtoname_downlevel.obj
 0002:000060f4       ??_C@_15DLGBCKMP@?$AAm?$AAr@ 0046f0f4     libucrt:lcidtoname_downlevel.obj
 0002:000060fc       ??_C@_15EABBLBFF@?$AAs?$AAa@ 0046f0fc     libucrt:lcidtoname_downlevel.obj
 0002:00006104       ??_C@_15CBKOMCOI@?$AAm?$AAn@ 0046f104     libucrt:lcidtoname_downlevel.obj
 0002:0000610c       ??_C@_15CKDMCJAF@?$AAg?$AAl@ 0046f10c     libucrt:lcidtoname_downlevel.obj
 0002:00006114       ??_C@_17CNJFBPG@?$AAk?$AAo?$AAk@ 0046f114     libucrt:lcidtoname_downlevel.obj
 0002:00006120       ??_C@_17FFBJICPL@?$AAs?$AAy?$AAr@ 0046f120     libucrt:lcidtoname_downlevel.obj
 0002:0000612c       ??_C@_17KPNDCPAF@?$AAd?$AAi?$AAv@ 0046f12c     libucrt:lcidtoname_downlevel.obj
 0002:00006138       ??_C@_11LOCGONAA@@         0046f138     libucrt:lcidtoname_downlevel.obj
 0002:0000613c       ??_C@_1M@OKAHONE@?$AAa?$AAr?$AA?9?$AAS?$AAA@ 0046f13c     libucrt:lcidtoname_downlevel.obj
 0002:0000614c       ??_C@_1M@FFFIGIGK@?$AAb?$AAg?$AA?9?$AAB?$AAG@ 0046f14c     libucrt:lcidtoname_downlevel.obj
 0002:0000615c       ??_C@_1M@BJNKEDC@?$AAc?$AAa?$AA?9?$AAE?$AAS@ 0046f15c     libucrt:lcidtoname_downlevel.obj
 0002:0000616c       ??_C@_1M@IJJHFJHA@?$AAc?$AAs?$AA?9?$AAC?$AAZ@ 0046f16c     libucrt:lcidtoname_downlevel.obj
 0002:0000617c       ??_C@_1M@CLPEOBGI@?$AAd?$AAa?$AA?9?$AAD?$AAK@ 0046f17c     libucrt:lcidtoname_downlevel.obj
 0002:0000618c       ??_C@_1M@MCMADGCB@?$AAd?$AAe?$AA?9?$AAD?$AAE@ 0046f18c     libucrt:lcidtoname_downlevel.obj
 0002:0000619c       ??_C@_1M@OOCKEMAM@?$AAe?$AAl?$AA?9?$AAG?$AAR@ 0046f19c     libucrt:lcidtoname_downlevel.obj
 0002:000061ac       ??_C@_1M@DDNJFGID@?$AAf?$AAi?$AA?9?$AAF?$AAI@ 0046f1ac     libucrt:lcidtoname_downlevel.obj
 0002:000061bc       ??_C@_1M@GLIPPMAC@?$AAf?$AAr?$AA?9?$AAF?$AAR@ 0046f1bc     libucrt:lcidtoname_downlevel.obj
 0002:000061cc       ??_C@_1M@GFMCHPE@?$AAh?$AAe?$AA?9?$AAI?$AAL@ 0046f1cc     libucrt:lcidtoname_downlevel.obj
 0002:000061dc       ??_C@_1M@MHLPGNKM@?$AAh?$AAu?$AA?9?$AAH?$AAU@ 0046f1dc     libucrt:lcidtoname_downlevel.obj
 0002:000061ec       ??_C@_1M@LPDDNNPN@?$AAi?$AAs?$AA?9?$AAI?$AAS@ 0046f1ec     libucrt:lcidtoname_downlevel.obj
 0002:000061fc       ??_C@_1M@MADIPODN@?$AAi?$AAt?$AA?9?$AAI?$AAT@ 0046f1fc     libucrt:lcidtoname_downlevel.obj
 0002:0000620c       ??_C@_1M@IHBJJGG@?$AAn?$AAl?$AA?9?$AAN?$AAL@ 0046f20c     libucrt:lcidtoname_downlevel.obj
 0002:0000621c       ??_C@_1M@EANAGDL@?$AAn?$AAb?$AA?9?$AAN?$AAO@ 0046f21c     libucrt:lcidtoname_downlevel.obj
 0002:0000622c       ??_C@_1M@NEIEMEGP@?$AAp?$AAl?$AA?9?$AAP?$AAL@ 0046f22c     libucrt:lcidtoname_downlevel.obj
 0002:0000623c       ??_C@_1M@BOCFIGEP@?$AAp?$AAt?$AA?9?$AAB?$AAR@ 0046f23c     libucrt:lcidtoname_downlevel.obj
 0002:0000624c       ??_C@_1M@IMPFOPBG@?$AAr?$AAo?$AA?9?$AAR?$AAO@ 0046f24c     libucrt:lcidtoname_downlevel.obj
 0002:0000625c       ??_C@_1M@IDNNEJMM@?$AAr?$AAu?$AA?9?$AAR?$AAU@ 0046f25c     libucrt:lcidtoname_downlevel.obj
 0002:0000626c       ??_C@_1M@LILEEOGM@?$AAh?$AAr?$AA?9?$AAH?$AAR@ 0046f26c     libucrt:lcidtoname_downlevel.obj
 0002:0000627c       ??_C@_1M@FKIFEHPB@?$AAs?$AAk?$AA?9?$AAS?$AAK@ 0046f27c     libucrt:lcidtoname_downlevel.obj
 0002:0000628c       ??_C@_1M@LJMAMNPJ@?$AAs?$AAq?$AA?9?$AAA?$AAL@ 0046f28c     libucrt:lcidtoname_downlevel.obj
 0002:0000629c       ??_C@_1M@GIAKDKJK@?$AAs?$AAv?$AA?9?$AAS?$AAE@ 0046f29c     libucrt:lcidtoname_downlevel.obj
 0002:000062ac       ??_C@_1M@MKJKIKCL@?$AAt?$AAh?$AA?9?$AAT?$AAH@ 0046f2ac     libucrt:lcidtoname_downlevel.obj
 0002:000062bc       ??_C@_1M@MFLCCMPB@?$AAt?$AAr?$AA?9?$AAT?$AAR@ 0046f2bc     libucrt:lcidtoname_downlevel.obj
 0002:000062cc       ??_C@_1M@OIJHDKJN@?$AAu?$AAr?$AA?9?$AAP?$AAK@ 0046f2cc     libucrt:lcidtoname_downlevel.obj
 0002:000062dc       ??_C@_1M@LHIPCIEK@?$AAi?$AAd?$AA?9?$AAI?$AAD@ 0046f2dc     libucrt:lcidtoname_downlevel.obj
 0002:000062ec       ??_C@_1M@MFMOBGI@?$AAu?$AAk?$AA?9?$AAU?$AAA@ 0046f2ec     libucrt:lcidtoname_downlevel.obj
 0002:000062fc       ??_C@_1M@OBGLJIPL@?$AAb?$AAe?$AA?9?$AAB?$AAY@ 0046f2fc     libucrt:lcidtoname_downlevel.obj
 0002:0000630c       ??_C@_1M@BCFAJEAD@?$AAs?$AAl?$AA?9?$AAS?$AAI@ 0046f30c     libucrt:lcidtoname_downlevel.obj
 0002:0000631c       ??_C@_1M@FKFFEDDN@?$AAe?$AAt?$AA?9?$AAE?$AAE@ 0046f31c     libucrt:lcidtoname_downlevel.obj
 0002:0000632c       ??_C@_1M@KGKKAACI@?$AAl?$AAv?$AA?9?$AAL?$AAV@ 0046f32c     libucrt:lcidtoname_downlevel.obj
 0002:0000633c       ??_C@_1M@IFGBIJO@?$AAl?$AAt?$AA?9?$AAL?$AAT@ 0046f33c     libucrt:lcidtoname_downlevel.obj
 0002:0000634c       ??_C@_1M@FGEAHEDM@?$AAf?$AAa?$AA?9?$AAI?$AAR@ 0046f34c     libucrt:lcidtoname_downlevel.obj
 0002:0000635c       ??_C@_1M@KBMAIBFN@?$AAv?$AAi?$AA?9?$AAV?$AAN@ 0046f35c     libucrt:lcidtoname_downlevel.obj
 0002:0000636c       ??_C@_1M@GPCBKDJK@?$AAh?$AAy?$AA?9?$AAA?$AAM@ 0046f36c     libucrt:lcidtoname_downlevel.obj
 0002:0000637c       ??_C@_1BG@BECMDDJB@?$AAa?$AAz?$AA?9?$AAA?$AAZ?$AA?9?$AAL?$AAa?$AAt?$AAn@ 0046f37c     libucrt:lcidtoname_downlevel.obj
 0002:00006398       ??_C@_1M@MAOFCAEA@?$AAe?$AAu?$AA?9?$AAE?$AAS@ 0046f398     libucrt:lcidtoname_downlevel.obj
 0002:000063a8       ??_C@_1M@IGHABKPI@?$AAm?$AAk?$AA?9?$AAM?$AAK@ 0046f3a8     libucrt:lcidtoname_downlevel.obj
 0002:000063b8       ??_C@_1M@IAIGNEJG@?$AAt?$AAn?$AA?9?$AAZ?$AAA@ 0046f3b8     libucrt:lcidtoname_downlevel.obj
 0002:000063c8       ??_C@_1M@IIJCOJFA@?$AAx?$AAh?$AA?9?$AAZ?$AAA@ 0046f3c8     libucrt:lcidtoname_downlevel.obj
 0002:000063d8       ??_C@_1M@LGPJHNJH@?$AAz?$AAu?$AA?9?$AAZ?$AAA@ 0046f3d8     libucrt:lcidtoname_downlevel.obj
 0002:000063e8       ??_C@_1M@HOKAOIO@?$AAa?$AAf?$AA?9?$AAZ?$AAA@ 0046f3e8     libucrt:lcidtoname_downlevel.obj
 0002:000063f8       ??_C@_1M@DPCLHLIE@?$AAk?$AAa?$AA?9?$AAG?$AAE@ 0046f3f8     libucrt:lcidtoname_downlevel.obj
 0002:00006408       ??_C@_1M@BLKMHJBI@?$AAf?$AAo?$AA?9?$AAF?$AAO@ 0046f408     libucrt:lcidtoname_downlevel.obj
 0002:00006418       ??_C@_1M@LGGJAPPB@?$AAh?$AAi?$AA?9?$AAI?$AAN@ 0046f418     libucrt:lcidtoname_downlevel.obj
 0002:00006428       ??_C@_1M@FIKPIHFE@?$AAm?$AAt?$AA?9?$AAM?$AAT@ 0046f428     libucrt:lcidtoname_downlevel.obj
 0002:00006438       ??_C@_1M@HEGGPBFA@?$AAs?$AAe?$AA?9?$AAN?$AAO@ 0046f438     libucrt:lcidtoname_downlevel.obj
 0002:00006448       ??_C@_1M@EIBJEEPA@?$AAm?$AAs?$AA?9?$AAM?$AAY@ 0046f448     libucrt:lcidtoname_downlevel.obj
 0002:00006458       ??_C@_1M@FHLBGMPP@?$AAk?$AAk?$AA?9?$AAK?$AAZ@ 0046f458     libucrt:lcidtoname_downlevel.obj
 0002:00006468       ??_C@_1M@NGJJLCGI@?$AAk?$AAy?$AA?9?$AAK?$AAG@ 0046f468     libucrt:lcidtoname_downlevel.obj
 0002:00006478       ??_C@_1M@GIENNBFC@?$AAs?$AAw?$AA?9?$AAK?$AAE@ 0046f478     libucrt:lcidtoname_downlevel.obj
 0002:00006488       ??_C@_1BG@NDGMJIMJ@?$AAu?$AAz?$AA?9?$AAU?$AAZ?$AA?9?$AAL?$AAa?$AAt?$AAn@ 0046f488     libucrt:lcidtoname_downlevel.obj
 0002:000064a4       ??_C@_1M@IDCCIHBC@?$AAt?$AAt?$AA?9?$AAR?$AAU@ 0046f4a4     libucrt:lcidtoname_downlevel.obj
 0002:000064b4       ??_C@_1M@LOICPMOJ@?$AAb?$AAn?$AA?9?$AAI?$AAN@ 0046f4b4     libucrt:lcidtoname_downlevel.obj
 0002:000064c4       ??_C@_1M@KPKKNEAH@?$AAp?$AAa?$AA?9?$AAI?$AAN@ 0046f4c4     libucrt:lcidtoname_downlevel.obj
 0002:000064d4       ??_C@_1M@PJGPPBOG@?$AAg?$AAu?$AA?9?$AAI?$AAN@ 0046f4d4     libucrt:lcidtoname_downlevel.obj
 0002:000064e4       ??_C@_1M@KMKMOPHI@?$AAt?$AAa?$AA?9?$AAI?$AAN@ 0046f4e4     libucrt:lcidtoname_downlevel.obj
 0002:000064f4       ??_C@_1M@KFEHEPAC@?$AAt?$AAe?$AA?9?$AAI?$AAN@ 0046f4f4     libucrt:lcidtoname_downlevel.obj
 0002:00006504       ??_C@_1M@CDCLMGHI@?$AAk?$AAn?$AA?9?$AAI?$AAN@ 0046f504     libucrt:lcidtoname_downlevel.obj
 0002:00006514       ??_C@_1M@MIODLDKF@?$AAm?$AAl?$AA?9?$AAI?$AAN@ 0046f514     libucrt:lcidtoname_downlevel.obj
 0002:00006524       ??_C@_1M@PBIEACPO@?$AAm?$AAr?$AA?9?$AAI?$AAN@ 0046f524     libucrt:lcidtoname_downlevel.obj
 0002:00006534       ??_C@_1M@NIDEAGPH@?$AAs?$AAa?$AA?9?$AAI?$AAN@ 0046f534     libucrt:lcidtoname_downlevel.obj
 0002:00006544       ??_C@_1M@FHIHCBIO@?$AAm?$AAn?$AA?9?$AAM?$AAN@ 0046f544     libucrt:lcidtoname_downlevel.obj
 0002:00006554       ??_C@_1M@JAIJPENP@?$AAc?$AAy?$AA?9?$AAG?$AAB@ 0046f554     libucrt:lcidtoname_downlevel.obj
 0002:00006564       ??_C@_1M@PHGFBEPN@?$AAg?$AAl?$AA?9?$AAE?$AAS@ 0046f564     libucrt:lcidtoname_downlevel.obj
 0002:00006574       ??_C@_1O@KPIPDNCP@?$AAk?$AAo?$AAk?$AA?9?$AAI?$AAN@ 0046f574     libucrt:lcidtoname_downlevel.obj
 0002:00006584       ??_C@_1O@KNHJLDJA@?$AAs?$AAy?$AAr?$AA?9?$AAS?$AAY@ 0046f584     libucrt:lcidtoname_downlevel.obj
 0002:00006594       ??_C@_1O@MKEKBLAH@?$AAd?$AAi?$AAv?$AA?9?$AAM?$AAV@ 0046f594     libucrt:lcidtoname_downlevel.obj
 0002:000065a4       ??_C@_1O@OHDCKDDF@?$AAq?$AAu?$AAz?$AA?9?$AAB?$AAO@ 0046f5a4     libucrt:lcidtoname_downlevel.obj
 0002:000065b4       ??_C@_1M@LEPJNLFD@?$AAn?$AAs?$AA?9?$AAZ?$AAA@ 0046f5b4     libucrt:lcidtoname_downlevel.obj
 0002:000065c4       ??_C@_1M@OMLEIIJB@?$AAm?$AAi?$AA?9?$AAN?$AAZ@ 0046f5c4     libucrt:lcidtoname_downlevel.obj
 0002:000065d4       ??_C@_1M@PMPEAILG@?$AAa?$AAr?$AA?9?$AAI?$AAQ@ 0046f5d4     libucrt:lcidtoname_downlevel.obj
 0002:000065e4       ??_C@_1M@CNKPNOEE@?$AAd?$AAe?$AA?9?$AAC?$AAH@ 0046f5e4     libucrt:lcidtoname_downlevel.obj
 0002:000065f4       ??_C@_1M@LKMGMLKO@?$AAe?$AAn?$AA?9?$AAG?$AAB@ 0046f5f4     libucrt:lcidtoname_downlevel.obj
 0002:00006604       ??_C@_1M@PGKJFFGL@?$AAe?$AAs?$AA?9?$AAM?$AAX@ 0046f604     libucrt:lcidtoname_downlevel.obj
 0002:00006614       ??_C@_1M@DNNANBDC@?$AAf?$AAr?$AA?9?$AAB?$AAE@ 0046f614     libucrt:lcidtoname_downlevel.obj
 0002:00006624       ??_C@_1M@HLGMDFHM@?$AAi?$AAt?$AA?9?$AAC?$AAH@ 0046f624     libucrt:lcidtoname_downlevel.obj
 0002:00006634       ??_C@_1M@CLLBGJH@?$AAn?$AAl?$AA?9?$AAB?$AAE@ 0046f634     libucrt:lcidtoname_downlevel.obj
 0002:00006644       ??_C@_1M@BODBOGLF@?$AAn?$AAn?$AA?9?$AAN?$AAO@ 0046f644     libucrt:lcidtoname_downlevel.obj
 0002:00006654       ??_C@_1M@HFFAHKAD@?$AAp?$AAt?$AA?9?$AAP?$AAT@ 0046f654     libucrt:lcidtoname_downlevel.obj
 0002:00006664       ??_C@_1BG@LNOAKHIE@?$AAs?$AAr?$AA?9?$AAS?$AAP?$AA?9?$AAL?$AAa?$AAt?$AAn@ 0046f664     libucrt:lcidtoname_downlevel.obj
 0002:00006680       ??_C@_1M@HBMHBGAK@?$AAs?$AAv?$AA?9?$AAF?$AAI@ 0046f680     libucrt:lcidtoname_downlevel.obj
 0002:00006690       ??_C@_1BG@DGCJGJBE@?$AAa?$AAz?$AA?9?$AAA?$AAZ?$AA?9?$AAC?$AAy?$AAr?$AAl@ 0046f690     libucrt:lcidtoname_downlevel.obj
 0002:000066ac       ??_C@_1M@KEJDAAHB@?$AAs?$AAe?$AA?9?$AAS?$AAE@ 0046f6ac     libucrt:lcidtoname_downlevel.obj
 0002:000066bc       ??_C@_1M@HEIBJJAD@?$AAm?$AAs?$AA?9?$AAB?$AAN@ 0046f6bc     libucrt:lcidtoname_downlevel.obj
 0002:000066cc       ??_C@_1BG@PBGJMCEM@?$AAu?$AAz?$AA?9?$AAU?$AAZ?$AA?9?$AAC?$AAy?$AAr?$AAl@ 0046f6cc     libucrt:lcidtoname_downlevel.obj
 0002:000066e8       ??_C@_1O@LAOBCMDF@?$AAq?$AAu?$AAz?$AA?9?$AAE?$AAC@ 0046f6e8     libucrt:lcidtoname_downlevel.obj
 0002:000066f8       ??_C@_1M@POEEMAIO@?$AAa?$AAr?$AA?9?$AAE?$AAG@ 0046f6f8     libucrt:lcidtoname_downlevel.obj
 0002:00006708       ??_C@_1M@EFAKDEDL@?$AAz?$AAh?$AA?9?$AAH?$AAK@ 0046f708     libucrt:lcidtoname_downlevel.obj
 0002:00006718       ??_C@_1M@HKKIJHGI@?$AAd?$AAe?$AA?9?$AAA?$AAT@ 0046f718     libucrt:lcidtoname_downlevel.obj
 0002:00006728       ??_C@_1M@KBFBEHJF@?$AAe?$AAn?$AA?9?$AAA?$AAU@ 0046f728     libucrt:lcidtoname_downlevel.obj
 0002:00006738       ??_C@_1M@MNPLFAAH@?$AAe?$AAs?$AA?9?$AAE?$AAS@ 0046f738     libucrt:lcidtoname_downlevel.obj
 0002:00006748       ??_C@_1M@HJOOJFMA@?$AAf?$AAr?$AA?9?$AAC?$AAA@ 0046f748     libucrt:lcidtoname_downlevel.obj
 0002:00006758       ??_C@_1BG@JPOFPNAB@?$AAs?$AAr?$AA?9?$AAS?$AAP?$AA?9?$AAC?$AAy?$AAr?$AAl@ 0046f758     libucrt:lcidtoname_downlevel.obj
 0002:00006774       ??_C@_1M@LNFOCMOB@?$AAs?$AAe?$AA?9?$AAF?$AAI@ 0046f774     libucrt:lcidtoname_downlevel.obj
 0002:00006784       ??_C@_1O@MGJBOAMB@?$AAq?$AAu?$AAz?$AA?9?$AAP?$AAE@ 0046f784     libucrt:lcidtoname_downlevel.obj
 0002:00006794       ??_C@_1M@GJINLBOK@?$AAa?$AAr?$AA?9?$AAL?$AAY@ 0046f794     libucrt:lcidtoname_downlevel.obj
 0002:000067a4       ??_C@_1M@GGMNHJNL@?$AAz?$AAh?$AA?9?$AAS?$AAG@ 0046f7a4     libucrt:lcidtoname_downlevel.obj
 0002:000067b4       ??_C@_1M@HOIKODND@?$AAd?$AAe?$AA?9?$AAL?$AAU@ 0046f7b4     libucrt:lcidtoname_downlevel.obj
 0002:000067c4       ??_C@_1M@DDOCCGFG@?$AAe?$AAn?$AA?9?$AAC?$AAA@ 0046f7c4     libucrt:lcidtoname_downlevel.obj
 0002:000067d4       ??_C@_1M@BNOEMJLF@?$AAe?$AAs?$AA?9?$AAG?$AAT@ 0046f7d4     libucrt:lcidtoname_downlevel.obj
 0002:000067e4       ??_C@_1M@EOGNKEK@?$AAf?$AAr?$AA?9?$AAC?$AAH@ 0046f7e4     libucrt:lcidtoname_downlevel.obj
 0002:000067f4       ??_C@_1M@FLIDJFHL@?$AAh?$AAr?$AA?9?$AAB?$AAA@ 0046f7f4     libucrt:lcidtoname_downlevel.obj
 0002:00006804       ??_C@_1O@FMCELNAJ@?$AAs?$AAm?$AAj?$AA?9?$AAN?$AAO@ 0046f804     libucrt:lcidtoname_downlevel.obj
 0002:00006814       ??_C@_1M@JHGLJMGJ@?$AAa?$AAr?$AA?9?$AAD?$AAZ@ 0046f814     libucrt:lcidtoname_downlevel.obj
 0002:00006824       ??_C@_1M@JKKFDCNP@?$AAz?$AAh?$AA?9?$AAM?$AAO@ 0046f824     libucrt:lcidtoname_downlevel.obj
 0002:00006834       ??_C@_1M@GEEFALPE@?$AAd?$AAe?$AA?9?$AAL?$AAI@ 0046f834     libucrt:lcidtoname_downlevel.obj
 0002:00006844       ??_C@_1M@IGEOFBG@?$AAe?$AAn?$AA?9?$AAN?$AAZ@ 0046f844     libucrt:lcidtoname_downlevel.obj
 0002:00006854       ??_C@_1M@KDBONEHP@?$AAe?$AAs?$AA?9?$AAC?$AAR@ 0046f854     libucrt:lcidtoname_downlevel.obj
 0002:00006864       ??_C@_1M@FHMDOHNN@?$AAf?$AAr?$AA?9?$AAL?$AAU@ 0046f864     libucrt:lcidtoname_downlevel.obj
 0002:00006874       ??_C@_1BG@NFKKMAFG@?$AAb?$AAs?$AA?9?$AAB?$AAA?$AA?9?$AAL?$AAa?$AAt?$AAn@ 0046f874     libucrt:lcidtoname_downlevel.obj
 0002:00006890       ??_C@_1O@IMNBEMCI@?$AAs?$AAm?$AAj?$AA?9?$AAS?$AAE@ 0046f890     libucrt:lcidtoname_downlevel.obj
 0002:000068a0       ??_C@_1M@DHHMBNDP@?$AAa?$AAr?$AA?9?$AAM?$AAA@ 0046f8a0     libucrt:lcidtoname_downlevel.obj
 0002:000068b0       ??_C@_1M@BNBLJCGH@?$AAe?$AAn?$AA?9?$AAI?$AAE@ 0046f8b0     libucrt:lcidtoname_downlevel.obj
 0002:000068c0       ??_C@_1M@GEPAFMDL@?$AAe?$AAs?$AA?9?$AAP?$AAA@ 0046f8c0     libucrt:lcidtoname_downlevel.obj
 0002:000068d0       ??_C@_1M@OJONDMDL@?$AAf?$AAr?$AA?9?$AAM?$AAC@ 0046f8d0     libucrt:lcidtoname_downlevel.obj
 0002:000068e0       ??_C@_1BG@OBCNFJB@?$AAs?$AAr?$AA?9?$AAB?$AAA?$AA?9?$AAL?$AAa?$AAt?$AAn@ 0046f8e0     libucrt:lcidtoname_downlevel.obj
 0002:000068fc       ??_C@_1O@KEMEEGPO@?$AAs?$AAm?$AAa?$AA?9?$AAN?$AAO@ 0046f8fc     libucrt:lcidtoname_downlevel.obj
 0002:0000690c       ??_C@_1M@ELMGFODK@?$AAa?$AAr?$AA?9?$AAT?$AAN@ 0046f90c     libucrt:lcidtoname_downlevel.obj
 0002:0000691c       ??_C@_1M@BHDLHFAF@?$AAe?$AAn?$AA?9?$AAZ?$AAA@ 0046f91c     libucrt:lcidtoname_downlevel.obj
 0002:0000692c       ??_C@_1M@BMGIGLIF@?$AAe?$AAs?$AA?9?$AAD?$AAO@ 0046f92c     libucrt:lcidtoname_downlevel.obj
 0002:0000693c       ??_C@_1BG@CMBHIPBE@?$AAs?$AAr?$AA?9?$AAB?$AAA?$AA?9?$AAC?$AAy?$AAr?$AAl@ 0046f93c     libucrt:lcidtoname_downlevel.obj
 0002:00006958       ??_C@_1O@HEDBLHNP@?$AAs?$AAm?$AAa?$AA?9?$AAS?$AAE@ 0046f958     libucrt:lcidtoname_downlevel.obj
 0002:00006968       ??_C@_1M@DAGCADIM@?$AAa?$AAr?$AA?9?$AAO?$AAM@ 0046f968     libucrt:lcidtoname_downlevel.obj
 0002:00006978       ??_C@_1M@FODLMICG@?$AAe?$AAn?$AA?9?$AAJ?$AAM@ 0046f978     libucrt:lcidtoname_downlevel.obj
 0002:00006988       ??_C@_1M@DNMLCIHB@?$AAe?$AAs?$AA?9?$AAV?$AAE@ 0046f988     libucrt:lcidtoname_downlevel.obj
 0002:00006998       ??_C@_1O@EOKHMKJK@?$AAs?$AAm?$AAs?$AA?9?$AAF?$AAI@ 0046f998     libucrt:lcidtoname_downlevel.obj
 0002:000069a8       ??_C@_1M@CAFJMKOF@?$AAa?$AAr?$AA?9?$AAY?$AAE@ 0046f9a8     libucrt:lcidtoname_downlevel.obj
 0002:000069b8       ??_C@_1M@CBFHIJLI@?$AAe?$AAn?$AA?9?$AAC?$AAB@ 0046f9b8     libucrt:lcidtoname_downlevel.obj
 0002:000069c8       ??_C@_1M@BGNFLDN@?$AAe?$AAs?$AA?9?$AAC?$AAO@ 0046f9c8     libucrt:lcidtoname_downlevel.obj
 0002:000069d8       ??_C@_1O@JMPHMAMC@?$AAs?$AAm?$AAn?$AA?9?$AAF?$AAI@ 0046f9d8     libucrt:lcidtoname_downlevel.obj
 0002:000069e8       ??_C@_1M@JLANABKE@?$AAa?$AAr?$AA?9?$AAS?$AAY@ 0046f9e8     libucrt:lcidtoname_downlevel.obj
 0002:000069f8       ??_C@_1M@HPKGCFGN@?$AAe?$AAn?$AA?9?$AAB?$AAZ@ 0046f9f8     libucrt:lcidtoname_downlevel.obj
 0002:00006a08       ??_C@_1M@OLJCMLGM@?$AAe?$AAs?$AA?9?$AAP?$AAE@ 0046fa08     libucrt:lcidtoname_downlevel.obj
 0002:00006a18       ??_C@_1M@MKKGFKLE@?$AAa?$AAr?$AA?9?$AAJ?$AAO@ 0046fa18     libucrt:lcidtoname_downlevel.obj
 0002:00006a28       ??_C@_1M@EKPGLDNI@?$AAe?$AAn?$AA?9?$AAT?$AAT@ 0046fa28     libucrt:lcidtoname_downlevel.obj
 0002:00006a38       ??_C@_1M@OONGHFHE@?$AAe?$AAs?$AA?9?$AAA?$AAR@ 0046fa38     libucrt:lcidtoname_downlevel.obj
 0002:00006a48       ??_C@_1M@OOJFGBHE@?$AAa?$AAr?$AA?9?$AAL?$AAB@ 0046fa48     libucrt:lcidtoname_downlevel.obj
 0002:00006a58       ??_C@_1M@GCEJHNEG@?$AAe?$AAn?$AA?9?$AAZ?$AAW@ 0046fa58     libucrt:lcidtoname_downlevel.obj
 0002:00006a68       ??_C@_1M@JNOCAHJI@?$AAe?$AAs?$AA?9?$AAE?$AAC@ 0046fa68     libucrt:lcidtoname_downlevel.obj
 0002:00006a78       ??_C@_1M@JEFHPGGB@?$AAa?$AAr?$AA?9?$AAK?$AAW@ 0046fa78     libucrt:lcidtoname_downlevel.obj
 0002:00006a88       ??_C@_1M@MLKIBJOJ@?$AAe?$AAn?$AA?9?$AAP?$AAH@ 0046fa88     libucrt:lcidtoname_downlevel.obj
 0002:00006a98       ??_C@_1M@BDNIPEND@?$AAe?$AAs?$AA?9?$AAC?$AAL@ 0046fa98     libucrt:lcidtoname_downlevel.obj
 0002:00006aa8       ??_C@_1M@MPNMEKBD@?$AAa?$AAr?$AA?9?$AAA?$AAE@ 0046faa8     libucrt:lcidtoname_downlevel.obj
 0002:00006ab8       ??_C@_1M@KBJALCPI@?$AAe?$AAs?$AA?9?$AAU?$AAY@ 0046fab8     libucrt:lcidtoname_downlevel.obj
 0002:00006ac8       ??_C@_1M@LLCCOAGA@?$AAa?$AAr?$AA?9?$AAB?$AAH@ 0046fac8     libucrt:lcidtoname_downlevel.obj
 0002:00006ad8       ??_C@_1M@PBFNCDEL@?$AAe?$AAs?$AA?9?$AAP?$AAY@ 0046fad8     libucrt:lcidtoname_downlevel.obj
 0002:00006ae8       ??_C@_1M@EDGINPNP@?$AAa?$AAr?$AA?9?$AAQ?$AAA@ 0046fae8     libucrt:lcidtoname_downlevel.obj
 0002:00006af8       ??_C@_1M@MKDBIIJI@?$AAe?$AAs?$AA?9?$AAB?$AAO@ 0046faf8     libucrt:lcidtoname_downlevel.obj
 0002:00006b08       ??_C@_1M@CPKKEBLD@?$AAe?$AAs?$AA?9?$AAS?$AAV@ 0046fb08     libucrt:lcidtoname_downlevel.obj
 0002:00006b18       ??_C@_1M@NDBGMMJL@?$AAe?$AAs?$AA?9?$AAH?$AAN@ 0046fb18     libucrt:lcidtoname_downlevel.obj
 0002:00006b28       ??_C@_1M@JIJIBHDP@?$AAe?$AAs?$AA?9?$AAN?$AAI@ 0046fb28     libucrt:lcidtoname_downlevel.obj
 0002:00006b38       ??_C@_1M@CGFMKEEK@?$AAe?$AAs?$AA?9?$AAP?$AAR@ 0046fb38     libucrt:lcidtoname_downlevel.obj
 0002:00006b48       ??_C@_1O@ICJHKIIK@?$AAz?$AAh?$AA?9?$AAC?$AAH?$AAT@ 0046fb48     libucrt:lcidtoname_downlevel.obj
 0002:00006b58       ??_C@_15CLNEJCE@?$AAs?$AAr@ 0046fb58     libucrt:lcidtoname_downlevel.obj
 0002:000073ec       ??_C@_1M@KAHEKEIG@?$AAa?$AAf?$AA?9?$AAz?$AAa@ 004703ec     libucrt:lcidtoname_downlevel.obj
 0002:000073fc       ??_C@_1M@GIECOABL@?$AAa?$AAr?$AA?9?$AAa?$AAe@ 004703fc     libucrt:lcidtoname_downlevel.obj
 0002:0000740c       ??_C@_1M@BMLMEKGI@?$AAa?$AAr?$AA?9?$AAb?$AAh@ 0047040c     libucrt:lcidtoname_downlevel.obj
 0002:0000741c       ??_C@_1M@DAPFDGGB@?$AAa?$AAr?$AA?9?$AAd?$AAz@ 0047041c     libucrt:lcidtoname_downlevel.obj
 0002:0000742c       ??_C@_1M@FJNKGKIG@?$AAa?$AAr?$AA?9?$AAe?$AAg@ 0047042c     libucrt:lcidtoname_downlevel.obj
 0002:0000743c       ??_C@_1M@FLGKKCLO@?$AAa?$AAr?$AA?9?$AAi?$AAq@ 0047043c     libucrt:lcidtoname_downlevel.obj
 0002:0000744c       ??_C@_1M@GNDIPALM@?$AAa?$AAr?$AA?9?$AAj?$AAo@ 0047044c     libucrt:lcidtoname_downlevel.obj
 0002:0000745c       ??_C@_1M@DDMJFMGJ@?$AAa?$AAr?$AA?9?$AAk?$AAw@ 0047045c     libucrt:lcidtoname_downlevel.obj
 0002:0000746c       ??_C@_1M@EJALMLHM@?$AAa?$AAr?$AA?9?$AAl?$AAb@ 0047046c     libucrt:lcidtoname_downlevel.obj
 0002:0000747c       ??_C@_1M@MOBDBLOC@?$AAa?$AAr?$AA?9?$AAl?$AAy@ 0047047c     libucrt:lcidtoname_downlevel.obj
 0002:0000748c       ??_C@_1M@JAOCLHDH@?$AAa?$AAr?$AA?9?$AAm?$AAa@ 0047048c     libucrt:lcidtoname_downlevel.obj
 0002:0000749c       ??_C@_1M@JHPMKJIE@?$AAa?$AAr?$AA?9?$AAo?$AAm@ 0047049c     libucrt:lcidtoname_downlevel.obj
 0002:000074ac       ??_C@_1M@OEPGHFNH@?$AAa?$AAr?$AA?9?$AAq?$AAa@ 004704ac     libucrt:lcidtoname_downlevel.obj
 0002:000074bc       ??_C@_1M@KJDONENM@?$AAa?$AAr?$AA?9?$AAs?$AAa@ 004704bc     libucrt:lcidtoname_downlevel.obj
 0002:000074cc       ??_C@_1M@DMJDKLKM@?$AAa?$AAr?$AA?9?$AAs?$AAy@ 004704cc     libucrt:lcidtoname_downlevel.obj
 0002:000074dc       ??_C@_1M@OMFIPEDC@?$AAa?$AAr?$AA?9?$AAt?$AAn@ 004704dc     libucrt:lcidtoname_downlevel.obj
 0002:000074ec       ??_C@_1M@IHMHGAON@?$AAa?$AAr?$AA?9?$AAy?$AAe@ 004704ec     libucrt:lcidtoname_downlevel.obj
 0002:000074fc       ??_C@_1BG@KDCPGJGB@?$AAa?$AAz?$AA?9?$AAa?$AAz?$AA?9?$AAc?$AAy?$AAr?$AAl@ 004704fc     libucrt:lcidtoname_downlevel.obj
 0002:00007518       ??_C@_1BG@IBCKDDOE@?$AAa?$AAz?$AA?9?$AAa?$AAz?$AA?9?$AAl?$AAa?$AAt?$AAn@ 00470518     libucrt:lcidtoname_downlevel.obj
 0002:00007534       ??_C@_1M@EGPFDCPD@?$AAb?$AAe?$AA?9?$AAb?$AAy@ 00470534     libucrt:lcidtoname_downlevel.obj
 0002:00007544       ??_C@_1M@PCMGMCGC@?$AAb?$AAg?$AA?9?$AAb?$AAg@ 00470544     libucrt:lcidtoname_downlevel.obj
 0002:00007554       ??_C@_1M@BJBMFGOB@?$AAb?$AAn?$AA?9?$AAi?$AAn@ 00470554     libucrt:lcidtoname_downlevel.obj
 0002:00007564       ??_C@_1BG@EAKMMACD@?$AAb?$AAs?$AA?9?$AAb?$AAa?$AA?9?$AAl?$AAa?$AAt?$AAn@ 00470564     libucrt:lcidtoname_downlevel.obj
 0002:00007580       ??_C@_1M@KGADAODK@?$AAc?$AAa?$AA?9?$AAe?$AAs@ 00470580     libucrt:lcidtoname_downlevel.obj
 0002:00007590       ??_C@_1M@COAJPDHI@?$AAc?$AAs?$AA?9?$AAc?$AAz@ 00470590     libucrt:lcidtoname_downlevel.obj
 0002:000075a0       ??_C@_1M@DHBHFONH@?$AAc?$AAy?$AA?9?$AAg?$AAb@ 004705a0     libucrt:lcidtoname_downlevel.obj
 0002:000075b0       ??_C@_1M@IMGKELGA@?$AAd?$AAa?$AA?9?$AAd?$AAk@ 004705b0     libucrt:lcidtoname_downlevel.obj
 0002:000075c0       ??_C@_1M@NNDGDNGA@?$AAd?$AAe?$AA?9?$AAa?$AAt@ 004705c0     libucrt:lcidtoname_downlevel.obj
 0002:000075d0       ??_C@_1M@IKDBHEEM@?$AAd?$AAe?$AA?9?$AAc?$AAh@ 004705d0     libucrt:lcidtoname_downlevel.obj
 0002:000075e0       ??_C@_1M@GFFOJMCJ@?$AAd?$AAe?$AA?9?$AAd?$AAe@ 004705e0     libucrt:lcidtoname_downlevel.obj
 0002:000075f0       ??_C@_1M@MDNLKBPM@?$AAd?$AAe?$AA?9?$AAl?$AAi@ 004705f0     libucrt:lcidtoname_downlevel.obj
 0002:00007600       ??_C@_1M@NJBEEJNL@?$AAd?$AAe?$AA?9?$AAl?$AAu@ 00470600     libucrt:lcidtoname_downlevel.obj
 0002:00007610       ??_C@_1O@GNNELBAP@?$AAd?$AAi?$AAv?$AA?9?$AAm?$AAv@ 00470610     libucrt:lcidtoname_downlevel.obj
 0002:00007620       ??_C@_1M@EJLEOGAE@?$AAe?$AAl?$AA?9?$AAg?$AAr@ 00470620     libucrt:lcidtoname_downlevel.obj
 0002:00007630       ??_C@_1M@GMPONJN@?$AAe?$AAn?$AA?9?$AAa?$AAu@ 00470630     libucrt:lcidtoname_downlevel.obj
 0002:00007640       ??_C@_1M@NIDIIPGF@?$AAe?$AAn?$AA?9?$AAb?$AAz@ 00470640     libucrt:lcidtoname_downlevel.obj
 0002:00007650       ??_C@_1M@JEHMIMFO@?$AAe?$AAn?$AA?9?$AAc?$AAa@ 00470650     libucrt:lcidtoname_downlevel.obj
 0002:00007660       ??_C@_1M@IGMJCDLA@?$AAe?$AAn?$AA?9?$AAc?$AAb@ 00470660     libucrt:lcidtoname_downlevel.obj
 0002:00007670       ??_C@_1M@BNFIGBKG@?$AAe?$AAn?$AA?9?$AAg?$AAb@ 00470670     libucrt:lcidtoname_downlevel.obj
 0002:00007680       ??_C@_1M@LKIFDIGP@?$AAe?$AAn?$AA?9?$AAi?$AAe@ 00470680     libucrt:lcidtoname_downlevel.obj
 0002:00007690       ??_C@_1M@PJKFGCCO@?$AAe?$AAn?$AA?9?$AAj?$AAm@ 00470690     libucrt:lcidtoname_downlevel.obj
 0002:000076a0       ??_C@_1M@KPPKEPBO@?$AAe?$AAn?$AA?9?$AAn?$AAz@ 004706a0     libucrt:lcidtoname_downlevel.obj
 0002:000076b0       ??_C@_1M@GMDGLDOB@?$AAe?$AAn?$AA?9?$AAp?$AAh@ 004706b0     libucrt:lcidtoname_downlevel.obj
 0002:000076c0       ??_C@_1M@ONGIBJNA@?$AAe?$AAn?$AA?9?$AAt?$AAt@ 004706c0     libucrt:lcidtoname_downlevel.obj
 0002:000076d0       ??_C@_1M@LLODPCMM@?$AAe?$AAn?$AA?9?$AAu?$AAs@ 004706d0     libucrt:lcidtoname_downlevel.obj
 0002:000076e0       ??_C@_1M@LAKFNPAN@?$AAe?$AAn?$AA?9?$AAz?$AAa@ 004706e0     libucrt:lcidtoname_downlevel.obj
 0002:000076f0       ??_C@_1M@MFNHNHEO@?$AAe?$AAn?$AA?9?$AAz?$AAw@ 004706f0     libucrt:lcidtoname_downlevel.obj
 0002:00007700       ??_C@_1M@EJEINPHM@?$AAe?$AAs?$AA?9?$AAa?$AAr@ 00470700     libucrt:lcidtoname_downlevel.obj
 0002:00007710       ??_C@_1M@GNKPCCJA@?$AAe?$AAs?$AA?9?$AAb?$AAo@ 00470710     libucrt:lcidtoname_downlevel.obj
 0002:00007720       ??_C@_1M@LEEGFONL@?$AAe?$AAs?$AA?9?$AAc?$AAl@ 00470720     libucrt:lcidtoname_downlevel.obj
 0002:00007730       ??_C@_1M@KGPDPBDF@?$AAe?$AAs?$AA?9?$AAc?$AAo@ 00470730     libucrt:lcidtoname_downlevel.obj
 0002:00007740       ??_C@_1M@EIAHOHH@?$AAe?$AAs?$AA?9?$AAc?$AAr@ 00470740     libucrt:lcidtoname_downlevel.obj
 0002:00007750       ??_C@_1M@LLPGMBIN@?$AAe?$AAs?$AA?9?$AAd?$AAo@ 00470750     libucrt:lcidtoname_downlevel.obj
 0002:00007760       ??_C@_1M@DKHMKNJA@?$AAe?$AAs?$AA?9?$AAe?$AAc@ 00470760     libucrt:lcidtoname_downlevel.obj
 0002:00007770       ??_C@_1M@GKGFPKAP@?$AAe?$AAs?$AA?9?$AAe?$AAs@ 00470770     libucrt:lcidtoname_downlevel.obj
 0002:00007780       ??_C@_1M@LKHKGDLN@?$AAe?$AAs?$AA?9?$AAg?$AAt@ 00470780     libucrt:lcidtoname_downlevel.obj
 0002:00007790       ??_C@_1M@HEIIGGJD@?$AAe?$AAs?$AA?9?$AAh?$AAn@ 00470790     libucrt:lcidtoname_downlevel.obj
 0002:000077a0       ??_C@_1M@FBDHPPGD@?$AAe?$AAs?$AA?9?$AAm?$AAx@ 004707a0     libucrt:lcidtoname_downlevel.obj
 0002:000077b0       ??_C@_1M@DPAGLNDH@?$AAe?$AAs?$AA?9?$AAn?$AAi@ 004707b0     libucrt:lcidtoname_downlevel.obj
 0002:000077c0       ??_C@_1M@MDGOPGDD@?$AAe?$AAs?$AA?9?$AAp?$AAa@ 004707c0     libucrt:lcidtoname_downlevel.obj
 0002:000077d0       ??_C@_1M@EMAMGBGE@?$AAe?$AAs?$AA?9?$AAp?$AAe@ 004707d0     libucrt:lcidtoname_downlevel.obj
 0002:000077e0       ??_C@_1M@IBMCAOEC@?$AAe?$AAs?$AA?9?$AAp?$AAr@ 004707e0     libucrt:lcidtoname_downlevel.obj
 0002:000077f0       ??_C@_1M@FGMDIJED@?$AAe?$AAs?$AA?9?$AAp?$AAy@ 004707f0     libucrt:lcidtoname_downlevel.obj
 0002:00007800       ??_C@_1M@IIDEOLLL@?$AAe?$AAs?$AA?9?$AAs?$AAv@ 00470800     libucrt:lcidtoname_downlevel.obj
 0002:00007810       ??_C@_1M@GAOBIPA@?$AAe?$AAs?$AA?9?$AAu?$AAy@ 00470810     libucrt:lcidtoname_downlevel.obj
 0002:00007820       ??_C@_1M@JKFFICHJ@?$AAe?$AAs?$AA?9?$AAv?$AAe@ 00470820     libucrt:lcidtoname_downlevel.obj
 0002:00007830       ??_C@_1M@PNMLOJDF@?$AAe?$AAt?$AA?9?$AAe?$AAe@ 00470830     libucrt:lcidtoname_downlevel.obj
 0002:00007840       ??_C@_1M@GHHLIKEI@?$AAe?$AAu?$AA?9?$AAe?$AAs@ 00470840     libucrt:lcidtoname_downlevel.obj
 0002:00007850       ??_C@_1M@PBNONODE@?$AAf?$AAa?$AA?9?$AAi?$AAr@ 00470850     libucrt:lcidtoname_downlevel.obj
 0002:00007860       ??_C@_1M@JEEHPMIL@?$AAf?$AAi?$AA?9?$AAf?$AAi@ 00470860     libucrt:lcidtoname_downlevel.obj
 0002:00007870       ??_C@_1M@LMDCNDBA@?$AAf?$AAo?$AA?9?$AAf?$AAo@ 00470870     libucrt:lcidtoname_downlevel.obj
 0002:00007880       ??_C@_1M@JKEOHLDK@?$AAf?$AAr?$AA?9?$AAb?$AAe@ 00470880     libucrt:lcidtoname_downlevel.obj
 0002:00007890       ??_C@_1M@NOHADPMI@?$AAf?$AAr?$AA?9?$AAc?$AAa@ 00470890     libucrt:lcidtoname_downlevel.obj
 0002:000078a0       ??_C@_1M@KDHIHAEC@?$AAf?$AAr?$AA?9?$AAc?$AAh@ 004708a0     libucrt:lcidtoname_downlevel.obj
 0002:000078b0       ??_C@_1M@MMBBFGAK@?$AAf?$AAr?$AA?9?$AAf?$AAr@ 004708b0     libucrt:lcidtoname_downlevel.obj
 0002:000078c0       ??_C@_1M@PAFNENNF@?$AAf?$AAr?$AA?9?$AAl?$AAu@ 004708c0     libucrt:lcidtoname_downlevel.obj
 0002:000078d0       ??_C@_1M@EOHDJGDD@?$AAf?$AAr?$AA?9?$AAm?$AAc@ 004708d0     libucrt:lcidtoname_downlevel.obj
 0002:000078e0       ??_C@_1M@FAPLLOPF@?$AAg?$AAl?$AA?9?$AAe?$AAs@ 004708e0     libucrt:lcidtoname_downlevel.obj
 0002:000078f0       ??_C@_1M@FOPBFLOO@?$AAg?$AAu?$AA?9?$AAi?$AAn@ 004708f0     libucrt:lcidtoname_downlevel.obj
 0002:00007900       ??_C@_1M@KBMCINPM@?$AAh?$AAe?$AA?9?$AAi?$AAl@ 00470900     libucrt:lcidtoname_downlevel.obj
 0002:00007910       ??_C@_1M@BBPHKFPJ@?$AAh?$AAi?$AA?9?$AAi?$AAn@ 00470910     libucrt:lcidtoname_downlevel.obj
 0002:00007920       ??_C@_1M@PMBNDPHD@?$AAh?$AAr?$AA?9?$AAb?$AAa@ 00470920     libucrt:lcidtoname_downlevel.obj
 0002:00007930       ??_C@_1M@BPCKOEGE@?$AAh?$AAr?$AA?9?$AAh?$AAr@ 00470930     libucrt:lcidtoname_downlevel.obj
 0002:00007940       ??_C@_1M@GACBMHKE@?$AAh?$AAu?$AA?9?$AAh?$AAu@ 00470940     libucrt:lcidtoname_downlevel.obj
 0002:00007950       ??_C@_1M@MILPAJJC@?$AAh?$AAy?$AA?9?$AAa?$AAm@ 00470950     libucrt:lcidtoname_downlevel.obj
 0002:00007960       ??_C@_1M@BABBICEC@?$AAi?$AAd?$AA?9?$AAi?$AAd@ 00470960     libucrt:lcidtoname_downlevel.obj
 0002:00007970       ??_C@_1M@BIKNHHPF@?$AAi?$AAs?$AA?9?$AAi?$AAs@ 00470970     libucrt:lcidtoname_downlevel.obj
 0002:00007980       ??_C@_1M@NMPCJPHE@?$AAi?$AAt?$AA?9?$AAc?$AAh@ 00470980     libucrt:lcidtoname_downlevel.obj
 0002:00007990       ??_C@_1M@GHKGFEDF@?$AAi?$AAt?$AA?9?$AAi?$AAt@ 00470990     libucrt:lcidtoname_downlevel.obj
 0002:000079a0       ??_C@_1M@NIEJCJJA@?$AAj?$AAa?$AA?9?$AAj?$AAp@ 004709a0     libucrt:lcidtoname_downlevel.obj
 0002:000079b0       ??_C@_1M@JILFNBIM@?$AAk?$AAa?$AA?9?$AAg?$AAe@ 004709b0     libucrt:lcidtoname_downlevel.obj
 0002:000079c0       ??_C@_1M@PACPMGPH@?$AAk?$AAk?$AA?9?$AAk?$AAz@ 004709c0     libucrt:lcidtoname_downlevel.obj
 0002:000079d0       ??_C@_1M@IELFGMHA@?$AAk?$AAn?$AA?9?$AAi?$AAn@ 004709d0     libucrt:lcidtoname_downlevel.obj
 0002:000079e0       ??_C@_1O@IBBJHCH@?$AAk?$AAo?$AAk?$AA?9?$AAi?$AAn@ 004709e0     libucrt:lcidtoname_downlevel.obj
 0002:000079f0       ??_C@_1M@DMHAEOGC@?$AAk?$AAo?$AA?9?$AAk?$AAr@ 004709f0     libucrt:lcidtoname_downlevel.obj
 0002:00007a00       ??_C@_1M@HBAHBIGA@?$AAk?$AAy?$AA?9?$AAk?$AAg@ 00470a00     libucrt:lcidtoname_downlevel.obj
 0002:00007a10       ??_C@_1M@KPMILCJG@?$AAl?$AAt?$AA?9?$AAl?$AAt@ 00470a10     libucrt:lcidtoname_downlevel.obj
 0002:00007a20       ??_C@_1M@BDEKKCA@?$AAl?$AAv?$AA?9?$AAl?$AAv@ 00470a20     libucrt:lcidtoname_downlevel.obj
 0002:00007a30       ??_C@_1M@ELCKCCJJ@?$AAm?$AAi?$AA?9?$AAn?$AAz@ 00470a30     libucrt:lcidtoname_downlevel.obj
 0002:00007a40       ??_C@_1M@CBOOLAPA@?$AAm?$AAk?$AA?9?$AAm?$AAk@ 00470a40     libucrt:lcidtoname_downlevel.obj
 0002:00007a50       ??_C@_1M@GPHNBJKN@?$AAm?$AAl?$AA?9?$AAi?$AAn@ 00470a50     libucrt:lcidtoname_downlevel.obj
 0002:00007a60       ??_C@_1M@PABJILIG@?$AAm?$AAn?$AA?9?$AAm?$AAn@ 00470a60     libucrt:lcidtoname_downlevel.obj
 0002:00007a70       ??_C@_1M@FGBKKIPG@?$AAm?$AAr?$AA?9?$AAi?$AAn@ 00470a70     libucrt:lcidtoname_downlevel.obj
 0002:00007a80       ??_C@_1M@NDBPDDAL@?$AAm?$AAs?$AA?9?$AAb?$AAn@ 00470a80     libucrt:lcidtoname_downlevel.obj
 0002:00007a90       ??_C@_1M@OPIHOOPI@?$AAm?$AAs?$AA?9?$AAm?$AAy@ 00470a90     libucrt:lcidtoname_downlevel.obj
 0002:00007aa0       ??_C@_1M@PPDBCNFM@?$AAm?$AAt?$AA?9?$AAm?$AAt@ 00470aa0     libucrt:lcidtoname_downlevel.obj
 0002:00007ab0       ??_C@_1M@KDJDKMDD@?$AAn?$AAb?$AA?9?$AAn?$AAo@ 00470ab0     libucrt:lcidtoname_downlevel.obj
 0002:00007ac0       ??_C@_1M@KFCFLMJP@?$AAn?$AAl?$AA?9?$AAb?$AAe@ 00470ac0     libucrt:lcidtoname_downlevel.obj
 0002:00007ad0       ??_C@_1M@KPOPDDGO@?$AAn?$AAl?$AA?9?$AAn?$AAl@ 00470ad0     libucrt:lcidtoname_downlevel.obj
 0002:00007ae0       ??_C@_1M@LJKPEMLN@?$AAn?$AAn?$AA?9?$AAn?$AAo@ 00470ae0     libucrt:lcidtoname_downlevel.obj
 0002:00007af0       ??_C@_1M@BDGHHBFL@?$AAn?$AAs?$AA?9?$AAz?$AAa@ 00470af0     libucrt:lcidtoname_downlevel.obj
 0002:00007b00       ??_C@_1M@IDEHOAP@?$AAp?$AAa?$AA?9?$AAi?$AAn@ 00470b00     libucrt:lcidtoname_downlevel.obj
 0002:00007b10       ??_C@_1M@HDBKGOGH@?$AAp?$AAl?$AA?9?$AAp?$AAl@ 00470b10     libucrt:lcidtoname_downlevel.obj
 0002:00007b20       ??_C@_1M@LJLLCMEH@?$AAp?$AAt?$AA?9?$AAb?$AAr@ 00470b20     libucrt:lcidtoname_downlevel.obj
 0002:00007b30       ??_C@_1M@NCMONAAL@?$AAp?$AAt?$AA?9?$AAp?$AAt@ 00470b30     libucrt:lcidtoname_downlevel.obj
 0002:00007b40       ??_C@_1O@EAKMAJDN@?$AAq?$AAu?$AAz?$AA?9?$AAb?$AAo@ 00470b40     libucrt:lcidtoname_downlevel.obj
 0002:00007b50       ??_C@_1O@BHHPIGDN@?$AAq?$AAu?$AAz?$AA?9?$AAe?$AAc@ 00470b50     libucrt:lcidtoname_downlevel.obj
 0002:00007b60       ??_C@_1O@GBAPEKMJ@?$AAq?$AAu?$AAz?$AA?9?$AAp?$AAe@ 00470b60     libucrt:lcidtoname_downlevel.obj
 0002:00007b70       ??_C@_1M@CLGLEFBO@?$AAr?$AAo?$AA?9?$AAr?$AAo@ 00470b70     libucrt:lcidtoname_downlevel.obj
 0002:00007b80       ??_C@_1M@CEEDODME@?$AAr?$AAu?$AA?9?$AAr?$AAu@ 00470b80     libucrt:lcidtoname_downlevel.obj
 0002:00007b90       ??_C@_1M@HPKKKMPP@?$AAs?$AAa?$AA?9?$AAi?$AAn@ 00470b90     libucrt:lcidtoname_downlevel.obj
 0002:00007ba0       ??_C@_1M@BKMAIGOJ@?$AAs?$AAe?$AA?9?$AAf?$AAi@ 00470ba0     libucrt:lcidtoname_downlevel.obj
 0002:00007bb0       ??_C@_1M@NDPIFLFI@?$AAs?$AAe?$AA?9?$AAn?$AAo@ 00470bb0     libucrt:lcidtoname_downlevel.obj
 0002:00007bc0       ??_C@_1M@DANKKHJ@?$AAs?$AAe?$AA?9?$AAs?$AAe@ 00470bc0     libucrt:lcidtoname_downlevel.obj
 0002:00007bd0       ??_C@_1M@PNBLONPJ@?$AAs?$AAk?$AA?9?$AAs?$AAk@ 00470bd0     libucrt:lcidtoname_downlevel.obj
 0002:00007be0       ??_C@_1M@LFMODOAL@?$AAs?$AAl?$AA?9?$AAs?$AAi@ 00470be0     libucrt:lcidtoname_downlevel.obj
 0002:00007bf0       ??_C@_1O@DFKOMPG@?$AAs?$AAm?$AAa?$AA?9?$AAn?$AAo@ 00470bf0     libucrt:lcidtoname_downlevel.obj
 0002:00007c00       ??_C@_1O@NDKPBNNH@?$AAs?$AAm?$AAa?$AA?9?$AAs?$AAe@ 00470c00     libucrt:lcidtoname_downlevel.obj
 0002:00007c10       ??_C@_1O@PLLKBHAB@?$AAs?$AAm?$AAj?$AA?9?$AAn?$AAo@ 00470c10     libucrt:lcidtoname_downlevel.obj
 0002:00007c20       ??_C@_1O@CLEPOGCA@?$AAs?$AAm?$AAj?$AA?9?$AAs?$AAe@ 00470c20     libucrt:lcidtoname_downlevel.obj
 0002:00007c30       ??_C@_1O@DLGJGKMK@?$AAs?$AAm?$AAn?$AA?9?$AAf?$AAi@ 00470c30     libucrt:lcidtoname_downlevel.obj
 0002:00007c40       ??_C@_1O@OJDJGAJC@?$AAs?$AAm?$AAs?$AA?9?$AAf?$AAi@ 00470c40     libucrt:lcidtoname_downlevel.obj
 0002:00007c50       ??_C@_1M@BOFOGHPB@?$AAs?$AAq?$AA?9?$AAa?$AAl@ 00470c50     libucrt:lcidtoname_downlevel.obj
 0002:00007c60       ??_C@_1BG@LJBBIPGB@?$AAs?$AAr?$AA?9?$AAb?$AAa?$AA?9?$AAc?$AAy?$AAr?$AAl@ 00470c60     libucrt:lcidtoname_downlevel.obj
 0002:00007c7c       ??_C@_1BG@JLBENFOE@?$AAs?$AAr?$AA?9?$AAb?$AAa?$AA?9?$AAl?$AAa?$AAt?$AAn@ 00470c7c     libucrt:lcidtoname_downlevel.obj
 0002:00007c98       ??_C@_1BG@KODPNHE@?$AAs?$AAr?$AA?9?$AAs?$AAp?$AA?9?$AAc?$AAy?$AAr?$AAl@ 00470c98     libucrt:lcidtoname_downlevel.obj
 0002:00007cb4       ??_C@_1BG@CIOGKHPB@?$AAs?$AAr?$AA?9?$AAs?$AAp?$AA?9?$AAl?$AAa?$AAt?$AAn@ 00470cb4     libucrt:lcidtoname_downlevel.obj
 0002:00007cd0       ??_C@_1M@NGFJLMAC@?$AAs?$AAv?$AA?9?$AAf?$AAi@ 00470cd0     libucrt:lcidtoname_downlevel.obj
 0002:00007ce0       ??_C@_1M@MPJEJAJC@?$AAs?$AAv?$AA?9?$AAs?$AAe@ 00470ce0     libucrt:lcidtoname_downlevel.obj
 0002:00007cf0       ??_C@_1M@MPNDHLFK@?$AAs?$AAw?$AA?9?$AAk?$AAe@ 00470cf0     libucrt:lcidtoname_downlevel.obj
 0002:00007d00       ??_C@_1O@KOHBJJI@?$AAs?$AAy?$AAr?$AA?9?$AAs?$AAy@ 00470d00     libucrt:lcidtoname_downlevel.obj
 0002:00007d10       ??_C@_1M@LDCEFHA@?$AAt?$AAa?$AA?9?$AAi?$AAn@ 00470d10     libucrt:lcidtoname_downlevel.obj
 0002:00007d20       ??_C@_1M@CNJOFAK@?$AAt?$AAe?$AA?9?$AAi?$AAn@ 00470d20     libucrt:lcidtoname_downlevel.obj
 0002:00007d30       ??_C@_1M@GNAECACD@?$AAt?$AAh?$AA?9?$AAt?$AAh@ 00470d30     libucrt:lcidtoname_downlevel.obj
 0002:00007d40       ??_C@_1M@CHBIHOJO@?$AAt?$AAn?$AA?9?$AAz?$AAa@ 00470d40     libucrt:lcidtoname_downlevel.obj
 0002:00007d50       ??_C@_1M@GCCMIGPJ@?$AAt?$AAr?$AA?9?$AAt?$AAr@ 00470d50     libucrt:lcidtoname_downlevel.obj
 0002:00007d60       ??_C@_1M@CELMCNBK@?$AAt?$AAt?$AA?9?$AAr?$AAu@ 00470d60     libucrt:lcidtoname_downlevel.obj
 0002:00007d70       ??_C@_1M@KLMCELGA@?$AAu?$AAk?$AA?9?$AAu?$AAa@ 00470d70     libucrt:lcidtoname_downlevel.obj
 0002:00007d80       ??_C@_1M@EPAJJAJF@?$AAu?$AAr?$AA?9?$AAp?$AAk@ 00470d80     libucrt:lcidtoname_downlevel.obj
 0002:00007d90       ??_C@_1BG@GEGPMCDJ@?$AAu?$AAz?$AA?9?$AAu?$AAz?$AA?9?$AAc?$AAy?$AAr?$AAl@ 00470d90     libucrt:lcidtoname_downlevel.obj
 0002:00007dac       ??_C@_1BG@EGGKJILM@?$AAu?$AAz?$AA?9?$AAu?$AAz?$AA?9?$AAl?$AAa?$AAt?$AAn@ 00470dac     libucrt:lcidtoname_downlevel.obj
 0002:00007dc8       ??_C@_1M@GFOCLFF@?$AAv?$AAi?$AA?9?$AAv?$AAn@ 00470dc8     libucrt:lcidtoname_downlevel.obj
 0002:00007dd8       ??_C@_1M@CPAMEDFI@?$AAx?$AAh?$AA?9?$AAz?$AAa@ 00470dd8     libucrt:lcidtoname_downlevel.obj
 0002:00007de8       ??_C@_1O@EBKIFIGN@?$AAz?$AAh?$AA?9?$AAc?$AAh?$AAs@ 00470de8     libucrt:lcidtoname_downlevel.obj
 0002:00007df8       ??_C@_1O@NMHPGANE@?$AAz?$AAh?$AA?9?$AAc?$AAh?$AAt@ 00470df8     libucrt:lcidtoname_downlevel.obj
 0002:00007e08       ??_C@_1M@LPINJOMC@?$AAz?$AAh?$AA?9?$AAc?$AAn@ 00470e08     libucrt:lcidtoname_downlevel.obj
 0002:00007e18       ??_C@_1M@OCJEJODD@?$AAz?$AAh?$AA?9?$AAh?$AAk@ 00470e18     libucrt:lcidtoname_downlevel.obj
