	.file	"main.c"
	.text
.Ltext0:
	.file 1 "/home/boricj/Documents/ghidra-delinker-extension/src/test/resources/ascii-table/src/main.c"
	.type	sys_getpid, @function
sys_getpid:
.LFB36:
	.file 2 "/home/boricj/Documents/linux/tools/include/nolibc/sys.h"
	.loc 2 485 1 view -0
	.cfi_startproc
	.loc 2 486 2 view .LVU1
.LBB2:
	.loc 2 486 9 view .LVU2
	.loc 2 486 9 view .LVU3
	movl	$20, %eax
	.loc 2 486 9 view .LVU4
#APP
# 486 "/home/boricj/Documents/linux/tools/include/nolibc/sys.h" 1
	int $0x80

# 0 "" 2
.LVL0:
	.loc 2 486 9 view .LVU5
#NO_APP
.LBE2:
	.loc 2 487 1 is_stmt 0 view .LVU6
	ret
	.cfi_endproc
.LFE36:
	.size	sys_getpid, .-sys_getpid
	.type	sys_kill, @function
sys_kill:
.LVL1:
.LFB49:
	.loc 2 622 1 is_stmt 1 view -0
	.cfi_startproc
	.loc 2 622 1 is_stmt 0 view .LVU8
	pushl	%ebx
	.cfi_def_cfa_offset 8
	.cfi_offset 3, -8
	movl	%eax, %ebx
	movl	%edx, %ecx
	.loc 2 623 2 is_stmt 1 view .LVU9
.LBB3:
	.loc 2 623 9 view .LVU10
	.loc 2 623 9 view .LVU11
	movl	$37, %eax
.LVL2:
	.loc 2 623 9 view .LVU12
	.loc 2 623 9 view .LVU13
	.loc 2 623 9 view .LVU14
#APP
# 623 "/home/boricj/Documents/linux/tools/include/nolibc/sys.h" 1
	int $0x80

# 0 "" 2
.LVL3:
	.loc 2 623 9 view .LVU15
#NO_APP
.LBE3:
	.loc 2 624 1 is_stmt 0 view .LVU16
	popl	%ebx
	.cfi_restore 3
	.cfi_def_cfa_offset 4
.LVL4:
	.loc 2 624 1 view .LVU17
	ret
	.cfi_endproc
.LFE49:
	.size	sys_kill, .-sys_kill
	.type	sys_write, @function
sys_write:
.LVL5:
.LFB101:
	.loc 2 1388 1 is_stmt 1 view -0
	.cfi_startproc
	.loc 2 1388 1 is_stmt 0 view .LVU19
	pushl	%esi
	.cfi_def_cfa_offset 8
	.cfi_offset 6, -8
	pushl	%ebx
	.cfi_def_cfa_offset 12
	.cfi_offset 3, -12
	movl	%eax, %ebx
	movl	%edx, %esi
	movl	%ecx, %edx
.LVL6:
	.loc 2 1389 2 is_stmt 1 view .LVU20
.LBB4:
	.loc 2 1389 9 view .LVU21
	.loc 2 1389 9 view .LVU22
	movl	$4, %eax
.LVL7:
	.loc 2 1389 9 view .LVU23
	.loc 2 1389 9 view .LVU24
	movl	%esi, %ecx
.LVL8:
	.loc 2 1389 9 view .LVU25
	.loc 2 1389 9 view .LVU26
#APP
# 1389 "/home/boricj/Documents/linux/tools/include/nolibc/sys.h" 1
	int $0x80

# 0 "" 2
.LVL9:
	.loc 2 1389 9 view .LVU27
#NO_APP
.LBE4:
	.loc 2 1390 1 is_stmt 0 view .LVU28
	popl	%ebx
	.cfi_restore 3
	.cfi_def_cfa_offset 8
.LVL10:
	.loc 2 1390 1 view .LVU29
	popl	%esi
	.cfi_restore 6
	.cfi_def_cfa_offset 4
.LVL11:
	.loc 2 1390 1 view .LVU30
	ret
	.cfi_endproc
.LFE101:
	.size	sys_write, .-sys_write
	.type	write, @function
write:
.LVL12:
.LFB102:
	.loc 2 1394 1 is_stmt 1 view -0
	.cfi_startproc
	.loc 2 1395 2 view .LVU32
	.loc 2 1395 16 is_stmt 0 view .LVU33
	call	sys_write
.LVL13:
	.loc 2 1397 2 is_stmt 1 view .LVU34
	.loc 2 1397 5 is_stmt 0 view .LVU35
	testl	%eax, %eax
	js	.L8
.LVL14:
.L6:
	.loc 2 1402 1 view .LVU36
	ret
.LVL15:
.L8:
	.loc 2 1398 3 is_stmt 1 view .LVU37
	.loc 2 1398 3 view .LVU38
	negl	%eax
.LVL16:
	.loc 2 1398 3 is_stmt 0 view .LVU39
	movl	%eax, errno
	.loc 2 1398 3 is_stmt 1 view .LVU40
	.loc 2 1399 3 view .LVU41
.LVL17:
	.loc 2 1399 7 is_stmt 0 view .LVU42
	movl	$-1, %eax
	.loc 2 1401 2 is_stmt 1 view .LVU43
	.loc 2 1401 9 is_stmt 0 view .LVU44
	jmp	.L6
	.cfi_endproc
.LFE102:
	.size	write, .-write
	.type	_nolibc_memcpy_up, @function
_nolibc_memcpy_up:
.LVL18:
.LFB111:
	.file 3 "/home/boricj/Documents/linux/tools/include/nolibc/string.h"
	.loc 3 32 1 is_stmt 1 view -0
	.cfi_startproc
	.loc 3 32 1 is_stmt 0 view .LVU46
	pushl	%esi
	.cfi_def_cfa_offset 8
	.cfi_offset 6, -8
	pushl	%ebx
	.cfi_def_cfa_offset 12
	.cfi_offset 3, -12
	movl	%eax, %ebx
	movl	%ecx, %esi
	.loc 3 33 2 is_stmt 1 view .LVU47
.LVL19:
	.loc 3 35 2 view .LVU48
	.loc 3 33 9 is_stmt 0 view .LVU49
	movl	$0, %eax
.LVL20:
	.loc 3 35 8 view .LVU50
	jmp	.L10
.LVL21:
.L11:
	.loc 3 36 3 is_stmt 1 view .LVU51
	.loc 3 36 22 is_stmt 0 view .LVU52
	movzbl	(%edx,%eax), %ecx
	movb	%cl, (%ebx,%eax)
	.loc 3 37 3 is_stmt 1 view .LVU53
	.loc 3 37 6 is_stmt 0 view .LVU54
	addl	$1, %eax
.LVL22:
.L10:
	.loc 3 35 13 is_stmt 1 view .LVU55
	cmpl	%esi, %eax
	jb	.L11
	.loc 3 39 2 view .LVU56
	.loc 3 40 1 is_stmt 0 view .LVU57
	movl	%ebx, %eax
.LVL23:
	.loc 3 40 1 view .LVU58
	popl	%ebx
	.cfi_restore 3
	.cfi_def_cfa_offset 8
.LVL24:
	.loc 3 40 1 view .LVU59
	popl	%esi
	.cfi_restore 6
	.cfi_def_cfa_offset 4
.LVL25:
	.loc 3 40 1 view .LVU60
	ret
	.cfi_endproc
.LFE111:
	.size	_nolibc_memcpy_up, .-_nolibc_memcpy_up
	.type	fileno, @function
fileno:
.LVL26:
.LFB155:
	.file 4 "/home/boricj/Documents/linux/tools/include/nolibc/stdio.h"
	.loc 4 51 1 is_stmt 1 view -0
	.cfi_startproc
	.loc 4 52 2 view .LVU62
	.loc 4 54 2 view .LVU63
	.loc 4 54 5 is_stmt 0 view .LVU64
	testl	%eax, %eax
	jns	.L16
	.loc 4 58 2 is_stmt 1 view .LVU65
	.loc 4 58 9 is_stmt 0 view .LVU66
	notl	%eax
.LVL27:
	.loc 4 59 1 view .LVU67
	ret
.LVL28:
.L16:
	.loc 4 55 3 is_stmt 1 view .LVU68
	.loc 4 55 3 view .LVU69
	movl	$9, errno
	.loc 4 55 3 view .LVU70
	.loc 4 56 3 view .LVU71
	.loc 4 56 10 is_stmt 0 view .LVU72
	movl	$-1, %eax
.LVL29:
	.loc 4 56 10 view .LVU73
	ret
	.cfi_endproc
.LFE155:
	.size	fileno, .-fileno
	.type	fputc, @function
fputc:
.LVL30:
.LFB160:
	.loc 4 121 1 is_stmt 1 view -0
	.cfi_startproc
	.loc 4 121 1 is_stmt 0 view .LVU75
	subl	$16, %esp
	.cfi_def_cfa_offset 20
	movl	%eax, %ecx
	movl	%edx, %eax
.LVL31:
	.loc 4 122 2 is_stmt 1 view .LVU76
	.loc 4 122 16 is_stmt 0 view .LVU77
	movb	%cl, 15(%esp)
	.loc 4 124 2 is_stmt 1 view .LVU78
	.loc 4 124 6 is_stmt 0 view .LVU79
	call	fileno
.LVL32:
	.loc 4 124 6 view .LVU80
	movl	$1, %ecx
	leal	15(%esp), %edx
	call	write
.LVL33:
	.loc 4 124 5 view .LVU81
	testl	%eax, %eax
	jle	.L19
	.loc 4 126 2 is_stmt 1 view .LVU82
	.loc 4 126 9 is_stmt 0 view .LVU83
	movzbl	15(%esp), %eax
.L17:
	.loc 4 127 1 view .LVU84
	addl	$16, %esp
	.cfi_remember_state
	.cfi_def_cfa_offset 4
	ret
.L19:
	.cfi_restore_state
	.loc 4 125 10 view .LVU85
	movl	$-1, %eax
	jmp	.L17
	.cfi_endproc
.LFE160:
	.size	fputc, .-fputc
	.type	putchar, @function
putchar:
.LVL34:
.LFB161:
	.loc 4 131 1 is_stmt 1 view -0
	.cfi_startproc
	.loc 4 132 2 view .LVU87
	.loc 4 132 9 is_stmt 0 view .LVU88
	movl	$-2, %edx
	call	fputc
.LVL35:
	.loc 4 133 1 view .LVU89
	ret
	.cfi_endproc
.LFE161:
	.size	putchar, .-putchar
	.weak	_start
	.type	_start, @function
_start:
.LFB0:
	.file 5 "/home/boricj/Documents/linux/tools/include/nolibc/arch-i386.h"
	.loc 5 194 1 is_stmt 1 view -0
	.cfi_startproc
	.loc 5 195 2 view .LVU91
#APP
# 195 "/home/boricj/Documents/linux/tools/include/nolibc/arch-i386.h" 1
	pop %eax
mov %esp, %ebx
lea 4(%ebx,%eax,4),%ecx
mov %ecx, environ
xor %ebp, %ebp
mov %ecx, %edx
0:
add $4, %edx
cmp -4(%edx), %ebp
jnz 0b
mov %edx, _auxv
and $-16, %esp
sub $4, %esp
push %ecx
push %ebx
push %eax
call main
mov %eax, %ebx
movl $1, %eax
int $0x80
hlt

# 0 "" 2
	.loc 5 221 2 view .LVU92
#NO_APP
	.cfi_endproc
.LFE0:
	.size	_start, .-_start
	.section	.text.nolibc_raise,"ax",@progbits
	.weak	raise
	.type	raise, @function
raise:
.LVL36:
.LFB105:
	.file 6 "/home/boricj/Documents/linux/tools/include/nolibc/signal.h"
	.loc 6 18 1 view -0
	.cfi_startproc
	.loc 6 19 2 view .LVU94
	.loc 6 19 9 is_stmt 0 view .LVU95
	call	sys_getpid
.LVL37:
	movl	4(%esp), %edx
	call	sys_kill
.LVL38:
	.loc 6 20 1 view .LVU96
	ret
	.cfi_endproc
.LFE105:
	.size	raise, .-raise
	.section	.text.nolibc_memmove,"ax",@progbits
	.weak	memmove
	.type	memmove, @function
memmove:
.LVL39:
.LFB113:
	.loc 3 57 1 is_stmt 1 view -0
	.cfi_startproc
	.loc 3 57 1 is_stmt 0 view .LVU98
	pushl	%edi
	.cfi_def_cfa_offset 8
	.cfi_offset 7, -8
	pushl	%esi
	.cfi_def_cfa_offset 12
	.cfi_offset 6, -12
	pushl	%ebx
	.cfi_def_cfa_offset 16
	.cfi_offset 3, -16
	movl	16(%esp), %ebx
	movl	20(%esp), %esi
	movl	24(%esp), %edx
	.loc 3 58 2 is_stmt 1 view .LVU99
	.loc 3 60 2 view .LVU100
.LVL40:
	.loc 3 61 2 view .LVU101
	.loc 3 63 2 view .LVU102
	.loc 3 63 5 is_stmt 0 view .LVU103
	cmpl	%esi, %ebx
	jb	.L29
	.loc 3 60 6 view .LVU104
	movl	%edx, %eax
	.loc 3 61 6 view .LVU105
	movl	$-1, %edi
	jmp	.L27
.LVL41:
.L28:
	.loc 3 69 3 is_stmt 1 view .LVU106
	.loc 3 69 7 is_stmt 0 view .LVU107
	addl	%edi, %eax
.LVL42:
	.loc 3 70 3 is_stmt 1 view .LVU108
	.loc 3 70 43 is_stmt 0 view .LVU109
	movzbl	(%esi,%eax), %ecx
	.loc 3 70 22 view .LVU110
	movb	%cl, (%ebx,%eax)
	.loc 3 71 3 is_stmt 1 view .LVU111
	.loc 3 71 6 is_stmt 0 view .LVU112
	subl	$1, %edx
.LVL43:
.L27:
	.loc 3 68 9 is_stmt 1 view .LVU113
	testl	%edx, %edx
	jne	.L28
	.loc 3 73 2 view .LVU114
	.loc 3 74 1 is_stmt 0 view .LVU115
	movl	%ebx, %eax
.LVL44:
	.loc 3 74 1 view .LVU116
	popl	%ebx
	.cfi_remember_state
	.cfi_restore 3
	.cfi_def_cfa_offset 12
.LVL45:
	.loc 3 74 1 view .LVU117
	popl	%esi
	.cfi_restore 6
	.cfi_def_cfa_offset 8
.LVL46:
	.loc 3 74 1 view .LVU118
	popl	%edi
	.cfi_restore 7
	.cfi_def_cfa_offset 4
.LVL47:
	.loc 3 74 1 view .LVU119
	ret
.LVL48:
.L29:
	.cfi_restore_state
	.loc 3 64 7 view .LVU120
	movl	$-1, %eax
	.loc 3 65 7 view .LVU121
	movl	$1, %edi
.LVL49:
	.loc 3 65 7 view .LVU122
	jmp	.L27
	.cfi_endproc
.LFE113:
	.size	memmove, .-memmove
	.section	.text.nolibc_memcpy,"ax",@progbits
	.weak	memcpy
	.type	memcpy, @function
memcpy:
.LVL50:
.LFB114:
	.loc 3 79 1 is_stmt 1 view -0
	.cfi_startproc
	.loc 3 80 2 view .LVU124
	.loc 3 80 9 is_stmt 0 view .LVU125
	movl	12(%esp), %ecx
	movl	8(%esp), %edx
	movl	4(%esp), %eax
	call	_nolibc_memcpy_up
.LVL51:
	.loc 3 81 1 view .LVU126
	ret
	.cfi_endproc
.LFE114:
	.size	memcpy, .-memcpy
	.section	.text.nolibc_memset,"ax",@progbits
	.weak	memset
	.type	memset, @function
memset:
.LVL52:
.LFB115:
	.loc 3 88 1 is_stmt 1 view -0
	.cfi_startproc
	.loc 3 88 1 is_stmt 0 view .LVU128
	pushl	%esi
	.cfi_def_cfa_offset 8
	.cfi_offset 6, -8
	pushl	%ebx
	.cfi_def_cfa_offset 12
	.cfi_offset 3, -12
	movl	12(%esp), %esi
	movl	16(%esp), %ebx
	movl	20(%esp), %eax
	.loc 3 89 2 is_stmt 1 view .LVU129
.LVL53:
	.loc 3 91 2 view .LVU130
	.loc 3 89 8 is_stmt 0 view .LVU131
	movl	%esi, %edx
	.loc 3 91 8 view .LVU132
	jmp	.L34
.LVL54:
.L35:
	.loc 3 93 3 is_stmt 1 view .LVU133
	.loc 3 94 3 view .LVU134
.LVL55:
	.loc 3 94 10 is_stmt 0 view .LVU135
	movb	%bl, (%edx)
	.loc 3 94 6 view .LVU136
	leal	1(%edx), %edx
.LVL56:
	.loc 3 91 12 view .LVU137
	movl	%ecx, %eax
.LVL57:
.L34:
	.loc 3 91 9 is_stmt 1 view .LVU138
	.loc 3 91 12 is_stmt 0 view .LVU139
	leal	-1(%eax), %ecx
.LVL58:
	.loc 3 91 9 view .LVU140
	testl	%eax, %eax
	jne	.L35
	.loc 3 96 2 is_stmt 1 view .LVU141
	.loc 3 97 1 is_stmt 0 view .LVU142
	movl	%esi, %eax
	popl	%ebx
	.cfi_restore 3
	.cfi_def_cfa_offset 8
	popl	%esi
	.cfi_restore 6
	.cfi_def_cfa_offset 4
.LVL59:
	.loc 3 97 1 view .LVU143
	ret
	.cfi_endproc
.LFE115:
	.size	memset, .-memset
	.section	.text.nolibc_abort,"ax",@progbits
	.weak	abort
	.type	abort, @function
abort:
.LFB129:
	.file 7 "/home/boricj/Documents/linux/tools/include/nolibc/stdlib.h"
	.loc 7 35 1 is_stmt 1 view -0
	.cfi_startproc
	.loc 7 36 2 view .LVU145
	call	sys_getpid
.LVL60:
	movl	$6, %edx
	call	sys_kill
.LVL61:
.L38:
	.loc 7 37 2 discriminator 1 view .LVU146
	.loc 7 37 2 discriminator 1 view .LVU147
	jmp	.L38
	.cfi_endproc
.LFE129:
	.size	abort, .-abort
	.text
	.globl	print_number
	.type	print_number, @function
print_number:
.LVL62:
.LFB172:
	.loc 1 26 28 view -0
	.cfi_startproc
	.loc 1 26 28 is_stmt 0 view .LVU149
	pushl	%esi
	.cfi_def_cfa_offset 8
	.cfi_offset 6, -8
	pushl	%ebx
	.cfi_def_cfa_offset 12
	.cfi_offset 3, -12
	movl	12(%esp), %esi
	.loc 1 27 5 is_stmt 1 view .LVU150
.LBB5:
	.loc 1 27 10 view .LVU151
.LVL63:
	.loc 1 27 14 is_stmt 0 view .LVU152
	movl	$3, %ebx
	.loc 1 27 5 view .LVU153
	jmp	.L40
.LVL64:
.L41:
.LBB6:
	.loc 1 33 13 is_stmt 1 view .LVU154
	addl	$87, %eax
.LVL65:
	.loc 1 33 13 is_stmt 0 view .LVU155
	call	putchar
.LVL66:
.L42:
	.loc 1 33 13 view .LVU156
.LBE6:
	.loc 1 27 30 is_stmt 1 discriminator 2 view .LVU157
	subl	$1, %ebx
.LVL67:
.L40:
	.loc 1 27 23 discriminator 1 view .LVU158
	testl	%ebx, %ebx
	js	.L45
.LBB7:
	.loc 1 28 9 view .LVU159
	.loc 1 28 32 is_stmt 0 view .LVU160
	leal	0(,%ebx,4), %ecx
	.loc 1 28 26 view .LVU161
	movl	%esi, %eax
	sarl	%cl, %eax
	.loc 1 28 13 view .LVU162
	cltd
	shrl	$28, %edx
	addl	%edx, %eax
	andl	$15, %eax
	subl	%edx, %eax
.LVL68:
	.loc 1 30 9 is_stmt 1 view .LVU163
	.loc 1 30 12 is_stmt 0 view .LVU164
	cmpl	$9, %eax
	jg	.L41
	.loc 1 31 13 is_stmt 1 view .LVU165
	addl	$48, %eax
.LVL69:
	.loc 1 31 13 is_stmt 0 view .LVU166
	call	putchar
.LVL70:
	.loc 1 31 13 view .LVU167
	jmp	.L42
.LVL71:
.L45:
	.loc 1 31 13 view .LVU168
.LBE7:
.LBE5:
	.loc 1 35 1 view .LVU169
	popl	%ebx
	.cfi_restore 3
	.cfi_def_cfa_offset 8
.LVL72:
	.loc 1 35 1 view .LVU170
	popl	%esi
	.cfi_restore 6
	.cfi_def_cfa_offset 4
	ret
	.cfi_endproc
.LFE172:
	.size	print_number, .-print_number
	.globl	print_ascii_entry
	.type	print_ascii_entry, @function
print_ascii_entry:
.LVL73:
.LFB173:
	.loc 1 37 101 is_stmt 1 view -0
	.cfi_startproc
	.loc 1 37 101 is_stmt 0 view .LVU172
	pushl	%ebp
	.cfi_def_cfa_offset 8
	.cfi_offset 5, -8
	pushl	%edi
	.cfi_def_cfa_offset 12
	.cfi_offset 7, -12
	pushl	%esi
	.cfi_def_cfa_offset 16
	.cfi_offset 6, -16
	pushl	%ebx
	.cfi_def_cfa_offset 20
	.cfi_offset 3, -20
	subl	$12, %esp
	.cfi_def_cfa_offset 32
	movl	40(%esp), %ebp
	.loc 1 38 5 is_stmt 1 view .LVU173
	movsbl	32(%esp), %edi
	pushl	%edi
	.cfi_def_cfa_offset 36
	call	print_number
.LVL74:
	.loc 1 39 5 view .LVU174
	movl	$32, %eax
	call	putchar
.LVL75:
	.loc 1 41 5 view .LVU175
	.loc 1 41 9 is_stmt 0 view .LVU176
	subl	$8, %esp
	.cfi_def_cfa_offset 44
	pushl	%edi
	.cfi_def_cfa_offset 48
	call	*isgraph@GOT
.LVL76:
	.loc 1 41 8 view .LVU177
	addl	$16, %esp
	.cfi_def_cfa_offset 32
	testl	%eax, %eax
	je	.L47
	.loc 1 42 9 is_stmt 1 view .LVU178
	movl	%edi, %eax
	call	putchar
.LVL77:
.L48:
	.loc 1 45 5 view .LVU179
	movl	$32, %eax
	call	putchar
.LVL78:
	.loc 1 47 5 view .LVU180
.LBB8:
	.loc 1 47 10 view .LVU181
	.loc 1 47 14 is_stmt 0 view .LVU182
	movl	$0, %ebx
	.loc 1 47 5 view .LVU183
	jmp	.L49
.LVL79:
.L47:
	.loc 1 47 5 view .LVU184
.LBE8:
	.loc 1 44 9 is_stmt 1 view .LVU185
	movl	$32, %eax
	call	putchar
.LVL80:
	jmp	.L48
.LVL81:
.L50:
.LBB11:
.LBB9:
	.loc 1 53 13 view .LVU186
	movl	$32, %eax
	call	putchar
.LVL82:
.L51:
.LBE9:
	.loc 1 47 48 discriminator 2 view .LVU187
	addl	$1, %ebx
.LVL83:
.L49:
	.loc 1 47 23 discriminator 1 view .LVU188
	cmpl	%ebp, %ebx
	jge	.L54
.LBB10:
	.loc 1 48 9 view .LVU189
	.loc 1 48 31 is_stmt 0 view .LVU190
	movl	36(%esp), %eax
	leal	(%eax,%ebx,8), %esi
.LVL84:
	.loc 1 50 9 is_stmt 1 view .LVU191
	.loc 1 50 13 is_stmt 0 view .LVU192
	subl	$12, %esp
	.cfi_def_cfa_offset 44
	pushl	%edi
	.cfi_def_cfa_offset 48
	call	*(%esi)
.LVL85:
	.loc 1 50 12 view .LVU193
	addl	$16, %esp
	.cfi_def_cfa_offset 32
	testl	%eax, %eax
	je	.L50
	.loc 1 51 13 is_stmt 1 view .LVU194
	movsbl	4(%esi), %eax
	call	putchar
.LVL86:
	jmp	.L51
.LVL87:
.L54:
	.loc 1 51 13 is_stmt 0 view .LVU195
.LBE10:
.LBE11:
	.loc 1 55 1 view .LVU196
	addl	$12, %esp
	.cfi_def_cfa_offset 20
	popl	%ebx
	.cfi_restore 3
	.cfi_def_cfa_offset 16
.LVL88:
	.loc 1 55 1 view .LVU197
	popl	%esi
	.cfi_restore 6
	.cfi_def_cfa_offset 12
	popl	%edi
	.cfi_restore 7
	.cfi_def_cfa_offset 8
	popl	%ebp
	.cfi_restore 5
	.cfi_def_cfa_offset 4
	ret
	.cfi_endproc
.LFE173:
	.size	print_ascii_entry, .-print_ascii_entry
	.globl	main
	.type	main, @function
main:
.LFB174:
	.loc 1 57 12 is_stmt 1 view -0
	.cfi_startproc
	leal	4(%esp), %ecx
	.cfi_def_cfa 1, 0
	andl	$-16, %esp
	pushl	-4(%ecx)
	pushl	%ebp
	movl	%esp, %ebp
	.cfi_escape 0x10,0x5,0x2,0x75,0
	pushl	%esi
	pushl	%ebx
	pushl	%ecx
	.cfi_escape 0xf,0x3,0x75,0x74,0x6
	.cfi_escape 0x10,0x6,0x2,0x75,0x7c
	.cfi_escape 0x10,0x3,0x2,0x75,0x78
	subl	$12, %esp
	.loc 1 58 5 view .LVU199
.LBB12:
	.loc 1 58 10 view .LVU200
.LVL89:
	.loc 1 58 14 is_stmt 0 view .LVU201
	movl	$0, %ebx
	.loc 1 58 5 view .LVU202
	jmp	.L56
.LVL90:
.L62:
.LBB13:
	.loc 1 65 9 view .LVU203
	movl	$10, %eax
.L57:
	.loc 1 65 9 discriminator 4 view .LVU204
	call	putchar
.LVL91:
.LBE13:
	.loc 1 58 31 is_stmt 1 discriminator 4 view .LVU205
	addl	$1, %ebx
.LVL92:
.L56:
	.loc 1 58 23 discriminator 2 view .LVU206
	cmpl	$127, %ebx
	jg	.L61
.LBB14:
	.loc 1 59 9 view .LVU207
	.loc 1 59 19 is_stmt 0 view .LVU208
	movl	COLUMNS, %esi
	.loc 1 59 13 view .LVU209
	movl	%ebx, %eax
	cltd
	idivl	%esi
	movl	%eax, %ecx
.LVL93:
	.loc 1 60 9 is_stmt 1 view .LVU210
	.loc 1 61 9 view .LVU211
	.loc 1 61 27 is_stmt 0 view .LVU212
	movl	%edx, %eax
.LVL94:
	.loc 1 61 27 view .LVU213
	sall	$7, %eax
	.loc 1 61 33 view .LVU214
	cltd
.LVL95:
	.loc 1 61 33 view .LVU215
	idivl	%esi
	.loc 1 61 13 view .LVU216
	addl	%ecx, %eax
.LVL96:
	.loc 1 63 9 is_stmt 1 view .LVU217
	subl	$4, %esp
	pushl	$10
	pushl	$s_ascii_properties
	movsbl	%al, %eax
.LVL97:
	.loc 1 63 9 is_stmt 0 view .LVU218
	pushl	%eax
	call	print_ascii_entry
.LVL98:
	.loc 1 65 9 is_stmt 1 view .LVU219
	.loc 1 65 19 is_stmt 0 view .LVU220
	movl	COLUMNS, %ecx
	movl	%ebx, %eax
	cltd
	idivl	%ecx
	.loc 1 65 40 view .LVU221
	subl	$1, %ecx
	.loc 1 65 9 view .LVU222
	addl	$16, %esp
	cmpl	%ecx, %edx
	je	.L62
	movl	$9, %eax
	jmp	.L57
.LVL99:
.L61:
	.loc 1 65 9 view .LVU223
.LBE14:
.LBE12:
	.loc 1 68 5 is_stmt 1 view .LVU224
	.loc 1 69 1 is_stmt 0 view .LVU225
	movl	$0, %eax
	leal	-12(%ebp), %esp
	popl	%ecx
	.cfi_restore 1
	.cfi_def_cfa 1, 0
	popl	%ebx
	.cfi_restore 3
.LVL100:
	.loc 1 69 1 view .LVU226
	popl	%esi
	.cfi_restore 6
	popl	%ebp
	.cfi_restore 5
	leal	-4(%ecx), %esp
	.cfi_def_cfa 4, 4
	ret
	.cfi_endproc
.LFE174:
	.size	main, .-main
	.globl	COLUMNS
	.data
	.align 4
	.type	COLUMNS, @object
	.size	COLUMNS, 4
COLUMNS:
	.long	4
	.globl	s_ascii_properties
	.section	.rodata
	.align 32
	.type	s_ascii_properties, @object
	.size	s_ascii_properties, 80
s_ascii_properties:
	.long	isgraph
	.byte	103
	.zero	3
	.long	isprint
	.byte	112
	.zero	3
	.long	iscntrl
	.byte	99
	.zero	3
	.long	isspace
	.byte	115
	.zero	3
	.long	ispunct
	.byte	33
	.zero	3
	.long	isalnum
	.byte	65
	.zero	3
	.long	isalpha
	.byte	97
	.zero	3
	.long	isdigit
	.byte	100
	.zero	3
	.long	isupper
	.byte	85
	.zero	3
	.long	islower
	.byte	108
	.zero	3
	.globl	NUM_ASCII_PROPERTIES
	.align 4
	.type	NUM_ASCII_PROPERTIES, @object
	.size	NUM_ASCII_PROPERTIES, 4
NUM_ASCII_PROPERTIES:
	.long	10
	.weak	errno
	.bss
	.align 4
	.type	errno, @object
	.size	errno, 4
errno:
	.zero	4
	.weak	_auxv
	.align 4
	.type	_auxv, @object
	.size	_auxv, 4
_auxv:
	.zero	4
	.weak	environ
	.align 4
	.type	environ, @object
	.size	environ, 4
environ:
	.zero	4
	.text
.Letext0:
	.file 8 "/home/boricj/Documents/linux/tools/include/nolibc/stdint.h"
	.file 9 "/home/boricj/Documents/linux/tools/include/nolibc/std.h"
	.file 10 "/home/boricj/Documents/linux/tools/include/nolibc/errno.h"
	.file 11 "../../include/ctype.h"
	.section	.note.GNU-stack,"",@progbits
