	.file	"main.c"
	.text
.Ltext0:
	.file 1 "/home/boricj/Documents/ghidra-delinker-extension/src/test/resources/ascii-table/src/main.c"
#APP
	.section .text.nolibc_memmove_memcpy
.weak memmove
.weak memcpy
memmove:
memcpy:
movq %rdx, %rcx
	movq %rdi, %rax
	movq %rdi, %rdx
	subq %rsi, %rdx
	cmpq %rcx, %rdx
	jb   1f
	rep movsb
	retq
1:leaq -1(%rdi, %rcx, 1), %rdi
	leaq -1(%rsi, %rcx, 1), %rsi
	std
	rep movsb
	cld
	retq
.section .text.nolibc_memset
.weak memset
memset:
xchgl %eax, %esi
	movq  %rdx, %rcx
	pushq %rdi
	rep stosb
	popq  %rax
	retq

#NO_APP
	.type	sys_exit, @function
sys_exit:
.LVL0:
.LFB24:
	.file 2 "/home/boricj/Documents/linux/tools/include/nolibc/sys.h"
	.loc 2 297 1 view -0
	.cfi_startproc
	.loc 2 298 2 view .LVU1
.LBB2:
	.loc 2 298 2 view .LVU2
	.loc 2 298 2 view .LVU3
	movl	$60, %eax
	.loc 2 298 2 view .LVU4
	movzbl	%dil, %edi
.LVL1:
	.loc 2 298 2 view .LVU5
#APP
# 298 "/home/boricj/Documents/linux/tools/include/nolibc/sys.h" 1
	syscall

# 0 "" 2
.LVL2:
	.loc 2 298 2 view .LVU6
#NO_APP
	.p2align 1
.L2:
.LBE2:
	.loc 2 299 2 view .LVU7
	.loc 2 299 7 view .LVU8
	jmp	.L2
	.cfi_endproc
.LFE24:
	.size	sys_exit, .-sys_exit
	.type	_exit, @function
_exit:
.LVL3:
.LFB25:
	.loc 2 304 1 view -0
	.cfi_startproc
	.loc 2 305 2 view .LVU10
	call	sys_exit
.LVL4:
	.loc 2 305 2 is_stmt 0 view .LVU11
	.cfi_endproc
.LFE25:
	.size	_exit, .-_exit
	.type	exit, @function
exit:
.LVL5:
.LFB26:
	.loc 2 310 1 is_stmt 1 view -0
	.cfi_startproc
	.loc 2 311 2 view .LVU13
	call	_exit
.LVL6:
	.loc 2 311 2 is_stmt 0 view .LVU14
	.cfi_endproc
.LFE26:
	.size	exit, .-exit
	.type	sys_getpid, @function
sys_getpid:
.LFB39:
	.loc 2 439 1 is_stmt 1 view -0
	.cfi_startproc
	.loc 2 440 2 view .LVU16
.LBB3:
	.loc 2 440 9 view .LVU17
	.loc 2 440 9 view .LVU18
	movl	$39, %eax
	.loc 2 440 9 view .LVU19
#APP
# 440 "/home/boricj/Documents/linux/tools/include/nolibc/sys.h" 1
	syscall

# 0 "" 2
.LVL7:
	.loc 2 440 9 view .LVU20
#NO_APP
.LBE3:
	.loc 2 441 1 is_stmt 0 view .LVU21
	ret
	.cfi_endproc
.LFE39:
	.size	sys_getpid, .-sys_getpid
	.type	sys_kill, @function
sys_kill:
.LVL8:
.LFB48:
	.loc 2 523 1 is_stmt 1 view -0
	.cfi_startproc
	.loc 2 524 2 view .LVU23
.LBB4:
	.loc 2 524 9 view .LVU24
	.loc 2 524 9 view .LVU25
	movl	$62, %eax
	.loc 2 524 9 view .LVU26
	movslq	%edi, %rdi
	.loc 2 524 9 view .LVU27
	movslq	%esi, %rsi
	.loc 2 524 9 view .LVU28
#APP
# 524 "/home/boricj/Documents/linux/tools/include/nolibc/sys.h" 1
	syscall

# 0 "" 2
.LVL9:
	.loc 2 524 9 view .LVU29
#NO_APP
.LBE4:
	.loc 2 525 1 is_stmt 0 view .LVU30
	ret
	.cfi_endproc
.LFE48:
	.size	sys_kill, .-sys_kill
	.type	sys_write, @function
sys_write:
.LVL10:
.LFB85:
	.loc 2 925 1 is_stmt 1 view -0
	.cfi_startproc
	.loc 2 926 2 view .LVU32
.LBB5:
	.loc 2 926 9 view .LVU33
	.loc 2 926 9 view .LVU34
	movl	$1, %eax
	.loc 2 926 9 view .LVU35
	movslq	%edi, %rdi
	.loc 2 926 9 view .LVU36
	.loc 2 926 9 view .LVU37
	.loc 2 926 9 view .LVU38
#APP
# 926 "/home/boricj/Documents/linux/tools/include/nolibc/sys.h" 1
	syscall

# 0 "" 2
.LVL11:
	.loc 2 926 9 view .LVU39
#NO_APP
.LBE5:
	.loc 2 927 1 is_stmt 0 view .LVU40
	ret
	.cfi_endproc
.LFE85:
	.size	sys_write, .-sys_write
	.type	write, @function
write:
.LVL12:
.LFB86:
	.loc 2 931 1 is_stmt 1 view -0
	.cfi_startproc
	.loc 2 932 2 view .LVU42
.LBB6:
	.loc 2 932 9 view .LVU43
	call	sys_write
.LVL13:
	.loc 2 932 9 discriminator 1 view .LVU44
	testq	%rax, %rax
	js	.L10
.L8:
.LBE6:
	.loc 2 933 1 is_stmt 0 view .LVU45
	ret
.L10:
.LBB7:
	.loc 2 932 9 is_stmt 1 discriminator 1 view .LVU46
	negl	%eax
.LVL14:
	.loc 2 932 9 is_stmt 0 discriminator 1 view .LVU47
	movl	%eax, errno(%rip)
	.loc 2 932 9 is_stmt 1 view .LVU48
	.loc 2 932 9 is_stmt 0 discriminator 1 view .LVU49
	movq	$-1, %rax
.LBE7:
	.loc 2 932 9 view .LVU50
	ret
	.cfi_endproc
.LFE86:
	.size	write, .-write
	.type	fileno, @function
fileno:
.LVL15:
.LFB215:
	.file 3 "/home/boricj/Documents/linux/tools/include/nolibc/stdio.h"
	.loc 3 88 1 is_stmt 1 view -0
	.cfi_startproc
	.loc 3 89 2 view .LVU52
	.loc 3 91 2 view .LVU53
	.loc 3 91 5 is_stmt 0 view .LVU54
	testq	%rdi, %rdi
	jns	.L14
	.loc 3 95 2 is_stmt 1 view .LVU55
	.loc 3 95 9 is_stmt 0 view .LVU56
	movl	%edi, %eax
	notl	%eax
	.loc 3 96 1 view .LVU57
	ret
.L14:
	.loc 3 92 3 is_stmt 1 view .LVU58
	.loc 3 92 3 view .LVU59
	movl	$9, errno(%rip)
	.loc 3 92 3 view .LVU60
	.loc 3 93 3 view .LVU61
	.loc 3 93 10 is_stmt 0 view .LVU62
	movl	$-1, %eax
	ret
	.cfi_endproc
.LFE215:
	.size	fileno, .-fileno
	.type	fputc, @function
fputc:
.LVL16:
.LFB220:
	.loc 3 158 1 is_stmt 1 view -0
	.cfi_startproc
	.loc 3 158 1 is_stmt 0 view .LVU64
	subq	$16, %rsp
	.cfi_def_cfa_offset 24
	movl	%edi, %eax
	movq	%rsi, %rdi
.LVL17:
	.loc 3 159 2 is_stmt 1 view .LVU65
	.loc 3 159 16 is_stmt 0 view .LVU66
	movb	%al, 15(%rsp)
	.loc 3 161 2 is_stmt 1 view .LVU67
	.loc 3 161 6 is_stmt 0 view .LVU68
	call	fileno
.LVL18:
	.loc 3 161 6 view .LVU69
	movl	%eax, %edi
	.loc 3 161 6 discriminator 1 view .LVU70
	leaq	15(%rsp), %rsi
	movl	$1, %edx
	call	write
.LVL19:
	.loc 3 161 5 discriminator 2 view .LVU71
	testq	%rax, %rax
	jle	.L17
	.loc 3 163 2 is_stmt 1 view .LVU72
	.loc 3 163 9 is_stmt 0 view .LVU73
	movzbl	15(%rsp), %eax
.L15:
	.loc 3 164 1 view .LVU74
	addq	$16, %rsp
	.cfi_remember_state
	.cfi_def_cfa_offset 8
	ret
.L17:
	.cfi_restore_state
	.loc 3 162 10 view .LVU75
	movl	$-1, %eax
	jmp	.L15
	.cfi_endproc
.LFE220:
	.size	fputc, .-fputc
	.type	putchar, @function
putchar:
.LVL20:
.LFB221:
	.loc 3 168 1 is_stmt 1 view -0
	.cfi_startproc
	.loc 3 169 2 view .LVU77
	.loc 3 169 9 is_stmt 0 view .LVU78
	movq	$-2, %rsi
	call	fputc
.LVL21:
	.loc 3 170 1 view .LVU79
	ret
	.cfi_endproc
.LFE221:
	.size	putchar, .-putchar
	.weak	_start_c
	.type	_start_c, @function
_start_c:
.LVL22:
.LFB0:
	.file 4 "/home/boricj/Documents/linux/tools/include/nolibc/crt.h"
	.loc 4 34 1 is_stmt 1 view -0
	.cfi_startproc
	.loc 4 34 1 is_stmt 0 view .LVU81
	pushq	%r13
	.cfi_def_cfa_offset 16
	.cfi_offset 13, -16
	pushq	%r12
	.cfi_def_cfa_offset 24
	.cfi_offset 12, -24
	pushq	%rbp
	.cfi_def_cfa_offset 32
	.cfi_offset 6, -32
	pushq	%rbx
	.cfi_def_cfa_offset 40
	.cfi_offset 3, -40
	subq	$8, %rsp
	.cfi_def_cfa_offset 48
	.loc 4 35 2 is_stmt 1 view .LVU82
	.loc 4 36 2 view .LVU83
	.loc 4 37 2 view .LVU84
	.loc 4 38 2 view .LVU85
	.loc 4 39 2 view .LVU86
	.loc 4 40 2 view .LVU87
	.loc 4 41 2 view .LVU88
	.loc 4 43 2 view .LVU89
	.loc 4 46 2 view .LVU90
	.loc 4 66 2 view .LVU91
	.loc 4 66 7 is_stmt 0 view .LVU92
	movq	(%rdi), %rbp
.LVL23:
	.loc 4 67 2 is_stmt 1 view .LVU93
	.loc 4 67 7 is_stmt 0 view .LVU94
	leaq	8(%rdi), %r13
.LVL24:
	.loc 4 70 2 is_stmt 1 view .LVU95
	.loc 4 70 17 is_stmt 0 view .LVU96
	leaq	16(%rdi,%rbp,8), %r12
.LVL25:
	.loc 4 70 10 view .LVU97
	movq	%r12, environ(%rip)
	.loc 4 73 2 is_stmt 1 view .LVU98
.LVL26:
	.loc 4 73 12 is_stmt 0 view .LVU99
	movq	%r12, %rax
.LVL27:
	.loc 4 73 12 view .LVU100
	.p2align 4
.L21:
	.loc 4 73 28 is_stmt 1 discriminator 2 view .LVU101
	movq	%rax, %rdx
	.loc 4 73 33 is_stmt 0 discriminator 2 view .LVU102
	addq	$8, %rax
.LVL28:
	.loc 4 73 28 discriminator 2 view .LVU103
	cmpq	$0, (%rdx)
	jne	.L21
	.loc 4 75 2 is_stmt 1 view .LVU104
	.loc 4 75 8 is_stmt 0 view .LVU105
	movq	%rax, _auxv(%rip)
	.loc 4 77 2 is_stmt 1 view .LVU106
.LVL29:
	.loc 4 77 17 is_stmt 0 view .LVU107
	movl	$__preinit_array_start, %ebx
	.loc 4 77 2 view .LVU108
	jmp	.L22
.LVL30:
.L23:
	.loc 4 78 3 is_stmt 1 view .LVU109
	.loc 4 78 4 is_stmt 0 view .LVU110
	movq	%r12, %rdx
	movq	%r13, %rsi
	movl	%ebp, %edi
	call	*(%rbx)
.LVL31:
	.loc 4 77 84 is_stmt 1 discriminator 3 view .LVU111
	addq	$8, %rbx
.LVL32:
.L22:
	.loc 4 77 52 discriminator 1 view .LVU112
	cmpq	$__preinit_array_end, %rbx
	jb	.L23
	.loc 4 79 17 is_stmt 0 view .LVU113
	movl	$__init_array_start, %ebx
.LVL33:
	.loc 4 79 17 view .LVU114
	jmp	.L24
.LVL34:
.L25:
	.loc 4 80 3 is_stmt 1 view .LVU115
	.loc 4 80 4 is_stmt 0 view .LVU116
	movq	%r12, %rdx
	movq	%r13, %rsi
	movl	%ebp, %edi
	call	*(%rbx)
.LVL35:
	.loc 4 79 78 is_stmt 1 discriminator 3 view .LVU117
	addq	$8, %rbx
.LVL36:
.L24:
	.loc 4 79 49 discriminator 1 view .LVU118
	cmpq	$__init_array_end, %rbx
	jb	.L25
	.loc 4 83 2 view .LVU119
	.loc 4 83 13 is_stmt 0 view .LVU120
	movq	%r12, %rdx
	movq	%r13, %rsi
	movl	%ebp, %edi
	call	*main@GOTPCREL(%rip)
.LVL37:
	movl	%eax, %ebp
.LVL38:
	.loc 4 85 2 is_stmt 1 view .LVU121
	.loc 4 85 17 is_stmt 0 view .LVU122
	movl	$__fini_array_end, %ebx
.LVL39:
	.loc 4 85 2 view .LVU123
	jmp	.L26
.LVL40:
.L27:
	.loc 4 86 3 is_stmt 1 view .LVU124
	.loc 4 86 4 is_stmt 0 view .LVU125
	subq	$8, %rbx
.LVL41:
	.loc 4 86 4 view .LVU126
	call	*(%rbx)
.LVL42:
.L26:
	.loc 4 85 47 is_stmt 1 discriminator 1 view .LVU127
	cmpq	$__fini_array_start, %rbx
	ja	.L27
	.loc 4 88 2 view .LVU128
	movl	%ebp, %edi
	call	exit
.LVL43:
	.cfi_endproc
.LFE0:
	.size	_start_c, .-_start_c
	.weak	_start
	.type	_start, @function
_start:
.LFB1:
	.file 5 "/home/boricj/Documents/linux/tools/include/nolibc/arch-x86_64.h"
	.loc 5 165 1 view -0
	.cfi_startproc
	.loc 5 166 2 view .LVU130
#APP
# 166 "/home/boricj/Documents/linux/tools/include/nolibc/arch-x86_64.h" 1
	xor  %ebp, %ebp
mov  %rsp, %rdi
call _start_c
hlt

# 0 "" 2
	.loc 5 172 32 view .LVU131
	.loc 5 173 1 is_stmt 0 view .LVU132
#NO_APP
	ud2
	.cfi_endproc
.LFE1:
	.size	_start, .-_start
	.section	.text.nolibc_raise,"ax",@progbits
	.weak	raise
	.type	raise, @function
raise:
.LVL44:
.LFB152:
	.file 6 "/home/boricj/Documents/linux/tools/include/nolibc/signal.h"
	.loc 6 22 1 is_stmt 1 view -0
	.cfi_startproc
	.loc 6 22 1 is_stmt 0 view .LVU134
	pushq	%rbx
	.cfi_def_cfa_offset 16
	.cfi_offset 3, -16
	movl	%edi, %ebx
	.loc 6 23 2 is_stmt 1 view .LVU135
	.loc 6 23 9 is_stmt 0 view .LVU136
	call	sys_getpid
.LVL45:
	.loc 6 23 9 view .LVU137
	movl	%eax, %edi
	.loc 6 23 9 discriminator 1 view .LVU138
	movl	%ebx, %esi
	call	sys_kill
.LVL46:
	.loc 6 24 1 view .LVU139
	popq	%rbx
	.cfi_def_cfa_offset 8
.LVL47:
	.loc 6 24 1 view .LVU140
	ret
	.cfi_endproc
.LFE152:
	.size	raise, .-raise
	.section	.text.nolibc_strlen,"ax",@progbits
	.weak	strlen
	.type	strlen, @function
strlen:
.LVL48:
.LFB168:
	.file 7 "/home/boricj/Documents/linux/tools/include/nolibc/string.h"
	.loc 7 136 1 is_stmt 1 view -0
	.cfi_startproc
	.loc 7 137 2 view .LVU142
	.loc 7 139 2 view .LVU143
	.loc 7 139 11 is_stmt 0 view .LVU144
	movl	$0, %eax
	.loc 7 139 2 view .LVU145
	jmp	.L33
.LVL49:
	.loc 7 139 2 view .LVU146
	.p2align 4
.L34:
	.loc 7 140 3 is_stmt 1 view .LVU147
	.loc 7 139 29 discriminator 3 view .LVU148
	addq	$1, %rax
.LVL50:
.L33:
	.loc 7 139 16 discriminator 1 view .LVU149
	cmpb	$0, (%rdi,%rax)
	jne	.L34
	.loc 7 141 2 view .LVU150
	.loc 7 142 1 is_stmt 0 view .LVU151
	ret
	.cfi_endproc
.LFE168:
	.size	strlen, .-strlen
	.section	.text.nolibc_abort,"ax",@progbits
	.weak	abort
	.type	abort, @function
abort:
.LFB184:
	.file 8 "/home/boricj/Documents/linux/tools/include/nolibc/stdlib.h"
	.loc 8 57 1 is_stmt 1 view -0
	.cfi_startproc
	.loc 8 58 2 view .LVU153
	call	sys_getpid
.LVL51:
	movl	%eax, %edi
	.loc 8 58 2 is_stmt 0 discriminator 1 view .LVU154
	movl	$6, %esi
	call	sys_kill
.LVL52:
	.p2align 1
.L36:
	.loc 8 59 2 is_stmt 1 view .LVU155
	.loc 8 59 2 view .LVU156
	jmp	.L36
	.cfi_endproc
.LFE184:
	.size	abort, .-abort
	.text
	.globl	print_number
	.type	print_number, @function
print_number:
.LVL53:
.LFB256:
	.loc 1 25 28 view -0
	.cfi_startproc
	.loc 1 25 28 is_stmt 0 view .LVU158
	pushq	%rbp
	.cfi_def_cfa_offset 16
	.cfi_offset 6, -16
	pushq	%rbx
	.cfi_def_cfa_offset 24
	.cfi_offset 3, -24
	movl	%edi, %ebp
	.loc 1 26 5 is_stmt 1 view .LVU159
	.loc 1 28 5 view .LVU160
.LVL54:
	.loc 1 28 12 is_stmt 0 view .LVU161
	movl	$3, %ebx
	.loc 1 28 5 view .LVU162
	jmp	.L38
.LVL55:
.L39:
.LBB8:
	.loc 1 34 13 is_stmt 1 view .LVU163
	addl	$87, %edi
.LVL56:
	.loc 1 34 13 is_stmt 0 view .LVU164
	call	putchar
.LVL57:
.L40:
	.loc 1 34 13 view .LVU165
.LBE8:
	.loc 1 28 26 is_stmt 1 discriminator 2 view .LVU166
	subl	$1, %ebx
.LVL58:
.L38:
	.loc 1 28 19 discriminator 1 view .LVU167
	testl	%ebx, %ebx
	js	.L43
.LBB9:
	.loc 1 29 9 view .LVU168
	.loc 1 29 32 is_stmt 0 view .LVU169
	leal	0(,%rbx,4), %ecx
	.loc 1 29 26 view .LVU170
	movl	%ebp, %edi
	sarl	%cl, %edi
	.loc 1 29 13 view .LVU171
	movl	%edi, %eax
	sarl	$31, %eax
	shrl	$28, %eax
	addl	%eax, %edi
	andl	$15, %edi
	subl	%eax, %edi
.LVL59:
	.loc 1 31 9 is_stmt 1 view .LVU172
	.loc 1 31 12 is_stmt 0 view .LVU173
	cmpl	$9, %edi
	jg	.L39
	.loc 1 32 13 is_stmt 1 view .LVU174
	addl	$48, %edi
.LVL60:
	.loc 1 32 13 is_stmt 0 view .LVU175
	call	putchar
.LVL61:
	.loc 1 32 13 view .LVU176
	jmp	.L40
.LVL62:
.L43:
	.loc 1 32 13 view .LVU177
.LBE9:
	.loc 1 36 1 view .LVU178
	popq	%rbx
	.cfi_def_cfa_offset 16
.LVL63:
	.loc 1 36 1 view .LVU179
	popq	%rbp
	.cfi_def_cfa_offset 8
.LVL64:
	.loc 1 36 1 view .LVU180
	ret
	.cfi_endproc
.LFE256:
	.size	print_number, .-print_number
	.globl	print_ascii_entry
	.type	print_ascii_entry, @function
print_ascii_entry:
.LVL65:
.LFB257:
	.loc 1 38 101 is_stmt 1 view -0
	.cfi_startproc
	.loc 1 38 101 is_stmt 0 view .LVU182
	pushq	%r14
	.cfi_def_cfa_offset 16
	.cfi_offset 14, -16
	pushq	%r13
	.cfi_def_cfa_offset 24
	.cfi_offset 13, -24
	pushq	%r12
	.cfi_def_cfa_offset 32
	.cfi_offset 12, -32
	pushq	%rbp
	.cfi_def_cfa_offset 40
	.cfi_offset 6, -40
	pushq	%rbx
	.cfi_def_cfa_offset 48
	.cfi_offset 3, -48
	movq	%rsi, %r14
	movl	%edx, %r13d
	.loc 1 39 5 is_stmt 1 view .LVU183
	.loc 1 41 5 view .LVU184
	movsbl	%dil, %r12d
	movl	%r12d, %edi
	.loc 1 41 5 is_stmt 0 view .LVU185
	call	print_number
.LVL66:
	.loc 1 42 5 is_stmt 1 view .LVU186
	movl	$32, %edi
	call	putchar
.LVL67:
	.loc 1 44 5 view .LVU187
	.loc 1 44 9 is_stmt 0 view .LVU188
	movl	%r12d, %edi
	call	*isgraph@GOTPCREL(%rip)
.LVL68:
	.loc 1 44 8 discriminator 1 view .LVU189
	testl	%eax, %eax
	je	.L45
	.loc 1 45 9 is_stmt 1 view .LVU190
	movl	%r12d, %edi
	call	putchar
.LVL69:
.L46:
	.loc 1 48 5 view .LVU191
	movl	$32, %edi
	call	putchar
.LVL70:
	.loc 1 50 5 view .LVU192
	.loc 1 50 12 is_stmt 0 view .LVU193
	movl	$0, %ebp
	.loc 1 50 5 view .LVU194
	jmp	.L47
.LVL71:
.L45:
	.loc 1 47 9 is_stmt 1 view .LVU195
	movl	$32, %edi
	call	putchar
.LVL72:
	jmp	.L46
.LVL73:
.L48:
.LBB10:
	.loc 1 56 13 view .LVU196
	movl	$32, %edi
	call	putchar
.LVL74:
.L49:
.LBE10:
	.loc 1 50 44 discriminator 2 view .LVU197
	addl	$1, %ebp
.LVL75:
.L47:
	.loc 1 50 19 discriminator 1 view .LVU198
	cmpl	%r13d, %ebp
	jge	.L52
.LBB11:
	.loc 1 51 9 view .LVU199
	.loc 1 51 53 is_stmt 0 view .LVU200
	movslq	%ebp, %rbx
	salq	$4, %rbx
	.loc 1 51 31 view .LVU201
	addq	%r14, %rbx
.LVL76:
	.loc 1 53 9 is_stmt 1 view .LVU202
	.loc 1 53 13 is_stmt 0 view .LVU203
	movl	%r12d, %edi
	call	*(%rbx)
.LVL77:
	.loc 1 53 12 discriminator 1 view .LVU204
	testl	%eax, %eax
	je	.L48
	.loc 1 54 13 is_stmt 1 view .LVU205
	movsbl	8(%rbx), %edi
	call	putchar
.LVL78:
	jmp	.L49
.LVL79:
.L52:
	.loc 1 54 13 is_stmt 0 view .LVU206
.LBE11:
	.loc 1 58 1 view .LVU207
	popq	%rbx
	.cfi_def_cfa_offset 40
	popq	%rbp
	.cfi_def_cfa_offset 32
.LVL80:
	.loc 1 58 1 view .LVU208
	popq	%r12
	.cfi_def_cfa_offset 24
.LVL81:
	.loc 1 58 1 view .LVU209
	popq	%r13
	.cfi_def_cfa_offset 16
.LVL82:
	.loc 1 58 1 view .LVU210
	popq	%r14
	.cfi_def_cfa_offset 8
.LVL83:
	.loc 1 58 1 view .LVU211
	ret
	.cfi_endproc
.LFE257:
	.size	print_ascii_entry, .-print_ascii_entry
	.globl	main
	.type	main, @function
main:
.LFB258:
	.loc 1 60 12 is_stmt 1 view -0
	.cfi_startproc
	pushq	%rbx
	.cfi_def_cfa_offset 16
	.cfi_offset 3, -16
	.loc 1 61 5 view .LVU213
	.loc 1 63 5 view .LVU214
.LVL84:
	.loc 1 63 12 is_stmt 0 view .LVU215
	movl	$0, %ebx
	.loc 1 63 5 view .LVU216
	jmp	.L54
.LVL85:
.L60:
.LBB12:
	.loc 1 70 9 discriminator 1 view .LVU217
	movl	$10, %edi
.L55:
	.loc 1 70 9 discriminator 4 view .LVU218
	call	putchar
.LVL86:
.LBE12:
	.loc 1 63 27 is_stmt 1 discriminator 2 view .LVU219
	addl	$1, %ebx
.LVL87:
.L54:
	.loc 1 63 19 discriminator 1 view .LVU220
	cmpl	$127, %ebx
	jg	.L59
.LBB13:
	.loc 1 64 9 view .LVU221
	.loc 1 64 19 is_stmt 0 view .LVU222
	movl	COLUMNS(%rip), %ecx
	.loc 1 64 13 view .LVU223
	movl	%ebx, %eax
	cltd
	idivl	%ecx
	movl	%eax, %esi
.LVL88:
	.loc 1 65 9 is_stmt 1 view .LVU224
	.loc 1 66 9 view .LVU225
	.loc 1 66 27 is_stmt 0 view .LVU226
	movl	%edx, %eax
.LVL89:
	.loc 1 66 27 view .LVU227
	sall	$7, %eax
	.loc 1 66 33 view .LVU228
	cltd
.LVL90:
	.loc 1 66 33 view .LVU229
	idivl	%ecx
	.loc 1 66 13 view .LVU230
	addl	%esi, %eax
.LVL91:
	.loc 1 68 9 is_stmt 1 view .LVU231
	movsbl	%al, %edi
	movl	$10, %edx
	movl	$s_ascii_properties, %esi
.LVL92:
	.loc 1 68 9 is_stmt 0 view .LVU232
	call	print_ascii_entry
.LVL93:
	.loc 1 70 9 is_stmt 1 view .LVU233
	.loc 1 70 19 is_stmt 0 view .LVU234
	movl	COLUMNS(%rip), %ecx
	movl	%ebx, %eax
	cltd
	idivl	%ecx
	.loc 1 70 40 view .LVU235
	subl	$1, %ecx
	.loc 1 70 9 view .LVU236
	cmpl	%ecx, %edx
	je	.L60
	.loc 1 70 9 discriminator 2 view .LVU237
	movl	$9, %edi
	jmp	.L55
.LVL94:
.L59:
	.loc 1 70 9 discriminator 2 view .LVU238
.LBE13:
	.loc 1 73 5 is_stmt 1 view .LVU239
	.loc 1 74 1 is_stmt 0 view .LVU240
	movl	$0, %eax
	popq	%rbx
	.cfi_def_cfa_offset 8
.LVL95:
	.loc 1 74 1 view .LVU241
	ret
	.cfi_endproc
.LFE258:
	.size	main, .-main
	.globl	COLUMNS
	.data
	.align 4
	.type	COLUMNS, @object
	.size	COLUMNS, 4
COLUMNS:
	.long	4
	.globl	s_ascii_properties
	.section	.rodata
	.align 32
	.type	s_ascii_properties, @object
	.size	s_ascii_properties, 160
s_ascii_properties:
	.quad	isgraph
	.byte	103
	.zero	7
	.quad	isprint
	.byte	112
	.zero	7
	.quad	iscntrl
	.byte	99
	.zero	7
	.quad	isspace
	.byte	115
	.zero	7
	.quad	ispunct
	.byte	33
	.zero	7
	.quad	isalnum
	.byte	65
	.zero	7
	.quad	isalpha
	.byte	97
	.zero	7
	.quad	isdigit
	.byte	100
	.zero	7
	.quad	isupper
	.byte	85
	.zero	7
	.quad	islower
	.byte	108
	.zero	7
	.globl	NUM_ASCII_PROPERTIES
	.align 4
	.type	NUM_ASCII_PROPERTIES, @object
	.size	NUM_ASCII_PROPERTIES, 4
NUM_ASCII_PROPERTIES:
	.long	10
	.weak	optopt
	.section	.data.nolibc_getopt,"aw"
	.align 4
	.type	optopt, @object
	.size	optopt, 4
optopt:
	.zero	4
	.weak	opterr
	.align 4
	.type	opterr, @object
	.size	opterr, 4
opterr:
	.long	1
	.weak	optind
	.align 4
	.type	optind, @object
	.size	optind, 4
optind:
	.long	1
	.weak	optarg
	.align 8
	.type	optarg, @object
	.size	optarg, 8
optarg:
	.zero	8
	.weak	errno
	.bss
	.align 4
	.type	errno, @object
	.size	errno, 4
errno:
	.zero	4
	.weak	_auxv
	.align 8
	.type	_auxv, @object
	.size	_auxv, 8
_auxv:
	.zero	8
	.weak	environ
	.align 8
	.type	environ, @object
	.size	environ, 8
environ:
	.zero	8
	.weak	__fini_array_start
	.weak	__fini_array_end
	.weak	__init_array_end
	.weak	__init_array_start
	.weak	__preinit_array_end
	.weak	__preinit_array_start
	.text
.Letext0:
	.file 9 "/home/boricj/Documents/linux/tools/include/nolibc/stdint.h"
	.file 10 "/home/boricj/Documents/linux/tools/include/nolibc/std.h"
	.file 11 "/home/boricj/Documents/linux/tools/include/nolibc/errno.h"
	.file 12 "/home/boricj/Documents/linux/tools/include/nolibc/getopt.h"
	.file 13 "../../include/ctype.h"
	.file 14 "/home/boricj/Documents/linux/tools/include/nolibc/stackprotector.h"
	.section	.note.GNU-stack,"",@progbits
